Archive member included to satisfy reference by file (symbol)

c:/program files/microchip/xc32/v3.01/bin/bin/../../lib/gcc/pic32c/8.3.1/../../../../pic32c/lib/thumb/v7e-m+dp/hard\libpic32c.a(data_init.o)
                              build/sam_e70_xult/debug/_ext/1728594169/startup_xc32.o (__pic32c_data_initialization)
c:/program files/microchip/xc32/v3.01/bin/bin/../../lib/gcc/pic32c/8.3.1/thumb/v7e-m+dp/hard\libgcc.a(_aeabi_uldivmod.o)
                              build/sam_e70_xult/debug/_ext/327803284/sys_time.o (__aeabi_uldivmod)
c:/program files/microchip/xc32/v3.01/bin/bin/../../lib/gcc/pic32c/8.3.1/thumb/v7e-m+dp/hard\libgcc.a(_udivmoddi4.o)
                              c:/program files/microchip/xc32/v3.01/bin/bin/../../lib/gcc/pic32c/8.3.1/thumb/v7e-m+dp/hard\libgcc.a(_aeabi_uldivmod.o) (__udivmoddi4)
c:/program files/microchip/xc32/v3.01/bin/bin/../../lib/gcc/pic32c/8.3.1/thumb/v7e-m+dp/hard\libgcc.a(_dvmd_tls.o)
                              c:/program files/microchip/xc32/v3.01/bin/bin/../../lib/gcc/pic32c/8.3.1/thumb/v7e-m+dp/hard\libgcc.a(_aeabi_uldivmod.o) (__aeabi_ldiv0)
c:/program files/microchip/xc32/v3.01/bin/bin/../../lib/gcc/pic32c/8.3.1/../../../../pic32c/lib/thumb/v7e-m+dp/hard\libg_nano.a(lib_a-atof.o)
                              build/sam_e70_xult/debug/_ext/1360937237/app_gps.o (atof)
c:/program files/microchip/xc32/v3.01/bin/bin/../../lib/gcc/pic32c/8.3.1/../../../../pic32c/lib/thumb/v7e-m+dp/hard\libg_nano.a(lib_a-atoi.o)
                              build/sam_e70_xult/debug/_ext/1360937237/app_gps.o (atoi)
c:/program files/microchip/xc32/v3.01/bin/bin/../../lib/gcc/pic32c/8.3.1/../../../../pic32c/lib/thumb/v7e-m+dp/hard\libg_nano.a(lib_a-ctype_.o)
                              build/sam_e70_xult/debug/_ext/1360937237/app_anemometer.o (_ctype_)
c:/program files/microchip/xc32/v3.01/bin/bin/../../lib/gcc/pic32c/8.3.1/../../../../pic32c/lib/thumb/v7e-m+dp/hard\libg_nano.a(lib_a-init.o)
                              build/sam_e70_xult/debug/_ext/1728594169/startup_xc32.o (__libc_init_array)
c:/program files/microchip/xc32/v3.01/bin/bin/../../lib/gcc/pic32c/8.3.1/../../../../pic32c/lib/thumb/v7e-m+dp/hard\libg_nano.a(lib_a-itoa.o)
                              build/sam_e70_xult/debug/_ext/1360937237/app_rudder_control.o (itoa)
c:/program files/microchip/xc32/v3.01/bin/bin/../../lib/gcc/pic32c/8.3.1/../../../../pic32c/lib/thumb/v7e-m+dp/hard\libg_nano.a(lib_a-malloc.o)
                              build/sam_e70_xult/debug/_ext/1360937237/app_gps.o (malloc)
c:/program files/microchip/xc32/v3.01/bin/bin/../../lib/gcc/pic32c/8.3.1/../../../../pic32c/lib/thumb/v7e-m+dp/hard\libg_nano.a(lib_a-memcpy-stub.o)
                              build/sam_e70_xult/debug/_ext/1055499099/plib_efc.o (memcpy)
c:/program files/microchip/xc32/v3.01/bin/bin/../../lib/gcc/pic32c/8.3.1/../../../../pic32c/lib/thumb/v7e-m+dp/hard\libg_nano.a(lib_a-memmove.o)
                              build/sam_e70_xult/debug/_ext/719181653/plib_hsmci.o (memmove)
c:/program files/microchip/xc32/v3.01/bin/bin/../../lib/gcc/pic32c/8.3.1/../../../../pic32c/lib/thumb/v7e-m+dp/hard\libg_nano.a(lib_a-memset.o)
                              build/sam_e70_xult/debug/_ext/1565510230/drv_sdmmc.o (memset)
c:/program files/microchip/xc32/v3.01/bin/bin/../../lib/gcc/pic32c/8.3.1/../../../../pic32c/lib/thumb/v7e-m+dp/hard\libg_nano.a(lib_a-nano-freer.o)
                              c:/program files/microchip/xc32/v3.01/bin/bin/../../lib/gcc/pic32c/8.3.1/../../../../pic32c/lib/thumb/v7e-m+dp/hard\libg_nano.a(lib_a-malloc.o) (_free_r)
c:/program files/microchip/xc32/v3.01/bin/bin/../../lib/gcc/pic32c/8.3.1/../../../../pic32c/lib/thumb/v7e-m+dp/hard\libg_nano.a(lib_a-nano-mallocr.o)
                              c:/program files/microchip/xc32/v3.01/bin/bin/../../lib/gcc/pic32c/8.3.1/../../../../pic32c/lib/thumb/v7e-m+dp/hard\libg_nano.a(lib_a-malloc.o) (_malloc_r)
c:/program files/microchip/xc32/v3.01/bin/bin/../../lib/gcc/pic32c/8.3.1/../../../../pic32c/lib/thumb/v7e-m+dp/hard\libg_nano.a(lib_a-sbrkr.o)
                              c:/program files/microchip/xc32/v3.01/bin/bin/../../lib/gcc/pic32c/8.3.1/../../../../pic32c/lib/thumb/v7e-m+dp/hard\libg_nano.a(lib_a-nano-mallocr.o) (_sbrk_r)
c:/program files/microchip/xc32/v3.01/bin/bin/../../lib/gcc/pic32c/8.3.1/../../../../pic32c/lib/thumb/v7e-m+dp/hard\libg_nano.a(lib_a-strchr.o)
                              build/sam_e70_xult/debug/_ext/1360937237/app_gps.o (strchr)
c:/program files/microchip/xc32/v3.01/bin/bin/../../lib/gcc/pic32c/8.3.1/../../../../pic32c/lib/thumb/v7e-m+dp/hard\libg_nano.a(lib_a-strcmp.o)
                              build/sam_e70_xult/debug/_ext/1305476372/sys_fs_media_manager.o (strcmp)
c:/program files/microchip/xc32/v3.01/bin/bin/../../lib/gcc/pic32c/8.3.1/../../../../pic32c/lib/thumb/v7e-m+dp/hard\libg_nano.a(lib_a-strcpy.o)
                              build/sam_e70_xult/debug/_ext/1305476372/sys_fs.o (strcpy)
c:/program files/microchip/xc32/v3.01/bin/bin/../../lib/gcc/pic32c/8.3.1/../../../../pic32c/lib/thumb/v7e-m+dp/hard\libg_nano.a(lib_a-strlen.o)
                              build/sam_e70_xult/debug/_ext/1305476372/sys_fs.o (strlen)
c:/program files/microchip/xc32/v3.01/bin/bin/../../lib/gcc/pic32c/8.3.1/../../../../pic32c/lib/thumb/v7e-m+dp/hard\libg_nano.a(lib_a-strncmp.o)
                              build/sam_e70_xult/debug/_ext/1305476372/sys_fs.o (strncmp)
c:/program files/microchip/xc32/v3.01/bin/bin/../../lib/gcc/pic32c/8.3.1/../../../../pic32c/lib/thumb/v7e-m+dp/hard\libg_nano.a(lib_a-strncpy.o)
                              build/sam_e70_xult/debug/_ext/1360937237/app_gps.o (strncpy)
c:/program files/microchip/xc32/v3.01/bin/bin/../../lib/gcc/pic32c/8.3.1/../../../../pic32c/lib/thumb/v7e-m+dp/hard\libg_nano.a(lib_a-strtod.o)
                              build/sam_e70_xult/debug/_ext/1360937237/app_communication.o (strtod)
c:/program files/microchip/xc32/v3.01/bin/bin/../../lib/gcc/pic32c/8.3.1/../../../../pic32c/lib/thumb/v7e-m+dp/hard\libg_nano.a(lib_a-strtol.o)
                              c:/program files/microchip/xc32/v3.01/bin/bin/../../lib/gcc/pic32c/8.3.1/../../../../pic32c/lib/thumb/v7e-m+dp/hard\libg_nano.a(lib_a-atoi.o) (_strtol_r)
c:/program files/microchip/xc32/v3.01/bin/bin/../../lib/gcc/pic32c/8.3.1/../../../../pic32c/lib/thumb/v7e-m+dp/hard\libg_nano.a(lib_a-utoa.o)
                              c:/program files/microchip/xc32/v3.01/bin/bin/../../lib/gcc/pic32c/8.3.1/../../../../pic32c/lib/thumb/v7e-m+dp/hard\libg_nano.a(lib_a-itoa.o) (__utoa)
c:/program files/microchip/xc32/v3.01/bin/bin/../../lib/gcc/pic32c/8.3.1/../../../../pic32c/lib/thumb/v7e-m+dp/hard\libg_nano.a(lib_a-gdtoa-gethex.o)
                              c:/program files/microchip/xc32/v3.01/bin/bin/../../lib/gcc/pic32c/8.3.1/../../../../pic32c/lib/thumb/v7e-m+dp/hard\libg_nano.a(lib_a-strtod.o) (__gethex)
c:/program files/microchip/xc32/v3.01/bin/bin/../../lib/gcc/pic32c/8.3.1/../../../../pic32c/lib/thumb/v7e-m+dp/hard\libg_nano.a(lib_a-gdtoa-hexnan.o)
                              c:/program files/microchip/xc32/v3.01/bin/bin/../../lib/gcc/pic32c/8.3.1/../../../../pic32c/lib/thumb/v7e-m+dp/hard\libg_nano.a(lib_a-strtod.o) (__match)
c:/program files/microchip/xc32/v3.01/bin/bin/../../lib/gcc/pic32c/8.3.1/../../../../pic32c/lib/thumb/v7e-m+dp/hard\libg_nano.a(lib_a-impure.o)
                              c:/program files/microchip/xc32/v3.01/bin/bin/../../lib/gcc/pic32c/8.3.1/../../../../pic32c/lib/thumb/v7e-m+dp/hard\libg_nano.a(lib_a-malloc.o) (_impure_ptr)
c:/program files/microchip/xc32/v3.01/bin/bin/../../lib/gcc/pic32c/8.3.1/../../../../pic32c/lib/thumb/v7e-m+dp/hard\libg_nano.a(lib_a-lnumeric.o)
                              c:/program files/microchip/xc32/v3.01/bin/bin/../../lib/gcc/pic32c/8.3.1/../../../../pic32c/lib/thumb/v7e-m+dp/hard\libg_nano.a(lib_a-strtod.o) (_C_numeric_locale)
c:/program files/microchip/xc32/v3.01/bin/bin/../../lib/gcc/pic32c/8.3.1/../../../../pic32c/lib/thumb/v7e-m+dp/hard\libg_nano.a(lib_a-locale.o)
                              c:/program files/microchip/xc32/v3.01/bin/bin/../../lib/gcc/pic32c/8.3.1/../../../../pic32c/lib/thumb/v7e-m+dp/hard\libg_nano.a(lib_a-strtod.o) (__global_locale)
c:/program files/microchip/xc32/v3.01/bin/bin/../../lib/gcc/pic32c/8.3.1/../../../../pic32c/lib/thumb/v7e-m+dp/hard\libg_nano.a(lib_a-mbtowc_r.o)
                              c:/program files/microchip/xc32/v3.01/bin/bin/../../lib/gcc/pic32c/8.3.1/../../../../pic32c/lib/thumb/v7e-m+dp/hard\libg_nano.a(lib_a-locale.o) (__ascii_mbtowc)
c:/program files/microchip/xc32/v3.01/bin/bin/../../lib/gcc/pic32c/8.3.1/../../../../pic32c/lib/thumb/v7e-m+dp/hard\libg_nano.a(lib_a-mlock.o)
                              c:/program files/microchip/xc32/v3.01/bin/bin/../../lib/gcc/pic32c/8.3.1/../../../../pic32c/lib/thumb/v7e-m+dp/hard\libg_nano.a(lib_a-nano-freer.o) (__malloc_lock)
c:/program files/microchip/xc32/v3.01/bin/bin/../../lib/gcc/pic32c/8.3.1/../../../../pic32c/lib/thumb/v7e-m+dp/hard\libg_nano.a(lib_a-mprec.o)
                              c:/program files/microchip/xc32/v3.01/bin/bin/../../lib/gcc/pic32c/8.3.1/../../../../pic32c/lib/thumb/v7e-m+dp/hard\libg_nano.a(lib_a-strtod.o) (_Balloc)
c:/program files/microchip/xc32/v3.01/bin/bin/../../lib/gcc/pic32c/8.3.1/../../../../pic32c/lib/thumb/v7e-m+dp/hard\libg_nano.a(lib_a-nano-callocr.o)
                              c:/program files/microchip/xc32/v3.01/bin/bin/../../lib/gcc/pic32c/8.3.1/../../../../pic32c/lib/thumb/v7e-m+dp/hard\libg_nano.a(lib_a-mprec.o) (_calloc_r)
c:/program files/microchip/xc32/v3.01/bin/bin/../../lib/gcc/pic32c/8.3.1/../../../../pic32c/lib/thumb/v7e-m+dp/hard\libg_nano.a(lib_a-reent.o)
                              c:/program files/microchip/xc32/v3.01/bin/bin/../../lib/gcc/pic32c/8.3.1/../../../../pic32c/lib/thumb/v7e-m+dp/hard\libg_nano.a(lib_a-sbrkr.o) (errno)
c:/program files/microchip/xc32/v3.01/bin/bin/../../lib/gcc/pic32c/8.3.1/../../../../pic32c/lib/thumb/v7e-m+dp/hard\libg_nano.a(lib_a-s_nan.o)
                              c:/program files/microchip/xc32/v3.01/bin/bin/../../lib/gcc/pic32c/8.3.1/../../../../pic32c/lib/thumb/v7e-m+dp/hard\libg_nano.a(lib_a-strtod.o) (nan)
c:/program files/microchip/xc32/v3.01/bin/bin/../../lib/gcc/pic32c/8.3.1/../../../../pic32c/lib/thumb/v7e-m+dp/hard\libg_nano.a(lib_a-sf_nan.o)
                              c:/program files/microchip/xc32/v3.01/bin/bin/../../lib/gcc/pic32c/8.3.1/../../../../pic32c/lib/thumb/v7e-m+dp/hard\libg_nano.a(lib_a-strtod.o) (nanf)
c:/program files/microchip/xc32/v3.01/bin/bin/../../lib/gcc/pic32c/8.3.1/../../../../pic32c/lib/thumb/v7e-m+dp/hard\libg_nano.a(lib_a-wctomb_r.o)
                              c:/program files/microchip/xc32/v3.01/bin/bin/../../lib/gcc/pic32c/8.3.1/../../../../pic32c/lib/thumb/v7e-m+dp/hard\libg_nano.a(lib_a-locale.o) (__ascii_wctomb)
c:/program files/microchip/xc32/v3.01/bin/bin/../../lib/gcc/pic32c/8.3.1/../../../../pic32c/lib/thumb/v7e-m+dp/hard\libm_nano.a(lib_a-s_cos.o)
                              build/sam_e70_xult/debug/_ext/1360937237/app_course_algorithm.o (cos)
c:/program files/microchip/xc32/v3.01/bin/bin/../../lib/gcc/pic32c/8.3.1/../../../../pic32c/lib/thumb/v7e-m+dp/hard\libm_nano.a(lib_a-s_sin.o)
                              build/sam_e70_xult/debug/_ext/1360937237/app_course_algorithm.o (sin)
c:/program files/microchip/xc32/v3.01/bin/bin/../../lib/gcc/pic32c/8.3.1/../../../../pic32c/lib/thumb/v7e-m+dp/hard\libm_nano.a(lib_a-w_atan2.o)
                              build/sam_e70_xult/debug/_ext/1360937237/app_course_algorithm.o (atan2)
c:/program files/microchip/xc32/v3.01/bin/bin/../../lib/gcc/pic32c/8.3.1/../../../../pic32c/lib/thumb/v7e-m+dp/hard\libm_nano.a(lib_a-w_sqrt.o)
                              build/sam_e70_xult/debug/_ext/1360937237/app_course_algorithm.o (sqrt)
c:/program files/microchip/xc32/v3.01/bin/bin/../../lib/gcc/pic32c/8.3.1/../../../../pic32c/lib/thumb/v7e-m+dp/hard\libm_nano.a(lib_a-e_atan2.o)
                              c:/program files/microchip/xc32/v3.01/bin/bin/../../lib/gcc/pic32c/8.3.1/../../../../pic32c/lib/thumb/v7e-m+dp/hard\libm_nano.a(lib_a-w_atan2.o) (__ieee754_atan2)
c:/program files/microchip/xc32/v3.01/bin/bin/../../lib/gcc/pic32c/8.3.1/../../../../pic32c/lib/thumb/v7e-m+dp/hard\libm_nano.a(lib_a-e_rem_pio2.o)
                              c:/program files/microchip/xc32/v3.01/bin/bin/../../lib/gcc/pic32c/8.3.1/../../../../pic32c/lib/thumb/v7e-m+dp/hard\libm_nano.a(lib_a-s_cos.o) (__ieee754_rem_pio2)
c:/program files/microchip/xc32/v3.01/bin/bin/../../lib/gcc/pic32c/8.3.1/../../../../pic32c/lib/thumb/v7e-m+dp/hard\libm_nano.a(lib_a-e_sqrt.o)
                              c:/program files/microchip/xc32/v3.01/bin/bin/../../lib/gcc/pic32c/8.3.1/../../../../pic32c/lib/thumb/v7e-m+dp/hard\libm_nano.a(lib_a-w_sqrt.o) (__ieee754_sqrt)
c:/program files/microchip/xc32/v3.01/bin/bin/../../lib/gcc/pic32c/8.3.1/../../../../pic32c/lib/thumb/v7e-m+dp/hard\libm_nano.a(lib_a-k_cos.o)
                              c:/program files/microchip/xc32/v3.01/bin/bin/../../lib/gcc/pic32c/8.3.1/../../../../pic32c/lib/thumb/v7e-m+dp/hard\libm_nano.a(lib_a-s_cos.o) (__kernel_cos)
c:/program files/microchip/xc32/v3.01/bin/bin/../../lib/gcc/pic32c/8.3.1/../../../../pic32c/lib/thumb/v7e-m+dp/hard\libm_nano.a(lib_a-k_rem_pio2.o)
                              c:/program files/microchip/xc32/v3.01/bin/bin/../../lib/gcc/pic32c/8.3.1/../../../../pic32c/lib/thumb/v7e-m+dp/hard\libm_nano.a(lib_a-e_rem_pio2.o) (__kernel_rem_pio2)
c:/program files/microchip/xc32/v3.01/bin/bin/../../lib/gcc/pic32c/8.3.1/../../../../pic32c/lib/thumb/v7e-m+dp/hard\libm_nano.a(lib_a-k_sin.o)
                              c:/program files/microchip/xc32/v3.01/bin/bin/../../lib/gcc/pic32c/8.3.1/../../../../pic32c/lib/thumb/v7e-m+dp/hard\libm_nano.a(lib_a-s_cos.o) (__kernel_sin)
c:/program files/microchip/xc32/v3.01/bin/bin/../../lib/gcc/pic32c/8.3.1/../../../../pic32c/lib/thumb/v7e-m+dp/hard\libm_nano.a(lib_a-s_atan.o)
                              c:/program files/microchip/xc32/v3.01/bin/bin/../../lib/gcc/pic32c/8.3.1/../../../../pic32c/lib/thumb/v7e-m+dp/hard\libm_nano.a(lib_a-e_atan2.o) (atan)
c:/program files/microchip/xc32/v3.01/bin/bin/../../lib/gcc/pic32c/8.3.1/../../../../pic32c/lib/thumb/v7e-m+dp/hard\libm_nano.a(lib_a-s_fabs.o)
                              c:/program files/microchip/xc32/v3.01/bin/bin/../../lib/gcc/pic32c/8.3.1/../../../../pic32c/lib/thumb/v7e-m+dp/hard\libm_nano.a(lib_a-e_atan2.o) (fabs)
c:/program files/microchip/xc32/v3.01/bin/bin/../../lib/gcc/pic32c/8.3.1/../../../../pic32c/lib/thumb/v7e-m+dp/hard\libm_nano.a(lib_a-s_floor.o)
                              c:/program files/microchip/xc32/v3.01/bin/bin/../../lib/gcc/pic32c/8.3.1/../../../../pic32c/lib/thumb/v7e-m+dp/hard\libm_nano.a(lib_a-k_rem_pio2.o) (floor)
c:/program files/microchip/xc32/v3.01/bin/bin/../../lib/gcc/pic32c/8.3.1/../../../../pic32c/lib/thumb/v7e-m+dp/hard\libm_nano.a(lib_a-s_lib_ver.o)
                              c:/program files/microchip/xc32/v3.01/bin/bin/../../lib/gcc/pic32c/8.3.1/../../../../pic32c/lib/thumb/v7e-m+dp/hard\libm_nano.a(lib_a-w_sqrt.o) (__fdlib_version)
c:/program files/microchip/xc32/v3.01/bin/bin/../../lib/gcc/pic32c/8.3.1/../../../../pic32c/lib/thumb/v7e-m+dp/hard\libm_nano.a(lib_a-s_scalbn.o)
                              c:/program files/microchip/xc32/v3.01/bin/bin/../../lib/gcc/pic32c/8.3.1/../../../../pic32c/lib/thumb/v7e-m+dp/hard\libm_nano.a(lib_a-k_rem_pio2.o) (scalbn)
c:/program files/microchip/xc32/v3.01/bin/bin/../../lib/gcc/pic32c/8.3.1/../../../../pic32c/lib/thumb/v7e-m+dp/hard\libc_nano.a(lib_a-errno.o)
                              c:/program files/microchip/xc32/v3.01/bin/bin/../../lib/gcc/pic32c/8.3.1/../../../../pic32c/lib/thumb/v7e-m+dp/hard\libm_nano.a(lib_a-w_sqrt.o) (__errno)
c:/program files/microchip/xc32/v3.01/bin/bin/../../lib/gcc/pic32c/8.3.1/../../../../pic32c/lib/thumb/v7e-m+dp/hard\libpic32c.a(sbrk.o)
                              c:/program files/microchip/xc32/v3.01/bin/bin/../../lib/gcc/pic32c/8.3.1/../../../../pic32c/lib/thumb/v7e-m+dp/hard\libg_nano.a(lib_a-sbrkr.o) (_sbrk)
c:/program files/microchip/xc32/v3.01/bin/bin/../../lib/gcc/pic32c/8.3.1/thumb/v7e-m+dp/hard\libgcc.a(_arm_addsubdf3.o)
                              c:/program files/microchip/xc32/v3.01/bin/bin/../../lib/gcc/pic32c/8.3.1/../../../../pic32c/lib/thumb/v7e-m+dp/hard\libg_nano.a(lib_a-strtod.o) (__aeabi_l2d)
c:/program files/microchip/xc32/v3.01/bin/bin/../../lib/gcc/pic32c/8.3.1/thumb/v7e-m+dp/hard\libgcc.a(_fixdfdi.o)
                              c:/program files/microchip/xc32/v3.01/bin/bin/../../lib/gcc/pic32c/8.3.1/../../../../pic32c/lib/thumb/v7e-m+dp/hard\libg_nano.a(lib_a-strtod.o) (__aeabi_d2lz)
c:/program files/microchip/xc32/v3.01/bin/bin/../../lib/gcc/pic32c/8.3.1/thumb/v7e-m+dp/hard\libgcc.a(_fixunsdfdi.o)
                              c:/program files/microchip/xc32/v3.01/bin/bin/../../lib/gcc/pic32c/8.3.1/thumb/v7e-m+dp/hard\libgcc.a(_fixdfdi.o) (__aeabi_d2ulz)

Allocating common symbols
Common symbol       size              file

IMU_info            0x4               build/sam_e70_xult/debug/_ext/1360937237/app_course_algorithm.o
confirmation_year   0x4               build/sam_e70_xult/debug/_ext/1360937237/app_course_algorithm.o
su_vector           0x7               build/sam_e70_xult/debug/_ext/1360937237/app_anemometer.o
usart2Obj           0x30              build/sam_e70_xult/debug/_ext/707186936/plib_usart2.o
errno               0x4               c:/program files/microchip/xc32/v3.01/bin/bin/../../lib/gcc/pic32c/8.3.1/../../../../pic32c/lib/thumb/v7e-m+dp/hard\libg_nano.a(lib_a-reent.o)
gSysFsMutex         0x4               build/sam_e70_xult/debug/_ext/1305476372/sys_fs.o
xAPP_RUDDER_CONTROL_Tasks
                    0x4               build/sam_e70_xult/debug/_ext/1728594169/tasks.o
message_ptr         0x4               build/sam_e70_xult/debug/_ext/1360937237/app_communication.o
xAPP_COURSE_ALGORITHM_Tasks
                    0x4               build/sam_e70_xult/debug/_ext/1728594169/tasks.o
destination         0x14              build/sam_e70_xult/debug/_ext/1360937237/app_communication.o
xAPP_ANEMOMETER_Tasks
                    0x4               build/sam_e70_xult/debug/_ext/1728594169/tasks.o
app_communicationData
                    0x38              build/sam_e70_xult/debug/_ext/1360937237/app_communication.o
angles              0x6               build/sam_e70_xult/debug/_ext/1360937237/app_rudder_control.o
gSYSFSMediaObject   0x28              build/sam_e70_xult/debug/_ext/1305476372/sys_fs_media_manager.o
xdmacChannelObj     0x10              build/sam_e70_xult/debug/_ext/704852250/plib_xdmac.o
IMU_values          0x7a              build/sam_e70_xult/debug/_ext/1360937237/app_imu.o
xAPP_MAST_CONTROL_Tasks
                    0x4               build/sam_e70_xult/debug/_ext/1728594169/tasks.o
app_mast_controlData
                    0x1               build/sam_e70_xult/debug/_ext/1360937237/app_mast_control.o
VolToPart           0x2               build/sam_e70_xult/debug/_ext/1305476372/sys_fs_media_manager.o
gSYSFSMediaBuffer   0x200             build/sam_e70_xult/debug/_ext/1305476372/sys_fs_media_manager.o
GPS_info            0x4               build/sam_e70_xult/debug/_ext/1360937237/app_course_algorithm.o
usart0Obj           0x30              build/sam_e70_xult/debug/_ext/707186936/plib_usart0.o
TC3_CH0_CallbackObj
                    0x8               build/sam_e70_xult/debug/_ext/865331892/plib_tc3.o
xAPP_COMMUNICATION_Tasks
                    0x4               build/sam_e70_xult/debug/_ext/1728594169/tasks.o
xAPP_GPS_Tasks      0x4               build/sam_e70_xult/debug/_ext/1728594169/tasks.o
gSYSFSFileObj       0x120             build/sam_e70_xult/debug/_ext/1305476372/sys_fs.o
app_rudder_controlData
                    0x34              build/sam_e70_xult/debug/_ext/1360937237/app_rudder_control.o
gSYSFSDirObj        0x10              build/sam_e70_xult/debug/_ext/1305476372/sys_fs.o
gSYSFSCurrentMountPoint
                    0x8               build/sam_e70_xult/debug/_ext/1305476372/sys_fs.o
sysObj              0x18              build/sam_e70_xult/debug/_ext/1728594169/initialization.o
sdir                0x7               build/sam_e70_xult/debug/_ext/1360937237/app_anemometer.o
Anemometer_values   0x80              build/sam_e70_xult/debug/_ext/1360937237/app_anemometer.o
Anemometer_info     0x4               build/sam_e70_xult/debug/_ext/1360937237/app_course_algorithm.o
app_gpsData         0x38              build/sam_e70_xult/debug/_ext/1360937237/app_gps.o
portPinCbObj        0x30              build/sam_e70_xult/debug/_ext/1055488423/plib_pio.o
PWM0_CallbackObj    0x8               build/sam_e70_xult/debug/_ext/1055487991/plib_pwm0.o
usart1Obj           0x30              build/sam_e70_xult/debug/_ext/707186936/plib_usart1.o
gSYSFSObj           0x8               build/sam_e70_xult/debug/_ext/1305476372/sys_fs.o
gSYSFSVolumeObject  0x1c              build/sam_e70_xult/debug/_ext/1305476372/sys_fs_media_manager.o
buf                 0x80              build/sam_e70_xult/debug/_ext/1360937237/app_gps.o
errorValue          0x1               build/sam_e70_xult/debug/_ext/1305476372/sys_fs.o
app_course_algorithmData
                    0xc4              build/sam_e70_xult/debug/_ext/1360937237/app_course_algorithm.o
date                0xb               build/sam_e70_xult/debug/_ext/1360937237/app_course_algorithm.o
app_anemometerData  0x38              build/sam_e70_xult/debug/_ext/1360937237/app_anemometer.o
gSYSFSMountPoint    0x14              build/sam_e70_xult/debug/_ext/1305476372/sys_fs.o
sheading            0x7               build/sam_e70_xult/debug/_ext/1360937237/app_imu.o
xAPP_IMU_Tasks      0x4               build/sam_e70_xult/debug/_ext/1728594169/tasks.o
app_imuData         0x38              build/sam_e70_xult/debug/_ext/1360937237/app_imu.o

Microchip PIC32 Memory-Usage Report

ROM Program-Memory Usage
section                    address  length [bytes]      (dec)  Description
-------                 ----------  -------------------------  -----------
.vectors                  0x400000          0x168         360   
.text                     0x400168           0x20          32  App's exec code 
.ARM.exidx                0x400188            0x8           8   
.text.DRV_SDMMC_Tasks     0x400190         0x19c4        6596   
.text.PIO_PortInterrupt   0x401b54            0x4           4   
.text._strtod_l           0x401b58          0xb8c        2956   
.dinit                    0x4026e4          0x850        2128   
.text.f_mkfs              0x402f34          0x7b4        1972   
.text.__kernel_rem_pio2   0x4036e8          0x510        1296   
.text.__gethex            0x403bf8          0x448        1096   
.text.SYS_FS_MEDIA_MANA   0x404040          0x3fc        1020   
.text.follow_path         0x40443c          0x3c8         968   
.text.mount_volume        0x404804          0x398         920   
.text                     0x404b9c          0x378         888  App's exec code 
.text.APP_COMMUNICATION   0x404f14          0x32c         812   
.text.f_printf            0x405240          0x2dc         732   
.text                     0x40551c          0x2d0         720  App's exec code 
.text.dir_register        0x4057ec          0x2b4         692   
.text.__ieee754_rem_pio   0x405aa0          0x290         656   
.text.f_open              0x405d30          0x264         612   
.text.disk_status         0x405f94            0x4           4   
.text.APP_COURSE_ALGORI   0x405f98          0x25c         604   
.rodata.cvt1.8145         0x4061f4          0x1f4         500   
.text.atan                0x4063e8          0x1f4         500   
.text.xTaskCreate         0x4065dc          0x1e4         484   
.text.dir_find            0x4067c0          0x1d4         468   
.text.FATFS_tell          0x406994            0x4           4   
.text.__ieee754_atan2     0x406998          0x1cc         460   
.text.f_write             0x406b64          0x1c6         454   
.text.Dummy_App_Func      0x406d2a            0x2           2   
.text.TWIHS0_InterruptH   0x406d2c          0x198         408   
.text.f_read              0x406ec4          0x198         408   
.text.FATFS_size          0x40705c            0x4           4   
.text.Parse_IMU_Field     0x407060          0x198         408   
.text.f_lseek             0x4071f8          0x192         402   
.text.vPortFree           0x40738a            0x2           2   
.text.create_partition    0x40738c          0x190         400   
.text.SYS_FS_MEDIA_MANA   0x40751c          0x184         388   
.text.f_setlabel          0x4076a0          0x17c         380   
.text.Reset_Handler       0x40781c          0x178         376   
.text.DRV_SDMMC_SetupXf   0x407994          0x168         360   
.text.get_fileinfo        0x407afc          0x158         344   
.text.xQueueSemaphoreTa   0x407c54          0x158         344   
.text.PIO_Initialize      0x407dac          0x150         336   
.text.APP_RUDDER_CONTRO   0x407efc          0x144         324   
.text.ParseField          0x408040          0x140         320   
.text.f_getcwd            0x408180          0x138         312   
.text.DRV_USART_Open      0x4082b8          0x134         308   
.text.dir_read            0x4083ec          0x134         308   
.text.APP_ANEMOMETER_Ta   0x408520          0x130         304   
.text.__multiply          0x408650          0x130         304   
.text.USART1_InterruptH   0x408780          0x12c         300   
.text.USART0_InterruptH   0x4088ac          0x12c         300   
.text.USART2_InterruptH   0x4089d8          0x12c         300   
.text.put_fat             0x408b04          0x12c         300   
.text._DRV_SDMMC_Comman   0x408c30          0x128         296   
.text.xQueueGenericSend   0x408d58          0x128         296   
.text.f_rename            0x408e80          0x126         294   
.text._DRV_I2C_WriteRea   0x408fa6          0x124         292   
.text.__malloc_lock       0x4090ca            0x2           2   
.text.HSMCI_InterruptHa   0x4090cc          0x120         288   
.text.__hexnan            0x4091ec          0x120         288   
.text.SYS_Tasks           0x40930c          0x118         280   
.text.f_mkdir             0x409424          0x116         278   
.text.__malloc_unlock     0x40953a            0x2           2   
.text.xTaskIncrementTic   0x40953c          0x114         276   
.text.scalbn              0x409650          0x114         276   
.rodata.two_over_pi       0x409764          0x108         264   
.text.create_chain        0x40986c          0x106         262   
.rodata._ctype_           0x409972          0x101         257   
.text.DRV_SDMMC_Initial   0x409a74          0x100         256   
.text.DRV_USART_Initial   0x409b74          0x100         256   
.rodata.uc437             0x409c74          0x100         256   
.text.DRV_SDMMC_Open      0x409d74           0xfc         252   
.text.check_fs            0x409e70           0xf8         248   
.text.disk_write          0x409f68           0xf8         248   
.text.APP_MAST_CONTROL_   0x40a060           0xf8         248   
.text.DRV_I2C_Open        0x40a158           0xf4         244   
.text.HSMCI_CommandSend   0x40a24c           0xf4         244   
.text.floor               0x40a340           0xf0         240   
.text._strtol_l.isra.0    0x40a430           0xec         236   
.text.Dummy_Handler       0x40a51c            0x4           4   
.text.distancetopt        0x40a520           0xe8         232   
.text.xTaskResumeAll      0x40a608           0xe4         228   
.text.f_getfree           0x40a6ec           0xd8         216   
.text.NonMaskableInt_Ha   0x40a7c4            0x4           4   
.text.__kernel_cos        0x40a7c8           0xd8         216   
.text.SYS_TIME_PLIBCall   0x40a8a0           0xd4         212   
.text.get_fat             0x40a974           0xd0         208   
.text.f_unlink            0x40aa44           0xca         202   
.text.dir_next            0x40ab0e           0xc8         200   
.text.GPS_Process         0x40abd8           0xc8         200   
.text.__mdiff             0x40aca0           0xc8         200   
.rodata.__mprec_tens      0x40ad68           0xc8         200   
.text.SYS_Initialize      0x40ae30           0xc4         196   
.rodata                   0x40aef4           0xc4         196  Read-only const 
.text.processGGA          0x40afb8           0xc4         196   
.text.f_truncate          0x40b07c           0xc2         194   
.text.disk_read           0x40b140           0xc0         192   
.rodata.cvt2.8146         0x40b200           0xbc         188   
.text.HardFault_Handler   0x40b2bc            0x4           4   
.text.angletopt           0x40b2c0           0xb8         184   
.text.ff_wtoupper         0x40b378           0xb4         180   
.text.SYS_TIME_HwTimerC   0x40b42c           0xb4         180   
.text.processRMC          0x40b4e0           0xb4         180   
.text._malloc_r           0x40b594           0xb4         180   
.text.dir_sdi             0x40b648           0xb0         176   
.text.SYS_TIME_TimerObj   0x40b6f8           0xb0         176   
.text.SYS_TIME_Initiali   0x40b7a8           0xb0         176   
.text.__kernel_sin        0x40b858           0xb0         176   
.text.vTaskSwitchContex   0x40b908           0xa8         168   
.text.xTaskPriorityInhe   0x40b9b0           0xa8         168   
.text.__lshift            0x40ba58           0xa6         166   
.text.f_getlabel          0x40bafe           0xa2         162   
.text.DRV_SDMMC_Close     0x40bba0           0xa0         160   
.text.TWIHS0_InitiateTr   0x40bc40           0xa0         160   
.text.__b2d               0x40bce0           0xa0         160   
.text.__d2b               0x40bd80           0x9e         158   
.text.f_sync              0x40be1e           0x9c         156   
.text.FATFS_unmount       0x40bebc           0x9c         156   
.text.__pow5mult          0x40bf58           0x9c         156   
.text.NVIC_Initialize     0x40bff4           0x98         152   
.text.DRV_I2C_Initializ   0x40c08c           0x94         148   
.text.remove_chain        0x40c120           0x94         148   
.text.prvAddCurrentTask   0x40c1b4           0x94         148   
.text.f_opendir           0x40c248           0x92         146   
.text.SYS_TIME_AddToLis   0x40c2dc           0x90         144   
.text.DebugMonitor_Hand   0x40c36c            0x4           4   
.text.cos                 0x40c370           0x90         144   
.text.sin                 0x40c400           0x90         144   
.text.USART1_SerialSetu   0x40c490           0x8c         140   
.text.USART0_SerialSetu   0x40c51c           0x8c         140   
.text.USART2_SerialSetu   0x40c5a8           0x8c         140   
.text.sync_fs             0x40c634           0x8c         140   
.text.TWIHS0_TransferSe   0x40c6c0           0x88         136   
.rodata.FatFsFunctions    0x40c748           0x88         136   
.text.__pic32c_data_ini   0x40c7d0           0x88         136   
.rodata.ExCvt             0x40c858           0x80         128   
.text.vTaskPriorityDisi   0x40c8d8           0x80         128   
.rodata.npio2_hw          0x40c958           0x80         128   
.text.prvUnlockQueue      0x40c9d8           0x7e         126   
.text.__multadd           0x40ca56           0x7e         126   
.text.FATFS_mount         0x40cad4           0x7c         124   
.text.xTaskPriorityDisi   0x40cb50           0x7c         124   
.text.__s2b               0x40cbcc           0x7c         124   
.text.xTaskRemoveFromEv   0x40cc48           0x78         120   
.text.parseDegreeMinute   0x40ccc0           0x78         120   
.text.DRV_USART_WriteBu   0x40cd38           0x76         118   
.text.DRV_USART_ReadBuf   0x40cdae           0x76         118   
.text.inc_lock            0x40ce24           0x74         116   
.text.rshift              0x40ce98           0x74         116   
.text.prvCopyDataToQueu   0x40cf0c           0x72         114   
.text.CLOCK_Initialize    0x40cf80           0x70         112   
.text.USART1_Write        0x40cff0           0x70         112   
.text.USART0_Write        0x40d060           0x70         112   
.text.USART2_Write        0x40d0d0           0x70         112   
.text.SYS_FS_Initialize   0x40d140           0x70         112   
.text.xQueueGenericRese   0x40d1b0           0x70         112   
.text.prvIdleTask         0x40d220           0x70         112   
.text.APP_GPS_Tasks       0x40d290           0x70         112   
.text.XDMAC_InterruptHa   0x40d300           0x6c         108   
.text.pvPortMalloc        0x40d36c           0x6c         108   
.text.__utoa              0x40d3d8           0x6c         108   
.text.PIO_PinInterruptC   0x40d444           0x68         104   
.text._PIO_Interrupt_Ha   0x40d4ac           0x68         104   
.text.vTaskStartSchedul   0x40d514           0x68         104   
.text.APP_IMU_Tasks       0x40d57c           0x68         104   
.text._Balloc             0x40d5e4           0x68         104   
.text._DRV_SDMMC_Driver   0x40d64c           0x64         100   
.text.f_mount             0x40d6b0           0x64         100   
.text.PWM0_ChannelsStar   0x40d714            0xc          12   
.text.xPortPendSVHandle   0x40d720           0x64         100   
.text.xQueueGiveFromISR   0x40d784           0x64         100   
.text.parseTime           0x40d7e8           0x64         100   
.text.__ratio             0x40d84c           0x64         100   
.text._DRV_SDMMC_PlibCa   0x40d8b0           0x60          96   
.text._DRV_SDMMC_InitCa   0x40d910           0x60          96   
.text.PWM0_Initialize     0x40d970           0x60          96   
.text.get_ldnumber        0x40d9d0           0x60          96   
.text.f_chdir             0x40da30           0x60          96   
.text.FATFS_open          0x40da90           0x60          96   
.text.APP_RUDDER_CONTRO   0x40daf0           0x60          96   
.text.__lo0bits           0x40db50           0x60          96   
.text.dir_clear           0x40dbb0           0x5e          94   
.text.f_chmod             0x40dc0e           0x5e          94   
.text._DRV_USART_Driver   0x40dc6c           0x5c          92   
.text.HSMCI_ModuleInit    0x40dcc8           0x5c          92   
.text.XDMAC_ChannelTran   0x40dd24           0x5c          92   
.text.dir_remove          0x40dd80           0x5c          92   
.text.f_utime             0x40dddc           0x5c          92   
.text.xTaskCheckForTime   0x40de38           0x5c          92   
.text.HSMCI_ResponseRea   0x40de94           0x5a          90   
.text.f_gets              0x40deee           0x5a          90   
.text.IMU_Process         0x40df48           0x5a          90   
.text.OSAL_SEM_Create     0x40dfa2           0x58          88   
.text.chk_lock            0x40dffc           0x58          88   
.text.SYS_TIME_TimerSta   0x40e054           0x58          88   
.text.APP_MAST_CONTROL_   0x40e0ac           0x58          88   
.text.DRV_SDMMC_Command   0x40e104           0x54          84   
.text.HSMCI_DmaSetup      0x40e158           0x54          84   
.text.dir_alloc           0x40e1ac           0x54          84   
.rodata                   0x40e200           0x54          84  Read-only const 
.text.SYS_FS_MEDIA_MANA   0x40e254           0x54          84   
.text.SYS_TIME_RemoveFr   0x40e2a8           0x54          84   
.text.SYS_TIME_Callback   0x40e2fc           0x54          84   
.text.parseDate           0x40e350           0x54          84   
.text.MemoryManagement_   0x40e3a4            0x4           4   
.text.sqrt                0x40e3a8           0x54          84   
.text.disk_checkCommand   0x40e3fc           0x50          80   
.text.SYS_TIME_DelayMS    0x40e44c           0x50          80   
.text._DRV_USART_RX_PLI   0x40e49c           0x4e          78   
.text.f_readdir           0x40e4ea           0x4e          78   
.text.Anem_Process        0x40e538           0x4c          76   
.text.__ulp               0x40e584           0x4c          76   
.text._DRV_I2C_DriverHa   0x40e5d0           0x48          72   
.text.sync_window         0x40e618           0x48          72   
.rodata.drvSDMMC0PlibAP   0x40e660           0x48          72   
.text.xPortStartSchedul   0x40e6a8           0x48          72   
.text.__libc_init_array   0x40e6f0           0x48          72   
.text.validate            0x40e738           0x46          70   
.text.f_stat              0x40e77e           0x44          68   
.text.SYS_INT_SourceDis   0x40e7c4           0x44          68   
.text.__any_on            0x40e808           0x42          66   
.text                     0x40e84c           0x40          64  App's exec code 
.text.DRV_SDMMC_EventHa   0x40e88c           0x40          64   
.rodata.TRAN_SPEED_MULT   0x40e8cc           0x40          64   
.text.HSMCI_ClockSet      0x40e90c           0x40          64   
.text.USART1_Initialize   0x40e94c           0x40          64   
.text.USART1_Read         0x40e98c           0x40          64   
.text.USART0_Initialize   0x40e9cc           0x40          64   
.text.USART0_Read         0x40ea0c           0x40          64   
.text.USART2_Initialize   0x40ea4c           0x40          64   
.text.USART2_Read         0x40ea8c           0x40          64   
.text.ff_uni2oem          0x40eacc           0x40          64   
.text.SYS_FS_MEDIA_MANA   0x40eb0c           0x40          64   
.text.SYS_TIME_TimerAdd   0x40eb4c           0x40          64   
.text.BusFault_Handler    0x40eb8c            0x4           4   
.text.rudder_encoder      0x40eb90           0x40          64   
.text.__hi0bits           0x40ebd0           0x40          64   
.rodata.PIo2              0x40ec10           0x40          64   
.text                     0x40ec50           0x40          64  App's exec code 
.text.putc_bfd            0x40ec90           0x3e          62   
.text.FATFS_getclusters   0x40ecce           0x3e          62   
.text.OSAL_SEM_PostISR    0x40ed0c           0x3c          60   
.text.TWIHS0_Initialize   0x40ed48           0x3c          60   
.text.SYS_TIME_GetTimer   0x40ed84           0x3c          60   
.text.SYS_TIME_Resource   0x40edc0           0x3c          60   
.text.SYS_TIME_TimerDes   0x40edfc           0x3c          60   
.text.putc_flush          0x40ee38           0x3a          58   
.text.disk_ioctl          0x40ee72           0x3a          58   
.text.SYS_CACHE_Invalid   0x40eeac           0x38          56   
.text.SYS_CACHE_CleanDC   0x40eee4           0x38          56   
.text.move_window         0x40ef1c           0x38          56   
.text.disk_read_aligned   0x40ef54           0x38          56   
.text.SYS_TIME_Resource   0x40ef8c           0x38          56   
.text.UsageFault_Handle   0x40efc4            0x4           4   
.text.parseFloat          0x40efc8           0x38          56   
.text.TWIHS0_InitiateRe   0x40f000           0x34          52   
.text.dec_lock            0x40f034           0x34          52   
.text.f_close             0x40f068           0x34          52   
.text.f_fdisk             0x40f09c           0x34          52   
.text.vListInsert         0x40f0d0           0x34          52   
.text.vTaskDelay          0x40f104           0x34          52   
.text.memmove             0x40f138           0x34          52   
.text.sulp                0x40f16c           0x34          52   
.text.__mcmp              0x40f1a0           0x34          52   
.text.__copybits          0x40f1d4           0x34          52   
.rodata.sdmmcMediaFunct   0x40f208           0x30          48   
.text.f_puts              0x40f238           0x30          48   
.text.diskEventHandler    0x40f268           0x30          48   
.text.SYS_FS_MEDIA_MANA   0x40f298           0x30          48   
.text.SYS_TIME_UpdateTi   0x40f2c8           0x30          48   
.text.xPortSysTickHandl   0x40f2f8           0x30          48   
.text.xQueueGenericCrea   0x40f328           0x30          48   
.text.find_char           0x40f358           0x30          48   
.text                     0x40f388           0x30          48  App's exec code 
.text.__itoa              0x40f3b8           0x30          48   
.text._Bfree              0x40f3e8           0x2e          46   
.text.DRV_SDMMC_IsAttac   0x40f418           0x2c          44   
.text.TWIHS0_Read         0x40f444           0x2c          44   
.text.TWIHS0_Write        0x40f470           0x2c          44   
.text.TWIHS0_WriteRead    0x40f49c           0x2c          44   
.text.USART1_ErrorClear   0x40f4c8           0x2c          44   
.text.USART0_ErrorClear   0x40f4f4           0x2c          44   
.text.USART2_ErrorClear   0x40f520           0x2c          44   
.text.FATFS_opendir       0x40f54c           0x2c          44   
.rodata.drvUsart0PlibAP   0x40f578           0x2c          44   
.rodata.drvUsart1PlibAP   0x40f5a4           0x2c          44   
.rodata.drvUsart2PlibAP   0x40f5d0           0x2c          44   
.text.pxPortInitialiseS   0x40f5fc           0x2c          44   
.text.prvResetNextTaskU   0x40f628           0x2c          44   
.text._sbrk               0x40f654           0x2c          44   
.text.f_closedir          0x40f680           0x2a          42   
.text.__hexdig_fun        0x40f6aa           0x2a          42   
.text._DRV_I2C_PLibCall   0x40f6d4           0x28          40   
.text.USART1_ReadAbort    0x40f6fc           0x28          40   
.text.USART0_ReadAbort    0x40f724           0x28          40   
.text.USART2_ReadAbort    0x40f74c           0x28          40   
.text.XDMAC_Initialize    0x40f774           0x28          40   
.text.tchar2uni           0x40f79c           0x28          40   
.text.ff_oem2uni          0x40f7c4           0x28          40   
.text.FATFS_mkfs          0x40f7ec           0x28          40   
.text.SYS_TIME_TimerPer   0x40f814           0x28          40   
.text.prvPortStartFirst   0x40f83c           0x28          40   
.text.vPortSetupTimerIn   0x40f864           0x28          40   
.text                     0x40f88c            0x4           4  App's exec code 
.rodata.tinytens          0x40f890           0x28          40   
.text.__match             0x40f8b8           0x28          40   
.rodata.__mprec_bigtens   0x40f8e0           0x28          40   
.text.f_putc              0x40f908           0x26          38   
.text.get_fattime         0x40f92e           0x26          38   
.text.uxListRemove        0x40f954           0x26          38   
.text.strncpy             0x40f97a           0x26          38   
.rodata                   0x40f9a0           0x25          37  Read-only const 
.rodata                   0x40f9c5            0x3           3  Read-only const 
.text.DRV_SDMMC_Geometr   0x40f9c8           0x24          36   
.text.TC3_CH0_TimerInit   0x40f9ec           0x24          36   
.text.TC3_CH0_Interrupt   0x40fa10           0x24          36   
.text.f_chdrive           0x40fa34           0x24          36   
.rodata.drvSDMMC0InitDa   0x40fa58           0x24          36   
.text.prvTaskExitError    0x40fa7c           0x24          36   
.text.vPortSVCHandler     0x40faa0           0x24          36   
.text.vPortEnterCritica   0x40fac4           0x24          36   
.text.xQueueCreateMutex   0x40fae8           0x24          36   
.text.strncmp             0x40fb0c           0x24          36   
.text.L_shift             0x40fb30           0x24          36   
.text.__ascii_mbtowc      0x40fb54           0x24          36   
.text                     0x40fb78           0x24          36  App's exec code 
.text.SYS_FS_MEDIA_MANA   0x40fb9c           0x22          34   
.text.FATFS_readdir       0x40fbbe           0x22          34   
.text.FATFS_chdrive       0x40fbe0           0x22          34   
.text.Radio_Encode        0x40fc02           0x22          34   
.rodata.TRAN_SPEED_UNIT   0x40fc24           0x20          32   
.text.HSMCI_IsDatLineBu   0x40fc44           0x20          32   
.text.XDMAC_ChannelSett   0x40fc64           0x20          32   
.text.ld_clust            0x40fc84           0x20          32   
.text.SYS_FS_MEDIA_MANA   0x40fca4           0x20          32   
.rodata                   0x40fcc4           0x20          32  Read-only const 
.text.FATFS_stat          0x40fce4           0x20          32   
.text.SYS_TIME_GetElaps   0x40fd04           0x20          32   
.rodata.drvUsart0InitDa   0x40fd24           0x20          32   
.rodata.drvUsart1InitDa   0x40fd44           0x20          32   
.rodata.drvUsart2InitDa   0x40fd64           0x20          32   
.text.mast_encoder        0x40fd84           0x20          32   
.text._sbrk_r             0x40fda4           0x20          32   
.text.itoa                0x40fdc4            0x4           4   
.rodata.atanhi            0x40fdc8           0x20          32   
.rodata.atanlo            0x40fde8           0x20          32   
.text.OSAL_SEM_Pend       0x40fe08           0x1e          30   
.text.OSAL_MUTEX_Lock     0x40fe26           0x1e          30   
.text.sum_sfn             0x40fe44           0x1e          30   
.text.FATFS_close         0x40fe62           0x1e          30   
.text.FATFS_closedir      0x40fe80           0x1e          30   
.text.DRV_I2C_TransferS   0x40fe9e           0x1c          28   
.text.HSMCI_BlockSizeSe   0x40febc           0x1c          28   
.text.PWM0_InterruptHan   0x40fed8           0x1c          28   
.text.XDMAC_ChannelDisa   0x40fef4           0x1c          28   
.text._SYS_FS_MEDIA_MAN   0x40ff10           0x1c          28   
.text.SYS_FS_MEDIA_MANA   0x40ff2c           0x1c          28   
.text.SYS_TIME_Counter6   0x40ff48           0x1c          28   
.rodata.sysTimePlibAPI    0x40ff64           0x1c          28   
.text.vTaskPlaceOnEvent   0x40ff80           0x1c          28   
.text.pvTaskIncrementMu   0x40ff9c           0x1c          28   
.rodata                   0x40ffb8           0x1c          28  Read-only const 
.text.memcpy              0x40ffd4           0x1c          28   
.text._calloc_r           0x40fff0           0x1c          28   
.text.HSMCI_BusWidthSet   0x41000c           0x1a          26   
.text.st_clust            0x410026           0x1a          26   
.text.Radio_Decode        0x410040           0x1a          26   
.text.strchr              0x41005a           0x1a          26   
.text.__ascii_wctomb      0x410074           0x1a          26   
.text.DRV_I2C_ReadTrans   0x41008e           0x18          24   
.text.OSAL_MUTEX_Create   0x4100a6           0x18          24   
.text.OSAL_MUTEX_Unlock   0x4100be           0x18          24   
.text.HSMCI_BlockCountS   0x4100d8           0x18          24   
.text.HSMCI_Initialize    0x4100f0           0x18          24   
.text.clst2sect           0x410108           0x18          24   
.text.SYS_TIME_DelayIsC   0x410120           0x18          24   
.rodata.drvI2C0PLibAPI    0x410138           0x18          24   
.rodata.drvUsart0remapP   0x410150           0x18          24   
.rodata.drvUsart1remapP   0x410168           0x18          24   
.rodata.drvUsart2remapP   0x410180           0x18          24   
.text._DRV_SDMMC0_Tasks   0x410198           0x18          24   
.text.vTaskInternalSetT   0x4101b0           0x18          24   
.text.mast_reset          0x4101c8           0x18          24   
.text.rudder_reset        0x4101e0           0x18          24   
.text.strtod              0x4101f8           0x18          24   
.text.HSMCI_SpeedModeSe   0x410210           0x16          22   
.text.ld_dword            0x410226           0x16          22   
.text.vApplicationStack   0x41023c           0x16          22   
.text.vApplicationMallo   0x410252           0x16          22   
.text.vListInitialise     0x410268           0x16          22   
.text.vListInsertEnd      0x41027e           0x16          22   
.text.prvIsQueueEmpty     0x410294           0x16          22   
.text.xQueueCreateCount   0x4102aa           0x16          22   
.text.DRV_SDMMC_Registe   0x4102c0           0x14          20   
.text.DRV_SDMMC_AsyncRe   0x4102d4           0x14          20   
.text.DRV_SDMMC_AsyncWr   0x4102e8           0x14          20   
.text.USART1_ErrorGet     0x4102fc           0x14          20   
.text.USART0_ErrorGet     0x410310           0x14          20   
.text.USART2_ErrorGet     0x410324           0x14          20   
.text.mem_cpy             0x410338           0x14          20   
.rodata.badchr.8851       0x41034c           0x14          20   
.rodata.drvUsart0remapD   0x410360           0x14          20   
.rodata.drvUsart1remapD   0x410374           0x14          20   
.rodata.drvUsart2remapD   0x410388           0x14          20   
.text.vPortEnableVFP      0x41039c           0x14          20   
.text.vPortExitCritical   0x4103b0           0x14          20   
.rodata.fpi.7531          0x4103c4           0x14          20   
.rodata.fpinan.7567       0x4103d8           0x14          20   
.text.strtol              0x4103ec           0x14          20   
.text.NVIC_INT_Disable    0x410400           0x12          18   
.text.NVIC_INT_Restore    0x410412           0x12          18   
.text.__i2b               0x410424           0x12          18   
.text.fabs                0x410436           0x12          18   
.text._DRV_USART_TX_PLI   0x410448           0x10          16   
.text.EFC_Initialize      0x410458           0x10          16   
.text.HSMCI_CommandErro   0x410468           0x10          16   
.text.HSMCI_DataErrorGe   0x410478           0x10          16   
.text.HSMCI_IsCmdLineBu   0x410488           0x10          16   
.text.HSMCI_CallbackReg   0x410498           0x10          16   
.text.PIOA_InterruptHan   0x4104a8           0x10          16   
.text.PIOB_InterruptHan   0x4104b8           0x10          16   
.text.PIOD_InterruptHan   0x4104c8           0x10          16   
.text.TWIHS0_CallbackRe   0x4104d8           0x10          16   
.text.TWIHS0_ErrorGet     0x4104e8           0x10          16   
.text.st_dword            0x4104f8           0x10          16   
.rodata.LfnOfs            0x410508           0x10          16   
.rodata.cst.8888          0x410518           0x10          16   
.rodata.cst32.8889        0x410528           0x10          16   
.rodata.defopt.8890       0x410538           0x10          16   
.text.disk_initialize     0x410548           0x10          16   
.rodata.drvI2C0InitData   0x410558           0x10          16   
.text._SYS_FS_Tasks       0x410568           0x10          16   
.text.vTaskSuspendAll     0x410578           0x10          16   
.text.malloc              0x410588           0x10          16   
.text.memset              0x410598           0x10          16   
.text.strcpy              0x4105a8           0x10          16   
.text                     0x4105b8           0x10          16  App's exec code 
.text.nan                 0x4105c8           0x10          16   
.rodata.init_jk           0x4105d8           0x10          16   
.text.FATFS_eof           0x4105e8            0xe          14   
.text.main                0x4105f6            0xe          14   
.rodata                   0x410604            0xd          13  Read-only const 
.text.TC3_CH0_TimerStar   0x410614            0xc          12   
.text.TC3_CH0_TimerStop   0x410620            0xc          12   
.text.TC3_CH0_TimerPeri   0x41062c            0xc          12   
.text.TC3_CH0_TimerComp   0x410638            0xc          12   
.text.TC3_CH0_TimerCoun   0x410644            0xc          12   
.text.TC3_CH0_TimerCall   0x410650            0xc          12   
.text.USART1_WriteCallb   0x41065c            0xc          12   
.text.USART1_ReadCallba   0x410668            0xc          12   
.text.USART1_WriteIsBus   0x410674            0xc          12   
.text.USART1_ReadIsBusy   0x410680            0xc          12   
.text.USART1_WriteCount   0x41068c            0xc          12   
.text.USART1_ReadCountG   0x410698            0xc          12   
.text.USART0_WriteCallb   0x4106a4            0xc          12   
.text.USART0_ReadCallba   0x4106b0            0xc          12   
.text.USART0_WriteIsBus   0x4106bc            0xc          12   
.text.USART0_ReadIsBusy   0x4106c8            0xc          12   
.text.USART0_WriteCount   0x4106d4            0xc          12   
.text.USART0_ReadCountG   0x4106e0            0xc          12   
.text.USART2_WriteCallb   0x4106ec            0xc          12   
.text.USART2_ReadCallba   0x4106f8            0xc          12   
.text.USART2_WriteIsBus   0x410704            0xc          12   
.text.USART2_ReadIsBusy   0x410710            0xc          12   
.text.USART2_WriteCount   0x41071c            0xc          12   
.text.USART2_ReadCountG   0x410728            0xc          12   
.text.mem_set             0x410734            0xc          12   
.text.SYS_FS_MEDIA_MANA   0x410740            0xc          12   
.text.FATFS_error         0x41074c            0xc          12   
.rodata.drvUsart0remapE   0x410758            0xc          12   
.rodata.drvUsart0remapS   0x410764            0xc          12   
.rodata.drvUsart1remapE   0x410770            0xc          12   
.rodata.drvUsart1remapS   0x41077c            0xc          12   
.rodata.drvUsart2remapE   0x410788            0xc          12   
.rodata.drvUsart2remapS   0x410794            0xc          12   
.text.vTaskMissedYield    0x4107a0            0xc          12   
.text.APP_COMMUNICATION   0x4107ac            0xc          12   
.text.APP_COURSE_ALGORI   0x4107b8            0xc          12   
.text.APP_ANEMOMETER_In   0x4107c4            0xc          12   
.text.APP_GPS_Initializ   0x4107d0            0xc          12   
.text.APP_IMU_Initializ   0x4107dc            0xc          12   
.rodata._C_numeric_loca   0x4107e8            0xc          12   
.rodata.p05.7453          0x4107f4            0xc          12   
.text.__errno             0x410800            0xc          12   
.rodata                   0x41080c            0xb          11  Read-only const 
.text.FATFS_read          0x410818            0xa          10   
.text.FATFS_lseek         0x410822            0xa          10   
.text.FATFS_gets          0x41082c            0xa          10   
.text.FATFS_write         0x410836            0xa          10   
.text.FATFS_truncate      0x410840            0xa          10   
.text.FATFS_sync          0x41084a            0xa          10   
.text.FATFS_putc          0x410854            0xa          10   
.text.FATFS_puts          0x41085e            0xa          10   
.text.FATFS_printf        0x410868            0xa          10   
.text.TC3_CH0_TimerFreq   0x410874            0x8           8   
.text.SYS_FS_Tasks        0x41087c            0x8           8   
.rodata.gPartitionTypeO   0x410884            0x8           8   
.text.FATFS_getlabel      0x41088c            0x8           8   
.text.FATFS_getcwd        0x410894            0x8           8   
.text.FATFS_chdir         0x41089c            0x8           8   
.text.FATFS_mkdir         0x4108a4            0x8           8   
.text.FATFS_unlink        0x4108ac            0x8           8   
.text.FATFS_setlabel      0x4108b4            0x8           8   
.text.FATFS_chmod         0x4108bc            0x8           8   
.text.FATFS_utime         0x4108c4            0x8           8   
.text.FATFS_rename        0x4108cc            0x8           8   
.text.FATFS_fdisk         0x4108d4            0x8           8   
.text.SYS_INT_Disable     0x4108dc            0x8           8   
.text.SYS_INT_Restore     0x4108e4            0x8           8   
.rodata.sysFSInit         0x4108ec            0x8           8   
.rodata.sysTimeInitData   0x4108f4            0x8           8   
.text._APP_ANEMOMETER_T   0x4108fc            0x8           8   
.text._APP_COMMUNICATIO   0x410904            0x8           8   
.text._APP_MAST_CONTROL   0x41090c            0x8           8   
.text._APP_COURSE_ALGOR   0x410914            0x8           8   
.text._APP_RUDDER_CONTR   0x41091c            0x8           8   
.text._APP_GPS_Tasks      0x410924            0x8           8   
.text._APP_IMU_Tasks      0x41092c            0x8           8   
.rodata                   0x410934           0x18          24  Read-only const 
.text.atoi                0x41094c            0x8           8   
.text._DRV_SDMMC_TimerC   0x410954            0x6           6   
.text.vListInitialiseIt   0x41095a            0x6           6   
.text.atof                0x410960            0x6           6   
.text.__ieee754_sqrt      0x410966            0x6           6   
.text.atan2               0x41096c            0x4           4   
      Total ROM used  :     0x10953       67923  3.2% of 0x200000
        --------------------------------------------------------------------------
         Total Program Memory used  :     0x10953       67923  3.2% of 0x200000
        --------------------------------------------------------------------------


RAM Data-Memory Usage
section                    address  length [bytes]      (dec)  Description
-------                 ----------  -------------------------  -----------
.bss                    0x20400000          0x8a0        2208  Uninitialized data 
.bss.ucHeap             0x204008a0         0xa000       40960   
.bss.gSYSFSMediaBlockBu 0x2040a8a0          0x800        2048   
.bss.gDrvSDMMCObj       0x2040b0a0          0x340         832   
.bss.FATFSFileObject    0x2040b3e0          0x260         608   
.bss.FATFSVolume        0x2040b640          0x260         608   
.bss.gSysFsDiskData     0x2040b8a0          0x220         544   
.bss.LfnBuf             0x2040bac0          0x200         512   
.data.__global_locale   0x2040bcc0          0x16c         364   
.bss.gDrvUSARTObj       0x2040be2c           0xf0         240   
.bss.timers             0x2040bf1c           0xa0         160   
.bss.pxReadyTasksLists  0x2040bfbc           0x64         100   
.bss.drvUSART1ClientObj 0x2040c020           0x60          96   
.data.impure_data       0x2040c080           0x60          96   
.bss.decoded            0x2040c0e0           0x57          87   
.data.cardAttached.9662 0x2040c137            0x1           1   
.bss.recbuffer          0x2040c138           0x57          87   
.bss.CurrVol            0x2040c18f            0x1           1   
.bss.sendbuffer         0x2040c190           0x57          87   
.bss.startupflag        0x2040c1e7            0x1           1   
.bss.drvSDMMC0BufferObj 0x2040c1e8           0x48          72   
.bss.gDrvI2CObj         0x2040c230           0x38          56   
.data.gSYSFSMediaManage 0x2040c268           0x18          24   
.bss.FATFSDirObject     0x2040c280           0x38          56   
.bss.gSystemCounterObj  0x2040c2b8           0x38          56   
.bss.drvUSART0ClientObj 0x2040c2f0           0x30          48   
.bss.twihs0Obj          0x2040c320           0x28          40   
.bss.drvI2C0ClientObjPo 0x2040c348           0x20          32   
.bss                    0x2040c368           0x1c          28  Uninitialized data 
.bss.hsmciObj           0x2040c384           0x14          20   
.data.gSYSFSVolumeName  0x2040c398           0x14          20   
.bss.xDelayedTaskList1  0x2040c3ac           0x14          20   
.bss.xDelayedTaskList2  0x2040c3c0           0x14          20   
.bss.xPendingReadyList  0x2040c3d4           0x14          20   
.bss.xSuspendedTaskList 0x2040c3e8           0x14          20   
.bss.xTasksWaitingTermi 0x2040c3fc           0x14          20   
.data.signal_confirmed  0x2040c410           0x12          18   
.bss.Fsid               0x2040c422            0x2           2   
.bss.Files              0x2040c424           0x10          16   
.bss.drvSDMMC0ClientObj 0x2040c434           0x10          16   
.bss.drvUSART2ClientObj 0x2040c444           0x10          16   
.bss.sysfsMountTable    0x2040c454            0xc          12   
.data.confirmed         0x2040c460            0xb          11   
.bss.sending            0x2040c46b            0x1           1   
.bss.FatFs              0x2040c46c            0x4           4   
.bss.value              0x2040c470            0x8           8   
.data.portNumCb         0x2040c478            0x6           6   
.data.gSysTimeTokenCoun 0x2040c47e            0x2           2   
.bss.cmd.7957           0x2040c480            0x4           4   
.data.uxCriticalNesting 0x2040c484            0x4           4   
.bss.pucAlignedHeap.655 0x2040c488            0x4           4   
.bss.xNextFreeByte      0x2040c48c            0x4           4   
.bss.pxCurrentTCB       0x2040c490            0x4           4   
.bss.pxDelayedTaskList  0x2040c494            0x4           4   
.bss.pxOverflowDelayedT 0x2040c498            0x4           4   
.bss.uxCurrentNumberOfT 0x2040c49c            0x4           4   
.bss.uxDeletedTasksWait 0x2040c4a0            0x4           4   
.bss.uxSchedulerSuspend 0x2040c4a4            0x4           4   
.bss.uxTaskNumber       0x2040c4a8            0x4           4   
.bss.uxTopReadyPriority 0x2040c4ac            0x4           4   
.bss.xIdleTaskHandle    0x2040c4b0            0x4           4   
.bss.xNextTaskUnblockTi 0x2040c4b4            0x4           4   
.bss.xNumOfOverflows    0x2040c4b8            0x4           4   
.bss.xPendedTicks       0x2040c4bc            0x4           4   
.bss.xSchedulerRunning  0x2040c4c0            0x4           4   
.bss.xTickCount         0x2040c4c4            0x4           4   
.bss.xYieldPending      0x2040c4c8            0x4           4   
.bss.delay              0x2040c4cc            0x4           4   
.bss.endptr             0x2040c4d0            0x4           4   
.bss.num_times_confimre 0x2040c4d4            0x4           4   
.bss.numbound           0x2040c4d8            0x4           4   
.bss.ptr                0x2040c4dc            0x4           4   
.bss.size               0x2040c4e0            0x4           4   
.bss.startptr           0x2040c4e4            0x4           4   
.data.retry_num         0x2040c4e8            0x4           4   
.bss.desired_mast_angle 0x2040c4ec            0x4           4   
.bss.duty               0x2040c4f0            0x4           4   
.bss.error              0x2040c4f4            0x4           4   
.bss.mast_angle         0x2040c4f8            0x4           4   
.data.allowed_calibrati 0x2040c4fc            0x4           4   
.data.allowed_error     0x2040c500            0x4           4   
.data.restrict_angle    0x2040c504            0x4           4   
.bss.date_ptr           0x2040c508            0x4           4   
.bss.mast_angle_to_wind 0x2040c50c            0x4           4   
.bss.rudder_angle_to_wi 0x2040c510            0x4           4   
.data.allowed_cruise_an 0x2040c514            0x4           4   
.data.allowed_set_angle 0x2040c518            0x4           4   
.bss.desired_rudder_ang 0x2040c51c            0x4           4   
.bss.rudder_angle       0x2040c520            0x4           4   
.bss.rudder_error       0x2040c524            0x4           4   
.data.rudder_allowed_er 0x2040c528            0x4           4   
.data.rudder_duty       0x2040c52c            0x4           4   
.bss.dir                0x2040c530            0x4           4   
.bss.u_vector           0x2040c534            0x4           4   
.bss                    0x2040c538            0x4           4  Uninitialized data 
.bss.__malloc_free_list 0x2040c53c            0x4           4   
.bss.__malloc_sbrk_star 0x2040c540            0x4           4   
.data._impure_ptr       0x2040c544            0x4           4   
.bss                    0x2040c548            0x4           4  Uninitialized data 
.data.address           0x2040c54c            0x2           2   
.data.numempty          0x2040c54e            0x2           2   
.bss.calibrate          0x2040c550            0x1           1   
.bss.ontheleft          0x2040c551            0x1           1   
.bss.rudder_calibrated  0x2040c552            0x1           1   
.data.jitter            0x2040c553            0x1           1   
.bss.appInitialized     0x2040c554            0x1           1   
.data.__fdlib_version   0x2040c555            0x1           1   
         Total RAM used  :      0xc556       50518  12.8% of 0x60000
        --------------------------------------------------------------------------
            Total Data Memory used  :      0xc556       50518  12.8% of 0x60000
        --------------------------------------------------------------------------


Dynamic Data-Memory Reservation
section                    address  length [bytes]      (dec)  Description
-------                 ----------  -------------------------  -----------
heap                    0x2040c558          0x200         512  Reserved for heap 
stack                   0x2040c770        0x53880      342144  Reserved for stack 

        --------------------------------------------------------------------------

Discarded input sections

 .text          0x00000000        0x0 c:/program files/microchip/xc32/v3.01/bin/bin/../../lib/gcc/pic32c/8.3.1/thumb/v7e-m+dp/hard/crti.o
 .data          0x00000000        0x0 c:/program files/microchip/xc32/v3.01/bin/bin/../../lib/gcc/pic32c/8.3.1/thumb/v7e-m+dp/hard/crti.o
 .bss           0x00000000        0x0 c:/program files/microchip/xc32/v3.01/bin/bin/../../lib/gcc/pic32c/8.3.1/thumb/v7e-m+dp/hard/crti.o
 .xc_stack_usage.hdr
                0x00000000        0xe c:/program files/microchip/xc32/v3.01/bin/bin/../../lib/gcc/pic32c/8.3.1/thumb/v7e-m+dp/hard/crti.o
 .xc_stack_usage
                0x00000000       0x26 c:/program files/microchip/xc32/v3.01/bin/bin/../../lib/gcc/pic32c/8.3.1/thumb/v7e-m+dp/hard/crti.o
 .data          0x00000000        0x4 c:/program files/microchip/xc32/v3.01/bin/bin/../../lib/gcc/pic32c/8.3.1/thumb/v7e-m+dp/hard/crtbegin.o
 .xc_stack_usage
                0x00000000       0x3c c:/program files/microchip/xc32/v3.01/bin/bin/../../lib/gcc/pic32c/8.3.1/thumb/v7e-m+dp/hard/crtbegin.o
 .xc_stack_usage.hdr
                0x00000000        0xe c:/program files/microchip/xc32/v3.01/bin/bin/../../lib/gcc/pic32c/8.3.1/thumb/v7e-m+dp/hard/crtbegin.o
 .text          0x00000000        0x0 build/sam_e70_xult/debug/_ext/957281314/drv_i2c.o
 .data          0x00000000        0x0 build/sam_e70_xult/debug/_ext/957281314/drv_i2c.o
 .bss           0x00000000        0x0 build/sam_e70_xult/debug/_ext/957281314/drv_i2c.o
 .text.DRV_I2C_Status
                0x00000000       0x14 build/sam_e70_xult/debug/_ext/957281314/drv_i2c.o
 .text.DRV_I2C_ErrorGet
                0x00000000       0x12 build/sam_e70_xult/debug/_ext/957281314/drv_i2c.o
 .text.DRV_I2C_Close
                0x00000000       0x34 build/sam_e70_xult/debug/_ext/957281314/drv_i2c.o
 .text.DRV_I2C_WriteTransfer
                0x00000000       0x16 build/sam_e70_xult/debug/_ext/957281314/drv_i2c.o
 .text.DRV_I2C_WriteReadTransfer
                0x00000000       0x18 build/sam_e70_xult/debug/_ext/957281314/drv_i2c.o
 .text          0x00000000        0x0 build/sam_e70_xult/debug/_ext/1565510230/drv_sdmmc_file_system.o
 .data          0x00000000        0x0 build/sam_e70_xult/debug/_ext/1565510230/drv_sdmmc_file_system.o
 .bss           0x00000000        0x0 build/sam_e70_xult/debug/_ext/1565510230/drv_sdmmc_file_system.o
 .text          0x00000000        0x0 build/sam_e70_xult/debug/_ext/1565510230/drv_sdmmc.o
 .data          0x00000000        0x0 build/sam_e70_xult/debug/_ext/1565510230/drv_sdmmc.o
 .bss           0x00000000        0x0 build/sam_e70_xult/debug/_ext/1565510230/drv_sdmmc.o
 .text.DRV_SDMMC_RegisterWithSysFs
                0x00000000        0x2 build/sam_e70_xult/debug/_ext/1565510230/drv_sdmmc.o
 .text.DRV_SDMMC_Status
                0x00000000       0x14 build/sam_e70_xult/debug/_ext/1565510230/drv_sdmmc.o
 .text.DRV_SDMMC_IsWriteProtected
                0x00000000       0x38 build/sam_e70_xult/debug/_ext/1565510230/drv_sdmmc.o
 .text          0x00000000        0x0 build/sam_e70_xult/debug/_ext/716655881/drv_usart.o
 .data          0x00000000        0x0 build/sam_e70_xult/debug/_ext/716655881/drv_usart.o
 .bss           0x00000000        0x0 build/sam_e70_xult/debug/_ext/716655881/drv_usart.o
 .text.DRV_USART_Status
                0x00000000       0x1c build/sam_e70_xult/debug/_ext/716655881/drv_usart.o
 .text.DRV_USART_SerialSetup
                0x00000000       0x76 build/sam_e70_xult/debug/_ext/716655881/drv_usart.o
 .text.DRV_USART_Close
                0x00000000       0x34 build/sam_e70_xult/debug/_ext/716655881/drv_usart.o
 .text.DRV_USART_ErrorGet
                0x00000000       0x10 build/sam_e70_xult/debug/_ext/716655881/drv_usart.o
 .text          0x00000000        0x0 build/sam_e70_xult/debug/_ext/1613695899/osal_freertos.o
 .data          0x00000000        0x0 build/sam_e70_xult/debug/_ext/1613695899/osal_freertos.o
 .bss           0x00000000        0x0 build/sam_e70_xult/debug/_ext/1613695899/osal_freertos.o
 .text.OSAL_CRIT_Enter
                0x00000000       0x18 build/sam_e70_xult/debug/_ext/1613695899/osal_freertos.o
 .text.OSAL_CRIT_Leave
                0x00000000       0x16 build/sam_e70_xult/debug/_ext/1613695899/osal_freertos.o
 .text.OSAL_SEM_Delete
                0x00000000       0x12 build/sam_e70_xult/debug/_ext/1613695899/osal_freertos.o
 .text.OSAL_SEM_Post
                0x00000000       0x18 build/sam_e70_xult/debug/_ext/1613695899/osal_freertos.o
 .text.OSAL_SEM_GetCount
                0x00000000       0x12 build/sam_e70_xult/debug/_ext/1613695899/osal_freertos.o
 .text.OSAL_MUTEX_Delete
                0x00000000       0x1a build/sam_e70_xult/debug/_ext/1613695899/osal_freertos.o
 .text.OSAL_Malloc
                0x00000000        0x8 build/sam_e70_xult/debug/_ext/1613695899/osal_freertos.o
 .text.OSAL_Free
                0x00000000        0x8 build/sam_e70_xult/debug/_ext/1613695899/osal_freertos.o
 .text.OSAL_Initialize
                0x00000000        0x4 build/sam_e70_xult/debug/_ext/1613695899/osal_freertos.o
 .text          0x00000000        0x0 build/sam_e70_xult/debug/_ext/1055500827/plib_clk.o
 .data          0x00000000        0x0 build/sam_e70_xult/debug/_ext/1055500827/plib_clk.o
 .bss           0x00000000        0x0 build/sam_e70_xult/debug/_ext/1055500827/plib_clk.o
 .text          0x00000000        0x0 build/sam_e70_xult/debug/_ext/1055499099/plib_efc.o
 .data          0x00000000        0x0 build/sam_e70_xult/debug/_ext/1055499099/plib_efc.o
 .bss           0x00000000        0x0 build/sam_e70_xult/debug/_ext/1055499099/plib_efc.o
 .text.EFC_Read
                0x00000000       0x10 build/sam_e70_xult/debug/_ext/1055499099/plib_efc.o
 .text.EFC_SectorErase
                0x00000000       0x28 build/sam_e70_xult/debug/_ext/1055499099/plib_efc.o
 .text.EFC_PageBufferWrite
                0x00000000       0x38 build/sam_e70_xult/debug/_ext/1055499099/plib_efc.o
 .text.EFC_PageBufferCommit
                0x00000000       0x34 build/sam_e70_xult/debug/_ext/1055499099/plib_efc.o
 .text.EFC_PageWrite
                0x00000000       0x5c build/sam_e70_xult/debug/_ext/1055499099/plib_efc.o
 .text.EFC_QuadWordWrite
                0x00000000       0x48 build/sam_e70_xult/debug/_ext/1055499099/plib_efc.o
 .text.EFC_RegionLock
                0x00000000       0x2c build/sam_e70_xult/debug/_ext/1055499099/plib_efc.o
 .text.EFC_RegionUnlock
                0x00000000       0x2c build/sam_e70_xult/debug/_ext/1055499099/plib_efc.o
 .text.EFC_IsBusy
                0x00000000       0x20 build/sam_e70_xult/debug/_ext/1055499099/plib_efc.o
 .text.EFC_ErrorGet
                0x00000000       0x18 build/sam_e70_xult/debug/_ext/1055499099/plib_efc.o
 .bss.status    0x00000000        0x4 build/sam_e70_xult/debug/_ext/1055499099/plib_efc.o
 .text          0x00000000        0x0 build/sam_e70_xult/debug/_ext/719181653/plib_hsmci.o
 .data          0x00000000        0x0 build/sam_e70_xult/debug/_ext/719181653/plib_hsmci.o
 .bss           0x00000000        0x0 build/sam_e70_xult/debug/_ext/719181653/plib_hsmci.o
 .text          0x00000000        0x0 build/sam_e70_xult/debug/_ext/1639550079/plib_nvic.o
 .data          0x00000000        0x0 build/sam_e70_xult/debug/_ext/1639550079/plib_nvic.o
 .bss           0x00000000        0x0 build/sam_e70_xult/debug/_ext/1639550079/plib_nvic.o
 .text.NVIC_INT_Enable
                0x00000000        0x8 build/sam_e70_xult/debug/_ext/1639550079/plib_nvic.o
 .text          0x00000000        0x0 build/sam_e70_xult/debug/_ext/1055488423/plib_pio.o
 .data          0x00000000        0x0 build/sam_e70_xult/debug/_ext/1055488423/plib_pio.o
 .bss           0x00000000        0x0 build/sam_e70_xult/debug/_ext/1055488423/plib_pio.o
 .text.PIO_PortRead
                0x00000000        0x4 build/sam_e70_xult/debug/_ext/1055488423/plib_pio.o
 .text.PIO_PortWrite
                0x00000000        0xc build/sam_e70_xult/debug/_ext/1055488423/plib_pio.o
 .text.PIO_PortLatchRead
                0x00000000        0x4 build/sam_e70_xult/debug/_ext/1055488423/plib_pio.o
 .text.PIO_PortSet
                0x00000000        0x4 build/sam_e70_xult/debug/_ext/1055488423/plib_pio.o
 .text.PIO_PortClear
                0x00000000        0x4 build/sam_e70_xult/debug/_ext/1055488423/plib_pio.o
 .text.PIO_PortToggle
                0x00000000        0x8 build/sam_e70_xult/debug/_ext/1055488423/plib_pio.o
 .text.PIO_PortInputEnable
                0x00000000        0x4 build/sam_e70_xult/debug/_ext/1055488423/plib_pio.o
 .text.PIO_PortOutputEnable
                0x00000000        0x4 build/sam_e70_xult/debug/_ext/1055488423/plib_pio.o
 .text.PIO_PortInterruptDisable
                0x00000000        0x4 build/sam_e70_xult/debug/_ext/1055488423/plib_pio.o
 .text          0x00000000        0x0 build/sam_e70_xult/debug/_ext/1055487991/plib_pwm0.o
 .data          0x00000000        0x0 build/sam_e70_xult/debug/_ext/1055487991/plib_pwm0.o
 .bss           0x00000000        0x0 build/sam_e70_xult/debug/_ext/1055487991/plib_pwm0.o
 .text.PWM0_ChannelsStop
                0x00000000        0xc build/sam_e70_xult/debug/_ext/1055487991/plib_pwm0.o
 .text.PWM0_ChannelPeriodSet
                0x00000000        0xc build/sam_e70_xult/debug/_ext/1055487991/plib_pwm0.o
 .text.PWM0_ChannelPeriodGet
                0x00000000       0x10 build/sam_e70_xult/debug/_ext/1055487991/plib_pwm0.o
 .text.PWM0_ChannelDeadTimeSet
                0x00000000       0x10 build/sam_e70_xult/debug/_ext/1055487991/plib_pwm0.o
 .text.PWM0_CompareValueSet
                0x00000000        0xc build/sam_e70_xult/debug/_ext/1055487991/plib_pwm0.o
 .text.PWM0_ChannelCounterEventEnable
                0x00000000        0xc build/sam_e70_xult/debug/_ext/1055487991/plib_pwm0.o
 .text.PWM0_ChannelCounterEventDisable
                0x00000000        0xc build/sam_e70_xult/debug/_ext/1055487991/plib_pwm0.o
 .text.PWM0_SyncUpdateEnable
                0x00000000        0xc build/sam_e70_xult/debug/_ext/1055487991/plib_pwm0.o
 .text.PWM0_FaultStatusClear
                0x00000000       0x10 build/sam_e70_xult/debug/_ext/1055487991/plib_pwm0.o
 .text.PWM0_ChannelOverrideEnable
                0x00000000       0x28 build/sam_e70_xult/debug/_ext/1055487991/plib_pwm0.o
 .text.PWM0_ChannelOverrideDisable
                0x00000000       0x24 build/sam_e70_xult/debug/_ext/1055487991/plib_pwm0.o
 .text.PWM0_CallbackRegister
                0x00000000        0xc build/sam_e70_xult/debug/_ext/1055487991/plib_pwm0.o
 .text          0x00000000        0x0 build/sam_e70_xult/debug/_ext/865331892/plib_tc3.o
 .data          0x00000000        0x0 build/sam_e70_xult/debug/_ext/865331892/plib_tc3.o
 .bss           0x00000000        0x0 build/sam_e70_xult/debug/_ext/865331892/plib_tc3.o
 .text.TC3_CH0_TimerPeriodGet
                0x00000000        0xc build/sam_e70_xult/debug/_ext/865331892/plib_tc3.o
 .text          0x00000000        0x0 build/sam_e70_xult/debug/_ext/1539215101/plib_twihs0_master.o
 .data          0x00000000        0x0 build/sam_e70_xult/debug/_ext/1539215101/plib_twihs0_master.o
 .bss           0x00000000        0x0 build/sam_e70_xult/debug/_ext/1539215101/plib_twihs0_master.o
 .text.TWIHS0_IsBusy
                0x00000000       0x14 build/sam_e70_xult/debug/_ext/1539215101/plib_twihs0_master.o
 .text          0x00000000        0x0 build/sam_e70_xult/debug/_ext/707186936/plib_usart1.o
 .data          0x00000000        0x0 build/sam_e70_xult/debug/_ext/707186936/plib_usart1.o
 .bss           0x00000000        0x0 build/sam_e70_xult/debug/_ext/707186936/plib_usart1.o
 .text          0x00000000        0x0 build/sam_e70_xult/debug/_ext/707186936/plib_usart0.o
 .data          0x00000000        0x0 build/sam_e70_xult/debug/_ext/707186936/plib_usart0.o
 .bss           0x00000000        0x0 build/sam_e70_xult/debug/_ext/707186936/plib_usart0.o
 .text          0x00000000        0x0 build/sam_e70_xult/debug/_ext/707186936/plib_usart2.o
 .data          0x00000000        0x0 build/sam_e70_xult/debug/_ext/707186936/plib_usart2.o
 .bss           0x00000000        0x0 build/sam_e70_xult/debug/_ext/707186936/plib_usart2.o
 .text          0x00000000        0x0 build/sam_e70_xult/debug/_ext/704852250/plib_xdmac.o
 .data          0x00000000        0x0 build/sam_e70_xult/debug/_ext/704852250/plib_xdmac.o
 .bss           0x00000000        0x0 build/sam_e70_xult/debug/_ext/704852250/plib_xdmac.o
 .text.XDMAC_ChannelCallbackRegister
                0x00000000       0x10 build/sam_e70_xult/debug/_ext/704852250/plib_xdmac.o
 .text.XDMAC_ChannelIsBusy
                0x00000000       0x2c build/sam_e70_xult/debug/_ext/704852250/plib_xdmac.o
 .text.XDMAC_ChannelTransferStatusGet
                0x00000000       0x18 build/sam_e70_xult/debug/_ext/704852250/plib_xdmac.o
 .text.XDMAC_ChannelSettingsGet
                0x00000000        0xc build/sam_e70_xult/debug/_ext/704852250/plib_xdmac.o
 .text.XDMAC_ChannelBlockLengthSet
                0x00000000       0x14 build/sam_e70_xult/debug/_ext/704852250/plib_xdmac.o
 .text.XDMAC_ChannelSuspend
                0x00000000       0x10 build/sam_e70_xult/debug/_ext/704852250/plib_xdmac.o
 .text.XDMAC_ChannelResume
                0x00000000       0x10 build/sam_e70_xult/debug/_ext/704852250/plib_xdmac.o
 .text          0x00000000        0x0 build/sam_e70_xult/debug/_ext/1518761459/xc32_monitor.o
 .data          0x00000000        0x0 build/sam_e70_xult/debug/_ext/1518761459/xc32_monitor.o
 .bss           0x00000000        0x0 build/sam_e70_xult/debug/_ext/1518761459/xc32_monitor.o
 .text._mon_getc
                0x00000000        0x4 build/sam_e70_xult/debug/_ext/1518761459/xc32_monitor.o
 .text._mon_putc
                0x00000000        0x2 build/sam_e70_xult/debug/_ext/1518761459/xc32_monitor.o
 .debug_info    0x00000000      0x2d3 build/sam_e70_xult/debug/_ext/1518761459/xc32_monitor.o
 .debug_abbrev  0x00000000       0x80 build/sam_e70_xult/debug/_ext/1518761459/xc32_monitor.o
 .debug_loc     0x00000000       0x25 build/sam_e70_xult/debug/_ext/1518761459/xc32_monitor.o
 .debug_aranges
                0x00000000       0x28 build/sam_e70_xult/debug/_ext/1518761459/xc32_monitor.o
 .debug_ranges  0x00000000       0x18 build/sam_e70_xult/debug/_ext/1518761459/xc32_monitor.o
 .debug_line    0x00000000       0x82 build/sam_e70_xult/debug/_ext/1518761459/xc32_monitor.o
 .debug_str     0x00000000        0x0 build/sam_e70_xult/debug/_ext/1518761459/xc32_monitor.o
 .comment       0x00000000       0x54 build/sam_e70_xult/debug/_ext/1518761459/xc32_monitor.o
 .debug_frame   0x00000000       0x30 build/sam_e70_xult/debug/_ext/1518761459/xc32_monitor.o
 .ARM.attributes
                0x00000000       0x32 build/sam_e70_xult/debug/_ext/1518761459/xc32_monitor.o
 .text          0x00000000        0x0 build/sam_e70_xult/debug/_ext/876653320/sys_cache.o
 .data          0x00000000        0x0 build/sam_e70_xult/debug/_ext/876653320/sys_cache.o
 .bss           0x00000000        0x0 build/sam_e70_xult/debug/_ext/876653320/sys_cache.o
 .text.SYS_CACHE_EnableCaches
                0x00000000       0xb0 build/sam_e70_xult/debug/_ext/876653320/sys_cache.o
 .text.SYS_CACHE_DisableCaches
                0x00000000       0x94 build/sam_e70_xult/debug/_ext/876653320/sys_cache.o
 .text.SYS_CACHE_EnableICache
                0x00000000       0x44 build/sam_e70_xult/debug/_ext/876653320/sys_cache.o
 .text.SYS_CACHE_DisableICache
                0x00000000       0x30 build/sam_e70_xult/debug/_ext/876653320/sys_cache.o
 .text.SYS_CACHE_InvalidateICache
                0x00000000       0x28 build/sam_e70_xult/debug/_ext/876653320/sys_cache.o
 .text.SYS_CACHE_EnableDCache
                0x00000000       0x74 build/sam_e70_xult/debug/_ext/876653320/sys_cache.o
 .text.SYS_CACHE_DisableDCache
                0x00000000       0x68 build/sam_e70_xult/debug/_ext/876653320/sys_cache.o
 .text.SYS_CACHE_InvalidateDCache
                0x00000000       0x5c build/sam_e70_xult/debug/_ext/876653320/sys_cache.o
 .text.SYS_CACHE_CleanDCache
                0x00000000       0x5c build/sam_e70_xult/debug/_ext/876653320/sys_cache.o
 .text.SYS_CACHE_CleanInvalidateDCache
                0x00000000       0x5c build/sam_e70_xult/debug/_ext/876653320/sys_cache.o
 .text.SYS_CACHE_CleanInvalidateDCache_by_Addr
                0x00000000       0x38 build/sam_e70_xult/debug/_ext/876653320/sys_cache.o
 .text          0x00000000        0x0 build/sam_e70_xult/debug/_ext/984150034/sys_dma.o
 .data          0x00000000        0x0 build/sam_e70_xult/debug/_ext/984150034/sys_dma.o
 .bss           0x00000000        0x0 build/sam_e70_xult/debug/_ext/984150034/sys_dma.o
 .text.SYS_DMA_AddressingModeSetup
                0x00000000       0x1e build/sam_e70_xult/debug/_ext/984150034/sys_dma.o
 .text.SYS_DMA_DataWidthSetup
                0x00000000       0x1a build/sam_e70_xult/debug/_ext/984150034/sys_dma.o
 .debug_info    0x00000000      0x927 build/sam_e70_xult/debug/_ext/984150034/sys_dma.o
 .debug_abbrev  0x00000000       0xe3 build/sam_e70_xult/debug/_ext/984150034/sys_dma.o
 .debug_loc     0x00000000      0x1a9 build/sam_e70_xult/debug/_ext/984150034/sys_dma.o
 .debug_aranges
                0x00000000       0x28 build/sam_e70_xult/debug/_ext/984150034/sys_dma.o
 .debug_ranges  0x00000000       0x18 build/sam_e70_xult/debug/_ext/984150034/sys_dma.o
 .debug_line    0x00000000      0x1af build/sam_e70_xult/debug/_ext/984150034/sys_dma.o
 .debug_str     0x00000000       0x32 build/sam_e70_xult/debug/_ext/984150034/sys_dma.o
 .comment       0x00000000       0x54 build/sam_e70_xult/debug/_ext/984150034/sys_dma.o
 .debug_frame   0x00000000       0x48 build/sam_e70_xult/debug/_ext/984150034/sys_dma.o
 .ARM.attributes
                0x00000000       0x32 build/sam_e70_xult/debug/_ext/984150034/sys_dma.o
 .text          0x00000000        0x0 build/sam_e70_xult/debug/_ext/1043829778/ff.o
 .data          0x00000000        0x0 build/sam_e70_xult/debug/_ext/1043829778/ff.o
 .bss           0x00000000        0x0 build/sam_e70_xult/debug/_ext/1043829778/ff.o
 .text          0x00000000        0x0 build/sam_e70_xult/debug/_ext/1043829778/ffunicode.o
 .data          0x00000000        0x0 build/sam_e70_xult/debug/_ext/1043829778/ffunicode.o
 .bss           0x00000000        0x0 build/sam_e70_xult/debug/_ext/1043829778/ffunicode.o
 .text          0x00000000        0x0 build/sam_e70_xult/debug/_ext/1893760823/diskio.o
 .data          0x00000000        0x0 build/sam_e70_xult/debug/_ext/1893760823/diskio.o
 .bss           0x00000000        0x0 build/sam_e70_xult/debug/_ext/1893760823/diskio.o
 .text          0x00000000        0x0 build/sam_e70_xult/debug/_ext/1305476372/sys_fs.o
 .data          0x00000000        0x0 build/sam_e70_xult/debug/_ext/1305476372/sys_fs.o
 .bss           0x00000000        0x0 build/sam_e70_xult/debug/_ext/1305476372/sys_fs.o
 .text.SYS_FS_GetDisk
                0x00000000       0xc4 build/sam_e70_xult/debug/_ext/1305476372/sys_fs.o
 .text.SYS_FS_Mount
                0x00000000      0x1a4 build/sam_e70_xult/debug/_ext/1305476372/sys_fs.o
 .text.SYS_FS_Unmount
                0x00000000      0x100 build/sam_e70_xult/debug/_ext/1305476372/sys_fs.o
 .text.SYS_FS_FileOpen
                0x00000000      0x128 build/sam_e70_xult/debug/_ext/1305476372/sys_fs.o
 .text.SYS_FS_FileClose
                0x00000000       0x7c build/sam_e70_xult/debug/_ext/1305476372/sys_fs.o
 .text.SYS_FS_FileNameGet
                0x00000000       0x50 build/sam_e70_xult/debug/_ext/1305476372/sys_fs.o
 .text.SYS_FS_FileRead
                0x00000000       0x84 build/sam_e70_xult/debug/_ext/1305476372/sys_fs.o
 .text.SYS_FS_FileSeek
                0x00000000       0xdc build/sam_e70_xult/debug/_ext/1305476372/sys_fs.o
 .text.SYS_FS_FileTell
                0x00000000       0x7c build/sam_e70_xult/debug/_ext/1305476372/sys_fs.o
 .text.SYS_FS_FileSize
                0x00000000       0x7c build/sam_e70_xult/debug/_ext/1305476372/sys_fs.o
 .text.SYS_FS_FileEOF
                0x00000000       0x68 build/sam_e70_xult/debug/_ext/1305476372/sys_fs.o
 .text.SYS_FS_FileStat
                0x00000000       0x9c build/sam_e70_xult/debug/_ext/1305476372/sys_fs.o
 .text.SYS_FS_Error
                0x00000000        0xc build/sam_e70_xult/debug/_ext/1305476372/sys_fs.o
 .text.SYS_FS_FileError
                0x00000000       0x16 build/sam_e70_xult/debug/_ext/1305476372/sys_fs.o
 .text.SYS_FS_DirOpen
                0x00000000       0xe4 build/sam_e70_xult/debug/_ext/1305476372/sys_fs.o
 .text.SYS_FS_DirClose
                0x00000000       0x7c build/sam_e70_xult/debug/_ext/1305476372/sys_fs.o
 .text.SYS_FS_DirRead
                0x00000000       0x80 build/sam_e70_xult/debug/_ext/1305476372/sys_fs.o
 .text.SYS_FS_DirRewind
                0x00000000       0x78 build/sam_e70_xult/debug/_ext/1305476372/sys_fs.o
 .text.SYS_FS_DirSearch
                0x00000000      0x148 build/sam_e70_xult/debug/_ext/1305476372/sys_fs.o
 .text.SYS_FS_FileStringGet
                0x00000000       0x90 build/sam_e70_xult/debug/_ext/1305476372/sys_fs.o
 .text.SYS_FS_DirectoryChange
                0x00000000       0x94 build/sam_e70_xult/debug/_ext/1305476372/sys_fs.o
 .text.SYS_FS_CurrentWorkingDirectoryGet
                0x00000000      0x124 build/sam_e70_xult/debug/_ext/1305476372/sys_fs.o
 .text.SYS_FS_CurrentDriveGet
                0x00000000       0x4c build/sam_e70_xult/debug/_ext/1305476372/sys_fs.o
 .text.SYS_FS_DriveLabelGet
                0x00000000       0xb8 build/sam_e70_xult/debug/_ext/1305476372/sys_fs.o
 .text.SYS_FS_FileWrite
                0x00000000       0x88 build/sam_e70_xult/debug/_ext/1305476372/sys_fs.o
 .text.SYS_FS_FileSync
                0x00000000       0x78 build/sam_e70_xult/debug/_ext/1305476372/sys_fs.o
 .text.SYS_FS_FileTruncate
                0x00000000       0x70 build/sam_e70_xult/debug/_ext/1305476372/sys_fs.o
 .text.SYS_FS_FileCharacterPut
                0x00000000       0x80 build/sam_e70_xult/debug/_ext/1305476372/sys_fs.o
 .text.SYS_FS_FileStringPut
                0x00000000       0x88 build/sam_e70_xult/debug/_ext/1305476372/sys_fs.o
 .text.SYS_FS_FilePrintf
                0x00000000       0x9c build/sam_e70_xult/debug/_ext/1305476372/sys_fs.o
 .text.SYS_FS_FileTestError
                0x00000000       0x68 build/sam_e70_xult/debug/_ext/1305476372/sys_fs.o
 .text.SYS_FS_DirectoryMake
                0x00000000       0x94 build/sam_e70_xult/debug/_ext/1305476372/sys_fs.o
 .text.SYS_FS_FileDirectoryRemove
                0x00000000       0x94 build/sam_e70_xult/debug/_ext/1305476372/sys_fs.o
 .text.SYS_FS_FileDirectoryModeSet
                0x00000000       0x9c build/sam_e70_xult/debug/_ext/1305476372/sys_fs.o
 .text.SYS_FS_FileDirectoryTimeSet
                0x00000000       0xb0 build/sam_e70_xult/debug/_ext/1305476372/sys_fs.o
 .text.SYS_FS_FileDirectoryRenameMove
                0x00000000       0xc0 build/sam_e70_xult/debug/_ext/1305476372/sys_fs.o
 .text.SYS_FS_CurrentDriveSet
                0x00000000       0xb0 build/sam_e70_xult/debug/_ext/1305476372/sys_fs.o
 .text.SYS_FS_DriveLabelSet
                0x00000000       0xc8 build/sam_e70_xult/debug/_ext/1305476372/sys_fs.o
 .text.SYS_FS_DriveFormat
                0x00000000       0x84 build/sam_e70_xult/debug/_ext/1305476372/sys_fs.o
 .text.SYS_FS_DrivePartition
                0x00000000       0x84 build/sam_e70_xult/debug/_ext/1305476372/sys_fs.o
 .text.SYS_FS_DriveSectorGet
                0x00000000       0xc8 build/sam_e70_xult/debug/_ext/1305476372/sys_fs.o
 .rodata        0x00000000        0x8 build/sam_e70_xult/debug/_ext/1305476372/sys_fs.o
 .text          0x00000000        0x0 build/sam_e70_xult/debug/_ext/1305476372/sys_fs_media_manager.o
 .data          0x00000000        0x0 build/sam_e70_xult/debug/_ext/1305476372/sys_fs_media_manager.o
 .bss           0x00000000        0x0 build/sam_e70_xult/debug/_ext/1305476372/sys_fs_media_manager.o
 .text.SYS_FS_MEDIA_MANAGER_DeRegister
                0x00000000        0xc build/sam_e70_xult/debug/_ext/1305476372/sys_fs_media_manager.o
 .text.SYS_FS_MEDIA_MANAGER_Read
                0x00000000       0x4c build/sam_e70_xult/debug/_ext/1305476372/sys_fs_media_manager.o
 .text.SYS_FS_MEDIA_MANAGER_AddressGet
                0x00000000       0x1c build/sam_e70_xult/debug/_ext/1305476372/sys_fs_media_manager.o
 .text.SYS_FS_MEDIA_MANAGER_CommandStatusGet
                0x00000000       0x28 build/sam_e70_xult/debug/_ext/1305476372/sys_fs_media_manager.o
 .text.SYS_FS_MEDIA_MANAGER_MediaStatusGet
                0x00000000       0x5c build/sam_e70_xult/debug/_ext/1305476372/sys_fs_media_manager.o
 .text.SYS_FS_MEDIA_MANAGER_VolumePropertyGet
                0x00000000       0x30 build/sam_e70_xult/debug/_ext/1305476372/sys_fs_media_manager.o
 .text          0x00000000        0x0 build/sam_e70_xult/debug/_ext/1305476372/sys_fs_fat_interface.o
 .data          0x00000000        0x0 build/sam_e70_xult/debug/_ext/1305476372/sys_fs_fat_interface.o
 .bss           0x00000000        0x0 build/sam_e70_xult/debug/_ext/1305476372/sys_fs_fat_interface.o
 .text.FATFS_getfree
                0x00000000        0x8 build/sam_e70_xult/debug/_ext/1305476372/sys_fs_fat_interface.o
 .text          0x00000000        0x0 build/sam_e70_xult/debug/_ext/766002106/sys_int.o
 .data          0x00000000        0x0 build/sam_e70_xult/debug/_ext/766002106/sys_int.o
 .bss           0x00000000        0x0 build/sam_e70_xult/debug/_ext/766002106/sys_int.o
 .text.SYS_INT_Enable
                0x00000000        0x8 build/sam_e70_xult/debug/_ext/766002106/sys_int.o
 .text.SYS_INT_SourceRestore
                0x00000000       0x20 build/sam_e70_xult/debug/_ext/766002106/sys_int.o
 .text          0x00000000        0x0 build/sam_e70_xult/debug/_ext/327803284/sys_time.o
 .data          0x00000000        0x0 build/sam_e70_xult/debug/_ext/327803284/sys_time.o
 .bss           0x00000000        0x0 build/sam_e70_xult/debug/_ext/327803284/sys_time.o
 .text.SYS_TIME_Deinitialize
                0x00000000       0x30 build/sam_e70_xult/debug/_ext/327803284/sys_time.o
 .text.SYS_TIME_Status
                0x00000000       0x14 build/sam_e70_xult/debug/_ext/327803284/sys_time.o
 .text.SYS_TIME_FrequencyGet
                0x00000000        0xc build/sam_e70_xult/debug/_ext/327803284/sys_time.o
 .text.SYS_TIME_Counter64Get
                0x00000000       0x3c build/sam_e70_xult/debug/_ext/327803284/sys_time.o
 .text.SYS_TIME_CounterGet
                0x00000000        0x8 build/sam_e70_xult/debug/_ext/327803284/sys_time.o
 .text.SYS_TIME_CounterSet
                0x00000000       0x20 build/sam_e70_xult/debug/_ext/327803284/sys_time.o
 .text.SYS_TIME_CountToUS
                0x00000000       0x44 build/sam_e70_xult/debug/_ext/327803284/sys_time.o
 .text.SYS_TIME_CountToMS
                0x00000000       0x3c build/sam_e70_xult/debug/_ext/327803284/sys_time.o
 .text.SYS_TIME_USToCount
                0x00000000       0x1c build/sam_e70_xult/debug/_ext/327803284/sys_time.o
 .text.SYS_TIME_MSToCount
                0x00000000       0x1c build/sam_e70_xult/debug/_ext/327803284/sys_time.o
 .text.SYS_TIME_TimerCreate
                0x00000000       0x1c build/sam_e70_xult/debug/_ext/327803284/sys_time.o
 .text.SYS_TIME_TimerReload
                0x00000000       0x90 build/sam_e70_xult/debug/_ext/327803284/sys_time.o
 .text.SYS_TIME_TimerStop
                0x00000000       0x3c build/sam_e70_xult/debug/_ext/327803284/sys_time.o
 .text.SYS_TIME_TimerCounterGet
                0x00000000       0x80 build/sam_e70_xult/debug/_ext/327803284/sys_time.o
 .text.SYS_TIME_DelayUS
                0x00000000       0x50 build/sam_e70_xult/debug/_ext/327803284/sys_time.o
 .text.SYS_TIME_CallbackRegisterUS
                0x00000000       0x54 build/sam_e70_xult/debug/_ext/327803284/sys_time.o
 .text          0x00000000        0x0 build/sam_e70_xult/debug/_ext/1728594169/initialization.o
 .data          0x00000000        0x0 build/sam_e70_xult/debug/_ext/1728594169/initialization.o
 .bss           0x00000000        0x0 build/sam_e70_xult/debug/_ext/1728594169/initialization.o
 .text          0x00000000        0x0 build/sam_e70_xult/debug/_ext/1728594169/interrupts.o
 .data          0x00000000        0x0 build/sam_e70_xult/debug/_ext/1728594169/interrupts.o
 .bss           0x00000000        0x0 build/sam_e70_xult/debug/_ext/1728594169/interrupts.o
 .text          0x00000000        0x0 build/sam_e70_xult/debug/_ext/1728594169/exceptions.o
 .data          0x00000000        0x0 build/sam_e70_xult/debug/_ext/1728594169/exceptions.o
 .bss           0x00000000        0x0 build/sam_e70_xult/debug/_ext/1728594169/exceptions.o
 .text          0x00000000        0x0 build/sam_e70_xult/debug/_ext/1728594169/startup_xc32.o
 .data          0x00000000        0x0 build/sam_e70_xult/debug/_ext/1728594169/startup_xc32.o
 .bss           0x00000000        0x0 build/sam_e70_xult/debug/_ext/1728594169/startup_xc32.o
 .text          0x00000000        0x0 build/sam_e70_xult/debug/_ext/1728594169/libc_syscalls.o
 .data          0x00000000        0x0 build/sam_e70_xult/debug/_ext/1728594169/libc_syscalls.o
 .bss           0x00000000        0x0 build/sam_e70_xult/debug/_ext/1728594169/libc_syscalls.o
 .text._exit    0x00000000        0x4 build/sam_e70_xult/debug/_ext/1728594169/libc_syscalls.o
 .debug_info    0x00000000      0xf60 build/sam_e70_xult/debug/_ext/1728594169/libc_syscalls.o
 .debug_abbrev  0x00000000      0x1d0 build/sam_e70_xult/debug/_ext/1728594169/libc_syscalls.o
 .debug_aranges
                0x00000000       0x20 build/sam_e70_xult/debug/_ext/1728594169/libc_syscalls.o
 .debug_ranges  0x00000000       0x10 build/sam_e70_xult/debug/_ext/1728594169/libc_syscalls.o
 .debug_line    0x00000000      0x1db build/sam_e70_xult/debug/_ext/1728594169/libc_syscalls.o
 .debug_str     0x00000000        0xe build/sam_e70_xult/debug/_ext/1728594169/libc_syscalls.o
 .comment       0x00000000       0x54 build/sam_e70_xult/debug/_ext/1728594169/libc_syscalls.o
 .debug_frame   0x00000000       0x20 build/sam_e70_xult/debug/_ext/1728594169/libc_syscalls.o
 .ARM.attributes
                0x00000000       0x32 build/sam_e70_xult/debug/_ext/1728594169/libc_syscalls.o
 .text          0x00000000        0x0 build/sam_e70_xult/debug/_ext/1728594169/freertos_hooks.o
 .data          0x00000000        0x0 build/sam_e70_xult/debug/_ext/1728594169/freertos_hooks.o
 .bss           0x00000000        0x0 build/sam_e70_xult/debug/_ext/1728594169/freertos_hooks.o
 .text.vApplicationIdleHook
                0x00000000        0x2 build/sam_e70_xult/debug/_ext/1728594169/freertos_hooks.o
 .text.vApplicationTickHook
                0x00000000        0x2 build/sam_e70_xult/debug/_ext/1728594169/freertos_hooks.o
 .text.vAssertCalled
                0x00000000       0x1c build/sam_e70_xult/debug/_ext/1728594169/freertos_hooks.o
 .text          0x00000000        0x0 build/sam_e70_xult/debug/_ext/1728594169/tasks.o
 .data          0x00000000        0x0 build/sam_e70_xult/debug/_ext/1728594169/tasks.o
 .bss           0x00000000        0x0 build/sam_e70_xult/debug/_ext/1728594169/tasks.o
 .text          0x00000000        0x0 build/sam_e70_xult/debug/_ext/977623654/port.o
 .data          0x00000000        0x0 build/sam_e70_xult/debug/_ext/977623654/port.o
 .bss           0x00000000        0x0 build/sam_e70_xult/debug/_ext/977623654/port.o
 .text.vPortEndScheduler
                0x00000000        0x2 build/sam_e70_xult/debug/_ext/977623654/port.o
 .text          0x00000000        0x0 build/sam_e70_xult/debug/_ext/1665200909/heap_1.o
 .data          0x00000000        0x0 build/sam_e70_xult/debug/_ext/1665200909/heap_1.o
 .bss           0x00000000        0x0 build/sam_e70_xult/debug/_ext/1665200909/heap_1.o
 .text.vPortInitialiseBlocks
                0x00000000        0xc build/sam_e70_xult/debug/_ext/1665200909/heap_1.o
 .text.xPortGetFreeHeapSize
                0x00000000       0x10 build/sam_e70_xult/debug/_ext/1665200909/heap_1.o
 .text          0x00000000        0x0 build/sam_e70_xult/debug/_ext/404212886/croutine.o
 .data          0x00000000        0x0 build/sam_e70_xult/debug/_ext/404212886/croutine.o
 .bss           0x00000000        0x0 build/sam_e70_xult/debug/_ext/404212886/croutine.o
 .debug_info    0x00000000      0x30d build/sam_e70_xult/debug/_ext/404212886/croutine.o
 .debug_abbrev  0x00000000       0x1b build/sam_e70_xult/debug/_ext/404212886/croutine.o
 .debug_aranges
                0x00000000       0x18 build/sam_e70_xult/debug/_ext/404212886/croutine.o
 .debug_line    0x00000000       0x1d build/sam_e70_xult/debug/_ext/404212886/croutine.o
 .debug_str     0x00000000        0x0 build/sam_e70_xult/debug/_ext/404212886/croutine.o
 .comment       0x00000000       0x54 build/sam_e70_xult/debug/_ext/404212886/croutine.o
 .ARM.attributes
                0x00000000       0x37 build/sam_e70_xult/debug/_ext/404212886/croutine.o
 .text          0x00000000        0x0 build/sam_e70_xult/debug/_ext/404212886/list.o
 .data          0x00000000        0x0 build/sam_e70_xult/debug/_ext/404212886/list.o
 .bss           0x00000000        0x0 build/sam_e70_xult/debug/_ext/404212886/list.o
 .text          0x00000000        0x0 build/sam_e70_xult/debug/_ext/404212886/queue.o
 .data          0x00000000        0x0 build/sam_e70_xult/debug/_ext/404212886/queue.o
 .bss           0x00000000        0x0 build/sam_e70_xult/debug/_ext/404212886/queue.o
 .text.prvCopyDataFromQueue
                0x00000000       0x24 build/sam_e70_xult/debug/_ext/404212886/queue.o
 .text.xQueueGenericSendFromISR
                0x00000000       0x70 build/sam_e70_xult/debug/_ext/404212886/queue.o
 .text.xQueueReceive
                0x00000000      0x114 build/sam_e70_xult/debug/_ext/404212886/queue.o
 .text.xQueuePeek
                0x00000000      0x110 build/sam_e70_xult/debug/_ext/404212886/queue.o
 .text.xQueueReceiveFromISR
                0x00000000       0x72 build/sam_e70_xult/debug/_ext/404212886/queue.o
 .text.xQueuePeekFromISR
                0x00000000       0x34 build/sam_e70_xult/debug/_ext/404212886/queue.o
 .text.uxQueueMessagesWaiting
                0x00000000       0x12 build/sam_e70_xult/debug/_ext/404212886/queue.o
 .text.uxQueueSpacesAvailable
                0x00000000       0x16 build/sam_e70_xult/debug/_ext/404212886/queue.o
 .text.uxQueueMessagesWaitingFromISR
                0x00000000        0x4 build/sam_e70_xult/debug/_ext/404212886/queue.o
 .text.vQueueDelete
                0x00000000        0x8 build/sam_e70_xult/debug/_ext/404212886/queue.o
 .text.xQueueIsQueueEmptyFromISR
                0x00000000        0xa build/sam_e70_xult/debug/_ext/404212886/queue.o
 .text.xQueueIsQueueFullFromISR
                0x00000000        0xe build/sam_e70_xult/debug/_ext/404212886/queue.o
 .text          0x00000000        0x0 build/sam_e70_xult/debug/_ext/404212886/FreeRTOS_tasks.o
 .data          0x00000000        0x0 build/sam_e70_xult/debug/_ext/404212886/FreeRTOS_tasks.o
 .bss           0x00000000        0x0 build/sam_e70_xult/debug/_ext/404212886/FreeRTOS_tasks.o
 .text.vTaskDelete
                0x00000000       0xcc build/sam_e70_xult/debug/_ext/404212886/FreeRTOS_tasks.o
 .text.uxTaskPriorityGet
                0x00000000       0x20 build/sam_e70_xult/debug/_ext/404212886/FreeRTOS_tasks.o
 .text.uxTaskPriorityGetFromISR
                0x00000000       0x2c build/sam_e70_xult/debug/_ext/404212886/FreeRTOS_tasks.o
 .text.vTaskPrioritySet
                0x00000000       0xd0 build/sam_e70_xult/debug/_ext/404212886/FreeRTOS_tasks.o
 .text.vTaskResume
                0x00000000       0x88 build/sam_e70_xult/debug/_ext/404212886/FreeRTOS_tasks.o
 .text.vTaskEndScheduler
                0x00000000       0x28 build/sam_e70_xult/debug/_ext/404212886/FreeRTOS_tasks.o
 .text.xTaskGetTickCount
                0x00000000        0xc build/sam_e70_xult/debug/_ext/404212886/FreeRTOS_tasks.o
 .text.xTaskGetTickCountFromISR
                0x00000000        0xc build/sam_e70_xult/debug/_ext/404212886/FreeRTOS_tasks.o
 .text.uxTaskGetNumberOfTasks
                0x00000000        0xc build/sam_e70_xult/debug/_ext/404212886/FreeRTOS_tasks.o
 .text.pcTaskGetName
                0x00000000       0x14 build/sam_e70_xult/debug/_ext/404212886/FreeRTOS_tasks.o
 .text.vTaskDelayUntil
                0x00000000       0x60 build/sam_e70_xult/debug/_ext/404212886/FreeRTOS_tasks.o
 .text.xTaskCatchUpTicks
                0x00000000       0x1c build/sam_e70_xult/debug/_ext/404212886/FreeRTOS_tasks.o
 .text.vTaskSuspend
                0x00000000       0xd0 build/sam_e70_xult/debug/_ext/404212886/FreeRTOS_tasks.o
 .text.vTaskPlaceOnUnorderedEventList
                0x00000000       0x24 build/sam_e70_xult/debug/_ext/404212886/FreeRTOS_tasks.o
 .text.vTaskRemoveFromUnorderedEventList
                0x00000000       0x58 build/sam_e70_xult/debug/_ext/404212886/FreeRTOS_tasks.o
 .text.vTaskSetTimeOutState
                0x00000000       0x24 build/sam_e70_xult/debug/_ext/404212886/FreeRTOS_tasks.o
 .text.xTaskGetCurrentTaskHandle
                0x00000000        0xc build/sam_e70_xult/debug/_ext/404212886/FreeRTOS_tasks.o
 .text.uxTaskResetEventItemValue
                0x00000000       0x18 build/sam_e70_xult/debug/_ext/404212886/FreeRTOS_tasks.o
 .text.ulTaskNotifyTake
                0x00000000       0x78 build/sam_e70_xult/debug/_ext/404212886/FreeRTOS_tasks.o
 .text.xTaskNotifyWait
                0x00000000       0x98 build/sam_e70_xult/debug/_ext/404212886/FreeRTOS_tasks.o
 .text.xTaskGenericNotify
                0x00000000       0xb4 build/sam_e70_xult/debug/_ext/404212886/FreeRTOS_tasks.o
 .text.xTaskGenericNotifyFromISR
                0x00000000       0xd8 build/sam_e70_xult/debug/_ext/404212886/FreeRTOS_tasks.o
 .text.vTaskNotifyGiveFromISR
                0x00000000       0xa4 build/sam_e70_xult/debug/_ext/404212886/FreeRTOS_tasks.o
 .text.xTaskNotifyStateClear
                0x00000000       0x34 build/sam_e70_xult/debug/_ext/404212886/FreeRTOS_tasks.o
 .text.ulTaskNotifyValueClear
                0x00000000       0x2c build/sam_e70_xult/debug/_ext/404212886/FreeRTOS_tasks.o
 .text          0x00000000        0x0 build/sam_e70_xult/debug/_ext/404212886/timers.o
 .data          0x00000000        0x0 build/sam_e70_xult/debug/_ext/404212886/timers.o
 .bss           0x00000000        0x0 build/sam_e70_xult/debug/_ext/404212886/timers.o
 .debug_info    0x00000000      0xeba build/sam_e70_xult/debug/_ext/404212886/timers.o
 .debug_abbrev  0x00000000      0x195 build/sam_e70_xult/debug/_ext/404212886/timers.o
 .debug_aranges
                0x00000000       0x18 build/sam_e70_xult/debug/_ext/404212886/timers.o
 .debug_line    0x00000000      0x107 build/sam_e70_xult/debug/_ext/404212886/timers.o
 .debug_str     0x00000000        0xe build/sam_e70_xult/debug/_ext/404212886/timers.o
 .comment       0x00000000       0x54 build/sam_e70_xult/debug/_ext/404212886/timers.o
 .ARM.attributes
                0x00000000       0x37 build/sam_e70_xult/debug/_ext/404212886/timers.o
 .text          0x00000000        0x0 build/sam_e70_xult/debug/_ext/404212886/event_groups.o
 .data          0x00000000        0x0 build/sam_e70_xult/debug/_ext/404212886/event_groups.o
 .bss           0x00000000        0x0 build/sam_e70_xult/debug/_ext/404212886/event_groups.o
 .text.xEventGroupCreate
                0x00000000       0x1a build/sam_e70_xult/debug/_ext/404212886/event_groups.o
 .text.xEventGroupWaitBits
                0x00000000       0xc0 build/sam_e70_xult/debug/_ext/404212886/event_groups.o
 .text.xEventGroupClearBits
                0x00000000       0x1a build/sam_e70_xult/debug/_ext/404212886/event_groups.o
 .text.xEventGroupGetBitsFromISR
                0x00000000       0x20 build/sam_e70_xult/debug/_ext/404212886/event_groups.o
 .text.xEventGroupSetBits
                0x00000000       0x66 build/sam_e70_xult/debug/_ext/404212886/event_groups.o
 .text.xEventGroupSync
                0x00000000       0x94 build/sam_e70_xult/debug/_ext/404212886/event_groups.o
 .text.vEventGroupDelete
                0x00000000       0x2a build/sam_e70_xult/debug/_ext/404212886/event_groups.o
 .text.vEventGroupSetBitsCallback
                0x00000000        0x8 build/sam_e70_xult/debug/_ext/404212886/event_groups.o
 .text.vEventGroupClearBitsCallback
                0x00000000        0x8 build/sam_e70_xult/debug/_ext/404212886/event_groups.o
 .debug_info    0x00000000     0x1b4f build/sam_e70_xult/debug/_ext/404212886/event_groups.o
 .debug_abbrev  0x00000000      0x401 build/sam_e70_xult/debug/_ext/404212886/event_groups.o
 .debug_loc     0x00000000      0xb00 build/sam_e70_xult/debug/_ext/404212886/event_groups.o
 .debug_aranges
                0x00000000       0x60 build/sam_e70_xult/debug/_ext/404212886/event_groups.o
 .debug_ranges  0x00000000       0x98 build/sam_e70_xult/debug/_ext/404212886/event_groups.o
 .debug_line    0x00000000      0x6c9 build/sam_e70_xult/debug/_ext/404212886/event_groups.o
 .debug_str     0x00000000      0x1ba build/sam_e70_xult/debug/_ext/404212886/event_groups.o
 .comment       0x00000000       0x54 build/sam_e70_xult/debug/_ext/404212886/event_groups.o
 .debug_frame   0x00000000      0x100 build/sam_e70_xult/debug/_ext/404212886/event_groups.o
 .ARM.attributes
                0x00000000       0x32 build/sam_e70_xult/debug/_ext/404212886/event_groups.o
 .text          0x00000000        0x0 build/sam_e70_xult/debug/_ext/404212886/stream_buffer.o
 .data          0x00000000        0x0 build/sam_e70_xult/debug/_ext/404212886/stream_buffer.o
 .bss           0x00000000        0x0 build/sam_e70_xult/debug/_ext/404212886/stream_buffer.o
 .text.prvBytesInBuffer
                0x00000000       0x12 build/sam_e70_xult/debug/_ext/404212886/stream_buffer.o
 .text.prvWriteBytesToBuffer
                0x00000000       0x44 build/sam_e70_xult/debug/_ext/404212886/stream_buffer.o
 .text.prvReadBytesFromBuffer
                0x00000000       0x50 build/sam_e70_xult/debug/_ext/404212886/stream_buffer.o
 .text.xStreamBufferGenericCreate
                0x00000000       0x38 build/sam_e70_xult/debug/_ext/404212886/stream_buffer.o
 .text.vStreamBufferDelete
                0x00000000       0x1a build/sam_e70_xult/debug/_ext/404212886/stream_buffer.o
 .text.xStreamBufferReset
                0x00000000       0x44 build/sam_e70_xult/debug/_ext/404212886/stream_buffer.o
 .text.xStreamBufferSetTriggerLevel
                0x00000000       0x16 build/sam_e70_xult/debug/_ext/404212886/stream_buffer.o
 .text.xStreamBufferSpacesAvailable
                0x00000000       0x14 build/sam_e70_xult/debug/_ext/404212886/stream_buffer.o
 .text.xStreamBufferBytesAvailable
                0x00000000        0x8 build/sam_e70_xult/debug/_ext/404212886/stream_buffer.o
 .text.xStreamBufferSend
                0x00000000       0xde build/sam_e70_xult/debug/_ext/404212886/stream_buffer.o
 .text.xStreamBufferSendFromISR
                0x00000000       0x9c build/sam_e70_xult/debug/_ext/404212886/stream_buffer.o
 .text.xStreamBufferReceive
                0x00000000       0xbe build/sam_e70_xult/debug/_ext/404212886/stream_buffer.o
 .text.xStreamBufferNextMessageLengthBytes
                0x00000000       0x36 build/sam_e70_xult/debug/_ext/404212886/stream_buffer.o
 .text.xStreamBufferReceiveFromISR
                0x00000000       0x9e build/sam_e70_xult/debug/_ext/404212886/stream_buffer.o
 .text.xStreamBufferIsEmpty
                0x00000000        0xe build/sam_e70_xult/debug/_ext/404212886/stream_buffer.o
 .text.xStreamBufferIsFull
                0x00000000       0x18 build/sam_e70_xult/debug/_ext/404212886/stream_buffer.o
 .text.xStreamBufferSendCompletedFromISR
                0x00000000       0x42 build/sam_e70_xult/debug/_ext/404212886/stream_buffer.o
 .text.xStreamBufferReceiveCompletedFromISR
                0x00000000       0x42 build/sam_e70_xult/debug/_ext/404212886/stream_buffer.o
 .debug_info    0x00000000     0x294e build/sam_e70_xult/debug/_ext/404212886/stream_buffer.o
 .debug_abbrev  0x00000000      0x495 build/sam_e70_xult/debug/_ext/404212886/stream_buffer.o
 .debug_loc     0x00000000     0x1c0b build/sam_e70_xult/debug/_ext/404212886/stream_buffer.o
 .debug_aranges
                0x00000000       0xa8 build/sam_e70_xult/debug/_ext/404212886/stream_buffer.o
 .debug_ranges  0x00000000      0x128 build/sam_e70_xult/debug/_ext/404212886/stream_buffer.o
 .debug_line    0x00000000      0xbfe build/sam_e70_xult/debug/_ext/404212886/stream_buffer.o
 .debug_str     0x00000000      0x242 build/sam_e70_xult/debug/_ext/404212886/stream_buffer.o
 .comment       0x00000000       0x54 build/sam_e70_xult/debug/_ext/404212886/stream_buffer.o
 .debug_frame   0x00000000      0x230 build/sam_e70_xult/debug/_ext/404212886/stream_buffer.o
 .ARM.attributes
                0x00000000       0x32 build/sam_e70_xult/debug/_ext/404212886/stream_buffer.o
 .text          0x00000000        0x0 build/sam_e70_xult/debug/_ext/1360937237/main.o
 .data          0x00000000        0x0 build/sam_e70_xult/debug/_ext/1360937237/main.o
 .bss           0x00000000        0x0 build/sam_e70_xult/debug/_ext/1360937237/main.o
 .text          0x00000000        0x0 build/sam_e70_xult/debug/_ext/1360937237/app_communication.o
 .data          0x00000000        0x0 build/sam_e70_xult/debug/_ext/1360937237/app_communication.o
 .bss           0x00000000        0x0 build/sam_e70_xult/debug/_ext/1360937237/app_communication.o
 .bss.message_size
                0x00000000        0x4 build/sam_e70_xult/debug/_ext/1360937237/app_communication.o
 .data.test     0x00000000        0xb build/sam_e70_xult/debug/_ext/1360937237/app_communication.o
 .data.test2    0x00000000        0x9 build/sam_e70_xult/debug/_ext/1360937237/app_communication.o
 .text          0x00000000        0x0 build/sam_e70_xult/debug/_ext/1360937237/app_mast_control.o
 .data          0x00000000        0x0 build/sam_e70_xult/debug/_ext/1360937237/app_mast_control.o
 .bss           0x00000000        0x0 build/sam_e70_xult/debug/_ext/1360937237/app_mast_control.o
 .text.CCW      0x00000000       0x10 build/sam_e70_xult/debug/_ext/1360937237/app_mast_control.o
 .text.CW       0x00000000       0x10 build/sam_e70_xult/debug/_ext/1360937237/app_mast_control.o
 .bss.sleep     0x00000000        0x4 build/sam_e70_xult/debug/_ext/1360937237/app_mast_control.o
 .bss.startchange
                0x00000000        0x1 build/sam_e70_xult/debug/_ext/1360937237/app_mast_control.o
 .text          0x00000000        0x0 build/sam_e70_xult/debug/_ext/1360937237/app_course_algorithm.o
 .data          0x00000000        0x0 build/sam_e70_xult/debug/_ext/1360937237/app_course_algorithm.o
 .bss           0x00000000        0x0 build/sam_e70_xult/debug/_ext/1360937237/app_course_algorithm.o
 .bss.check     0x00000000        0x4 build/sam_e70_xult/debug/_ext/1360937237/app_course_algorithm.o
 .data.allowed_rudder_wind_error
                0x00000000        0x4 build/sam_e70_xult/debug/_ext/1360937237/app_course_algorithm.o
 .data.gps_not_ready
                0x00000000       0x23 build/sam_e70_xult/debug/_ext/1360937237/app_course_algorithm.o
 .data.gps_ready
                0x00000000       0x1b build/sam_e70_xult/debug/_ext/1360937237/app_course_algorithm.o
 .text          0x00000000        0x0 build/sam_e70_xult/debug/_ext/1360937237/app_rudder_control.o
 .data          0x00000000        0x0 build/sam_e70_xult/debug/_ext/1360937237/app_rudder_control.o
 .bss           0x00000000        0x0 build/sam_e70_xult/debug/_ext/1360937237/app_rudder_control.o
 .bss.rudder_startchange
                0x00000000        0x1 build/sam_e70_xult/debug/_ext/1360937237/app_rudder_control.o
 .data.wait     0x00000000        0x4 build/sam_e70_xult/debug/_ext/1360937237/app_rudder_control.o
 .text          0x00000000        0x0 build/sam_e70_xult/debug/_ext/1360937237/app_anemometer.o
 .data          0x00000000        0x0 build/sam_e70_xult/debug/_ext/1360937237/app_anemometer.o
 .bss           0x00000000        0x0 build/sam_e70_xult/debug/_ext/1360937237/app_anemometer.o
 .text.realtive_to_boat
                0x00000000       0xcc build/sam_e70_xult/debug/_ext/1360937237/app_anemometer.o
 .bss.avg       0x00000000        0x4 build/sam_e70_xult/debug/_ext/1360937237/app_anemometer.o
 .bss.count     0x00000000        0x4 build/sam_e70_xult/debug/_ext/1360937237/app_anemometer.o
 .bss.wind_angle
                0x00000000        0x4 build/sam_e70_xult/debug/_ext/1360937237/app_anemometer.o
 .data.avnum    0x00000000        0x4 build/sam_e70_xult/debug/_ext/1360937237/app_anemometer.o
 .text          0x00000000        0x0 build/sam_e70_xult/debug/_ext/1360937237/app_gps.o
 .data          0x00000000        0x0 build/sam_e70_xult/debug/_ext/1360937237/app_gps.o
 .bss           0x00000000        0x0 build/sam_e70_xult/debug/_ext/1360937237/app_gps.o
 .text          0x00000000        0x0 build/sam_e70_xult/debug/_ext/1360937237/app_imu.o
 .data          0x00000000        0x0 build/sam_e70_xult/debug/_ext/1360937237/app_imu.o
 .bss           0x00000000        0x0 build/sam_e70_xult/debug/_ext/1360937237/app_imu.o
 .data.heading  0x00000000        0x4 build/sam_e70_xult/debug/_ext/1360937237/app_imu.o
 .data.hello    0x00000000        0x6 build/sam_e70_xult/debug/_ext/1360937237/app_imu.o
 .text          0x00000000        0x0 c:/program files/microchip/xc32/v3.01/bin/bin/../../lib/gcc/pic32c/8.3.1/../../../../pic32c/lib/thumb/v7e-m+dp/hard\libpic32c.a(data_init.o)
 .data          0x00000000        0x0 c:/program files/microchip/xc32/v3.01/bin/bin/../../lib/gcc/pic32c/8.3.1/../../../../pic32c/lib/thumb/v7e-m+dp/hard\libpic32c.a(data_init.o)
 .xc_stack_usage
                0x00000000       0x2a c:/program files/microchip/xc32/v3.01/bin/bin/../../lib/gcc/pic32c/8.3.1/../../../../pic32c/lib/thumb/v7e-m+dp/hard\libpic32c.a(data_init.o)
 .xc_stack_usage.hdr
                0x00000000        0xe c:/program files/microchip/xc32/v3.01/bin/bin/../../lib/gcc/pic32c/8.3.1/../../../../pic32c/lib/thumb/v7e-m+dp/hard\libpic32c.a(data_init.o)
 .data          0x00000000        0x0 c:/program files/microchip/xc32/v3.01/bin/bin/../../lib/gcc/pic32c/8.3.1/thumb/v7e-m+dp/hard\libgcc.a(_aeabi_uldivmod.o)
 .bss           0x00000000        0x0 c:/program files/microchip/xc32/v3.01/bin/bin/../../lib/gcc/pic32c/8.3.1/thumb/v7e-m+dp/hard\libgcc.a(_aeabi_uldivmod.o)
 .xc_stack_usage.hdr
                0x00000000        0xe c:/program files/microchip/xc32/v3.01/bin/bin/../../lib/gcc/pic32c/8.3.1/thumb/v7e-m+dp/hard\libgcc.a(_aeabi_uldivmod.o)
 .xc_stack_usage
                0x00000000       0x1e c:/program files/microchip/xc32/v3.01/bin/bin/../../lib/gcc/pic32c/8.3.1/thumb/v7e-m+dp/hard\libgcc.a(_aeabi_uldivmod.o)
 .data          0x00000000        0x0 c:/program files/microchip/xc32/v3.01/bin/bin/../../lib/gcc/pic32c/8.3.1/thumb/v7e-m+dp/hard\libgcc.a(_udivmoddi4.o)
 .bss           0x00000000        0x0 c:/program files/microchip/xc32/v3.01/bin/bin/../../lib/gcc/pic32c/8.3.1/thumb/v7e-m+dp/hard\libgcc.a(_udivmoddi4.o)
 .xc_stack_usage
                0x00000000       0x1a c:/program files/microchip/xc32/v3.01/bin/bin/../../lib/gcc/pic32c/8.3.1/thumb/v7e-m+dp/hard\libgcc.a(_udivmoddi4.o)
 .ARM.extab     0x00000000        0x0 c:/program files/microchip/xc32/v3.01/bin/bin/../../lib/gcc/pic32c/8.3.1/thumb/v7e-m+dp/hard\libgcc.a(_udivmoddi4.o)
 .xc_stack_usage.hdr
                0x00000000        0xe c:/program files/microchip/xc32/v3.01/bin/bin/../../lib/gcc/pic32c/8.3.1/thumb/v7e-m+dp/hard\libgcc.a(_udivmoddi4.o)
 .data          0x00000000        0x0 c:/program files/microchip/xc32/v3.01/bin/bin/../../lib/gcc/pic32c/8.3.1/thumb/v7e-m+dp/hard\libgcc.a(_dvmd_tls.o)
 .bss           0x00000000        0x0 c:/program files/microchip/xc32/v3.01/bin/bin/../../lib/gcc/pic32c/8.3.1/thumb/v7e-m+dp/hard\libgcc.a(_dvmd_tls.o)
 .xc_stack_usage.hdr
                0x00000000        0xe c:/program files/microchip/xc32/v3.01/bin/bin/../../lib/gcc/pic32c/8.3.1/thumb/v7e-m+dp/hard\libgcc.a(_dvmd_tls.o)
 .xc_stack_usage
                0x00000000       0x36 c:/program files/microchip/xc32/v3.01/bin/bin/../../lib/gcc/pic32c/8.3.1/thumb/v7e-m+dp/hard\libgcc.a(_dvmd_tls.o)
 .text          0x00000000        0x0 c:/program files/microchip/xc32/v3.01/bin/bin/../../lib/gcc/pic32c/8.3.1/../../../../pic32c/lib/thumb/v7e-m+dp/hard\libg_nano.a(lib_a-atof.o)
 .data          0x00000000        0x0 c:/program files/microchip/xc32/v3.01/bin/bin/../../lib/gcc/pic32c/8.3.1/../../../../pic32c/lib/thumb/v7e-m+dp/hard\libg_nano.a(lib_a-atof.o)
 .bss           0x00000000        0x0 c:/program files/microchip/xc32/v3.01/bin/bin/../../lib/gcc/pic32c/8.3.1/../../../../pic32c/lib/thumb/v7e-m+dp/hard\libg_nano.a(lib_a-atof.o)
 .xc_stack_usage
                0x00000000       0x12 c:/program files/microchip/xc32/v3.01/bin/bin/../../lib/gcc/pic32c/8.3.1/../../../../pic32c/lib/thumb/v7e-m+dp/hard\libg_nano.a(lib_a-atof.o)
 .xc_stack_usage.hdr
                0x00000000        0xe c:/program files/microchip/xc32/v3.01/bin/bin/../../lib/gcc/pic32c/8.3.1/../../../../pic32c/lib/thumb/v7e-m+dp/hard\libg_nano.a(lib_a-atof.o)
 .text          0x00000000        0x0 c:/program files/microchip/xc32/v3.01/bin/bin/../../lib/gcc/pic32c/8.3.1/../../../../pic32c/lib/thumb/v7e-m+dp/hard\libg_nano.a(lib_a-atoi.o)
 .data          0x00000000        0x0 c:/program files/microchip/xc32/v3.01/bin/bin/../../lib/gcc/pic32c/8.3.1/../../../../pic32c/lib/thumb/v7e-m+dp/hard\libg_nano.a(lib_a-atoi.o)
 .bss           0x00000000        0x0 c:/program files/microchip/xc32/v3.01/bin/bin/../../lib/gcc/pic32c/8.3.1/../../../../pic32c/lib/thumb/v7e-m+dp/hard\libg_nano.a(lib_a-atoi.o)
 .xc_stack_usage
                0x00000000       0x27 c:/program files/microchip/xc32/v3.01/bin/bin/../../lib/gcc/pic32c/8.3.1/../../../../pic32c/lib/thumb/v7e-m+dp/hard\libg_nano.a(lib_a-atoi.o)
 .text._atoi_r  0x00000000        0x8 c:/program files/microchip/xc32/v3.01/bin/bin/../../lib/gcc/pic32c/8.3.1/../../../../pic32c/lib/thumb/v7e-m+dp/hard\libg_nano.a(lib_a-atoi.o)
 .xc_stack_usage.hdr
                0x00000000        0xe c:/program files/microchip/xc32/v3.01/bin/bin/../../lib/gcc/pic32c/8.3.1/../../../../pic32c/lib/thumb/v7e-m+dp/hard\libg_nano.a(lib_a-atoi.o)
 .text          0x00000000        0x0 c:/program files/microchip/xc32/v3.01/bin/bin/../../lib/gcc/pic32c/8.3.1/../../../../pic32c/lib/thumb/v7e-m+dp/hard\libg_nano.a(lib_a-ctype_.o)
 .data          0x00000000        0x0 c:/program files/microchip/xc32/v3.01/bin/bin/../../lib/gcc/pic32c/8.3.1/../../../../pic32c/lib/thumb/v7e-m+dp/hard\libg_nano.a(lib_a-ctype_.o)
 .bss           0x00000000        0x0 c:/program files/microchip/xc32/v3.01/bin/bin/../../lib/gcc/pic32c/8.3.1/../../../../pic32c/lib/thumb/v7e-m+dp/hard\libg_nano.a(lib_a-ctype_.o)
 .xc_stack_usage.hdr
                0x00000000        0xe c:/program files/microchip/xc32/v3.01/bin/bin/../../lib/gcc/pic32c/8.3.1/../../../../pic32c/lib/thumb/v7e-m+dp/hard\libg_nano.a(lib_a-ctype_.o)
 .text          0x00000000        0x0 c:/program files/microchip/xc32/v3.01/bin/bin/../../lib/gcc/pic32c/8.3.1/../../../../pic32c/lib/thumb/v7e-m+dp/hard\libg_nano.a(lib_a-init.o)
 .data          0x00000000        0x0 c:/program files/microchip/xc32/v3.01/bin/bin/../../lib/gcc/pic32c/8.3.1/../../../../pic32c/lib/thumb/v7e-m+dp/hard\libg_nano.a(lib_a-init.o)
 .bss           0x00000000        0x0 c:/program files/microchip/xc32/v3.01/bin/bin/../../lib/gcc/pic32c/8.3.1/../../../../pic32c/lib/thumb/v7e-m+dp/hard\libg_nano.a(lib_a-init.o)
 .xc_stack_usage
                0x00000000       0x1f c:/program files/microchip/xc32/v3.01/bin/bin/../../lib/gcc/pic32c/8.3.1/../../../../pic32c/lib/thumb/v7e-m+dp/hard\libg_nano.a(lib_a-init.o)
 .xc_stack_usage.hdr
                0x00000000        0xe c:/program files/microchip/xc32/v3.01/bin/bin/../../lib/gcc/pic32c/8.3.1/../../../../pic32c/lib/thumb/v7e-m+dp/hard\libg_nano.a(lib_a-init.o)
 .text          0x00000000        0x0 c:/program files/microchip/xc32/v3.01/bin/bin/../../lib/gcc/pic32c/8.3.1/../../../../pic32c/lib/thumb/v7e-m+dp/hard\libg_nano.a(lib_a-itoa.o)
 .data          0x00000000        0x0 c:/program files/microchip/xc32/v3.01/bin/bin/../../lib/gcc/pic32c/8.3.1/../../../../pic32c/lib/thumb/v7e-m+dp/hard\libg_nano.a(lib_a-itoa.o)
 .bss           0x00000000        0x0 c:/program files/microchip/xc32/v3.01/bin/bin/../../lib/gcc/pic32c/8.3.1/../../../../pic32c/lib/thumb/v7e-m+dp/hard\libg_nano.a(lib_a-itoa.o)
 .xc_stack_usage
                0x00000000       0x26 c:/program files/microchip/xc32/v3.01/bin/bin/../../lib/gcc/pic32c/8.3.1/../../../../pic32c/lib/thumb/v7e-m+dp/hard\libg_nano.a(lib_a-itoa.o)
 .xc_stack_usage.hdr
                0x00000000        0xe c:/program files/microchip/xc32/v3.01/bin/bin/../../lib/gcc/pic32c/8.3.1/../../../../pic32c/lib/thumb/v7e-m+dp/hard\libg_nano.a(lib_a-itoa.o)
 .text          0x00000000        0x0 c:/program files/microchip/xc32/v3.01/bin/bin/../../lib/gcc/pic32c/8.3.1/../../../../pic32c/lib/thumb/v7e-m+dp/hard\libg_nano.a(lib_a-malloc.o)
 .data          0x00000000        0x0 c:/program files/microchip/xc32/v3.01/bin/bin/../../lib/gcc/pic32c/8.3.1/../../../../pic32c/lib/thumb/v7e-m+dp/hard\libg_nano.a(lib_a-malloc.o)
 .bss           0x00000000        0x0 c:/program files/microchip/xc32/v3.01/bin/bin/../../lib/gcc/pic32c/8.3.1/../../../../pic32c/lib/thumb/v7e-m+dp/hard\libg_nano.a(lib_a-malloc.o)
 .xc_stack_usage
                0x00000000       0x26 c:/program files/microchip/xc32/v3.01/bin/bin/../../lib/gcc/pic32c/8.3.1/../../../../pic32c/lib/thumb/v7e-m+dp/hard\libg_nano.a(lib_a-malloc.o)
 .text.free     0x00000000       0x10 c:/program files/microchip/xc32/v3.01/bin/bin/../../lib/gcc/pic32c/8.3.1/../../../../pic32c/lib/thumb/v7e-m+dp/hard\libg_nano.a(lib_a-malloc.o)
 .xc_stack_usage.hdr
                0x00000000        0xe c:/program files/microchip/xc32/v3.01/bin/bin/../../lib/gcc/pic32c/8.3.1/../../../../pic32c/lib/thumb/v7e-m+dp/hard\libg_nano.a(lib_a-malloc.o)
 .text          0x00000000        0x0 c:/program files/microchip/xc32/v3.01/bin/bin/../../lib/gcc/pic32c/8.3.1/../../../../pic32c/lib/thumb/v7e-m+dp/hard\libg_nano.a(lib_a-memcpy-stub.o)
 .data          0x00000000        0x0 c:/program files/microchip/xc32/v3.01/bin/bin/../../lib/gcc/pic32c/8.3.1/../../../../pic32c/lib/thumb/v7e-m+dp/hard\libg_nano.a(lib_a-memcpy-stub.o)
 .bss           0x00000000        0x0 c:/program files/microchip/xc32/v3.01/bin/bin/../../lib/gcc/pic32c/8.3.1/../../../../pic32c/lib/thumb/v7e-m+dp/hard\libg_nano.a(lib_a-memcpy-stub.o)
 .xc_stack_usage
                0x00000000       0x14 c:/program files/microchip/xc32/v3.01/bin/bin/../../lib/gcc/pic32c/8.3.1/../../../../pic32c/lib/thumb/v7e-m+dp/hard\libg_nano.a(lib_a-memcpy-stub.o)
 .xc_stack_usage.hdr
                0x00000000        0xe c:/program files/microchip/xc32/v3.01/bin/bin/../../lib/gcc/pic32c/8.3.1/../../../../pic32c/lib/thumb/v7e-m+dp/hard\libg_nano.a(lib_a-memcpy-stub.o)
 .text          0x00000000        0x0 c:/program files/microchip/xc32/v3.01/bin/bin/../../lib/gcc/pic32c/8.3.1/../../../../pic32c/lib/thumb/v7e-m+dp/hard\libg_nano.a(lib_a-memmove.o)
 .data          0x00000000        0x0 c:/program files/microchip/xc32/v3.01/bin/bin/../../lib/gcc/pic32c/8.3.1/../../../../pic32c/lib/thumb/v7e-m+dp/hard\libg_nano.a(lib_a-memmove.o)
 .bss           0x00000000        0x0 c:/program files/microchip/xc32/v3.01/bin/bin/../../lib/gcc/pic32c/8.3.1/../../../../pic32c/lib/thumb/v7e-m+dp/hard\libg_nano.a(lib_a-memmove.o)
 .xc_stack_usage
                0x00000000       0x15 c:/program files/microchip/xc32/v3.01/bin/bin/../../lib/gcc/pic32c/8.3.1/../../../../pic32c/lib/thumb/v7e-m+dp/hard\libg_nano.a(lib_a-memmove.o)
 .xc_stack_usage.hdr
                0x00000000        0xe c:/program files/microchip/xc32/v3.01/bin/bin/../../lib/gcc/pic32c/8.3.1/../../../../pic32c/lib/thumb/v7e-m+dp/hard\libg_nano.a(lib_a-memmove.o)
 .text          0x00000000        0x0 c:/program files/microchip/xc32/v3.01/bin/bin/../../lib/gcc/pic32c/8.3.1/../../../../pic32c/lib/thumb/v7e-m+dp/hard\libg_nano.a(lib_a-memset.o)
 .data          0x00000000        0x0 c:/program files/microchip/xc32/v3.01/bin/bin/../../lib/gcc/pic32c/8.3.1/../../../../pic32c/lib/thumb/v7e-m+dp/hard\libg_nano.a(lib_a-memset.o)
 .bss           0x00000000        0x0 c:/program files/microchip/xc32/v3.01/bin/bin/../../lib/gcc/pic32c/8.3.1/../../../../pic32c/lib/thumb/v7e-m+dp/hard\libg_nano.a(lib_a-memset.o)
 .xc_stack_usage
                0x00000000       0x14 c:/program files/microchip/xc32/v3.01/bin/bin/../../lib/gcc/pic32c/8.3.1/../../../../pic32c/lib/thumb/v7e-m+dp/hard\libg_nano.a(lib_a-memset.o)
 .xc_stack_usage.hdr
                0x00000000        0xe c:/program files/microchip/xc32/v3.01/bin/bin/../../lib/gcc/pic32c/8.3.1/../../../../pic32c/lib/thumb/v7e-m+dp/hard\libg_nano.a(lib_a-memset.o)
 .text          0x00000000        0x0 c:/program files/microchip/xc32/v3.01/bin/bin/../../lib/gcc/pic32c/8.3.1/../../../../pic32c/lib/thumb/v7e-m+dp/hard\libg_nano.a(lib_a-nano-freer.o)
 .data          0x00000000        0x0 c:/program files/microchip/xc32/v3.01/bin/bin/../../lib/gcc/pic32c/8.3.1/../../../../pic32c/lib/thumb/v7e-m+dp/hard\libg_nano.a(lib_a-nano-freer.o)
 .bss           0x00000000        0x0 c:/program files/microchip/xc32/v3.01/bin/bin/../../lib/gcc/pic32c/8.3.1/../../../../pic32c/lib/thumb/v7e-m+dp/hard\libg_nano.a(lib_a-nano-freer.o)
 .xc_stack_usage
                0x00000000       0x15 c:/program files/microchip/xc32/v3.01/bin/bin/../../lib/gcc/pic32c/8.3.1/../../../../pic32c/lib/thumb/v7e-m+dp/hard\libg_nano.a(lib_a-nano-freer.o)
 .text._free_r  0x00000000       0x9c c:/program files/microchip/xc32/v3.01/bin/bin/../../lib/gcc/pic32c/8.3.1/../../../../pic32c/lib/thumb/v7e-m+dp/hard\libg_nano.a(lib_a-nano-freer.o)
 .xc_stack_usage.hdr
                0x00000000        0xe c:/program files/microchip/xc32/v3.01/bin/bin/../../lib/gcc/pic32c/8.3.1/../../../../pic32c/lib/thumb/v7e-m+dp/hard\libg_nano.a(lib_a-nano-freer.o)
 .comment       0x00000000       0x54 c:/program files/microchip/xc32/v3.01/bin/bin/../../lib/gcc/pic32c/8.3.1/../../../../pic32c/lib/thumb/v7e-m+dp/hard\libg_nano.a(lib_a-nano-freer.o)
 .ARM.attributes
                0x00000000       0x32 c:/program files/microchip/xc32/v3.01/bin/bin/../../lib/gcc/pic32c/8.3.1/../../../../pic32c/lib/thumb/v7e-m+dp/hard\libg_nano.a(lib_a-nano-freer.o)
 .text          0x00000000        0x0 c:/program files/microchip/xc32/v3.01/bin/bin/../../lib/gcc/pic32c/8.3.1/../../../../pic32c/lib/thumb/v7e-m+dp/hard\libg_nano.a(lib_a-nano-mallocr.o)
 .data          0x00000000        0x0 c:/program files/microchip/xc32/v3.01/bin/bin/../../lib/gcc/pic32c/8.3.1/../../../../pic32c/lib/thumb/v7e-m+dp/hard\libg_nano.a(lib_a-nano-mallocr.o)
 .bss           0x00000000        0x0 c:/program files/microchip/xc32/v3.01/bin/bin/../../lib/gcc/pic32c/8.3.1/../../../../pic32c/lib/thumb/v7e-m+dp/hard\libg_nano.a(lib_a-nano-mallocr.o)
 .xc_stack_usage
                0x00000000       0x17 c:/program files/microchip/xc32/v3.01/bin/bin/../../lib/gcc/pic32c/8.3.1/../../../../pic32c/lib/thumb/v7e-m+dp/hard\libg_nano.a(lib_a-nano-mallocr.o)
 .xc_stack_usage.hdr
                0x00000000        0xe c:/program files/microchip/xc32/v3.01/bin/bin/../../lib/gcc/pic32c/8.3.1/../../../../pic32c/lib/thumb/v7e-m+dp/hard\libg_nano.a(lib_a-nano-mallocr.o)
 .text          0x00000000        0x0 c:/program files/microchip/xc32/v3.01/bin/bin/../../lib/gcc/pic32c/8.3.1/../../../../pic32c/lib/thumb/v7e-m+dp/hard\libg_nano.a(lib_a-sbrkr.o)
 .data          0x00000000        0x0 c:/program files/microchip/xc32/v3.01/bin/bin/../../lib/gcc/pic32c/8.3.1/../../../../pic32c/lib/thumb/v7e-m+dp/hard\libg_nano.a(lib_a-sbrkr.o)
 .bss           0x00000000        0x0 c:/program files/microchip/xc32/v3.01/bin/bin/../../lib/gcc/pic32c/8.3.1/../../../../pic32c/lib/thumb/v7e-m+dp/hard\libg_nano.a(lib_a-sbrkr.o)
 .xc_stack_usage
                0x00000000       0x15 c:/program files/microchip/xc32/v3.01/bin/bin/../../lib/gcc/pic32c/8.3.1/../../../../pic32c/lib/thumb/v7e-m+dp/hard\libg_nano.a(lib_a-sbrkr.o)
 .xc_stack_usage.hdr
                0x00000000        0xe c:/program files/microchip/xc32/v3.01/bin/bin/../../lib/gcc/pic32c/8.3.1/../../../../pic32c/lib/thumb/v7e-m+dp/hard\libg_nano.a(lib_a-sbrkr.o)
 .text          0x00000000        0x0 c:/program files/microchip/xc32/v3.01/bin/bin/../../lib/gcc/pic32c/8.3.1/../../../../pic32c/lib/thumb/v7e-m+dp/hard\libg_nano.a(lib_a-strchr.o)
 .data          0x00000000        0x0 c:/program files/microchip/xc32/v3.01/bin/bin/../../lib/gcc/pic32c/8.3.1/../../../../pic32c/lib/thumb/v7e-m+dp/hard\libg_nano.a(lib_a-strchr.o)
 .bss           0x00000000        0x0 c:/program files/microchip/xc32/v3.01/bin/bin/../../lib/gcc/pic32c/8.3.1/../../../../pic32c/lib/thumb/v7e-m+dp/hard\libg_nano.a(lib_a-strchr.o)
 .xc_stack_usage
                0x00000000       0x14 c:/program files/microchip/xc32/v3.01/bin/bin/../../lib/gcc/pic32c/8.3.1/../../../../pic32c/lib/thumb/v7e-m+dp/hard\libg_nano.a(lib_a-strchr.o)
 .xc_stack_usage.hdr
                0x00000000        0xe c:/program files/microchip/xc32/v3.01/bin/bin/../../lib/gcc/pic32c/8.3.1/../../../../pic32c/lib/thumb/v7e-m+dp/hard\libg_nano.a(lib_a-strchr.o)
 .text          0x00000000       0x14 c:/program files/microchip/xc32/v3.01/bin/bin/../../lib/gcc/pic32c/8.3.1/../../../../pic32c/lib/thumb/v7e-m+dp/hard\libg_nano.a(lib_a-strcmp.o)
 .data          0x00000000        0x0 c:/program files/microchip/xc32/v3.01/bin/bin/../../lib/gcc/pic32c/8.3.1/../../../../pic32c/lib/thumb/v7e-m+dp/hard\libg_nano.a(lib_a-strcmp.o)
 .bss           0x00000000        0x0 c:/program files/microchip/xc32/v3.01/bin/bin/../../lib/gcc/pic32c/8.3.1/../../../../pic32c/lib/thumb/v7e-m+dp/hard\libg_nano.a(lib_a-strcmp.o)
 .xc_stack_usage.hdr
                0x00000000        0xe c:/program files/microchip/xc32/v3.01/bin/bin/../../lib/gcc/pic32c/8.3.1/../../../../pic32c/lib/thumb/v7e-m+dp/hard\libg_nano.a(lib_a-strcmp.o)
 .xc_stack_usage
                0x00000000       0x14 c:/program files/microchip/xc32/v3.01/bin/bin/../../lib/gcc/pic32c/8.3.1/../../../../pic32c/lib/thumb/v7e-m+dp/hard\libg_nano.a(lib_a-strcmp.o)
 .debug_frame   0x00000000       0x20 c:/program files/microchip/xc32/v3.01/bin/bin/../../lib/gcc/pic32c/8.3.1/../../../../pic32c/lib/thumb/v7e-m+dp/hard\libg_nano.a(lib_a-strcmp.o)
 .ARM.attributes
                0x00000000       0x1c c:/program files/microchip/xc32/v3.01/bin/bin/../../lib/gcc/pic32c/8.3.1/../../../../pic32c/lib/thumb/v7e-m+dp/hard\libg_nano.a(lib_a-strcmp.o)
 .text          0x00000000        0x0 c:/program files/microchip/xc32/v3.01/bin/bin/../../lib/gcc/pic32c/8.3.1/../../../../pic32c/lib/thumb/v7e-m+dp/hard\libg_nano.a(lib_a-strcpy.o)
 .data          0x00000000        0x0 c:/program files/microchip/xc32/v3.01/bin/bin/../../lib/gcc/pic32c/8.3.1/../../../../pic32c/lib/thumb/v7e-m+dp/hard\libg_nano.a(lib_a-strcpy.o)
 .bss           0x00000000        0x0 c:/program files/microchip/xc32/v3.01/bin/bin/../../lib/gcc/pic32c/8.3.1/../../../../pic32c/lib/thumb/v7e-m+dp/hard\libg_nano.a(lib_a-strcpy.o)
 .xc_stack_usage
                0x00000000       0x14 c:/program files/microchip/xc32/v3.01/bin/bin/../../lib/gcc/pic32c/8.3.1/../../../../pic32c/lib/thumb/v7e-m+dp/hard\libg_nano.a(lib_a-strcpy.o)
 .xc_stack_usage.hdr
                0x00000000        0xe c:/program files/microchip/xc32/v3.01/bin/bin/../../lib/gcc/pic32c/8.3.1/../../../../pic32c/lib/thumb/v7e-m+dp/hard\libg_nano.a(lib_a-strcpy.o)
 .data          0x00000000        0x0 c:/program files/microchip/xc32/v3.01/bin/bin/../../lib/gcc/pic32c/8.3.1/../../../../pic32c/lib/thumb/v7e-m+dp/hard\libg_nano.a(lib_a-strlen.o)
 .bss           0x00000000        0x0 c:/program files/microchip/xc32/v3.01/bin/bin/../../lib/gcc/pic32c/8.3.1/../../../../pic32c/lib/thumb/v7e-m+dp/hard\libg_nano.a(lib_a-strlen.o)
 .xc_stack_usage.hdr
                0x00000000        0xe c:/program files/microchip/xc32/v3.01/bin/bin/../../lib/gcc/pic32c/8.3.1/../../../../pic32c/lib/thumb/v7e-m+dp/hard\libg_nano.a(lib_a-strlen.o)
 .xc_stack_usage
                0x00000000       0x14 c:/program files/microchip/xc32/v3.01/bin/bin/../../lib/gcc/pic32c/8.3.1/../../../../pic32c/lib/thumb/v7e-m+dp/hard\libg_nano.a(lib_a-strlen.o)
 .text          0x00000000        0x0 c:/program files/microchip/xc32/v3.01/bin/bin/../../lib/gcc/pic32c/8.3.1/../../../../pic32c/lib/thumb/v7e-m+dp/hard\libg_nano.a(lib_a-strncmp.o)
 .data          0x00000000        0x0 c:/program files/microchip/xc32/v3.01/bin/bin/../../lib/gcc/pic32c/8.3.1/../../../../pic32c/lib/thumb/v7e-m+dp/hard\libg_nano.a(lib_a-strncmp.o)
 .bss           0x00000000        0x0 c:/program files/microchip/xc32/v3.01/bin/bin/../../lib/gcc/pic32c/8.3.1/../../../../pic32c/lib/thumb/v7e-m+dp/hard\libg_nano.a(lib_a-strncmp.o)
 .xc_stack_usage
                0x00000000       0x15 c:/program files/microchip/xc32/v3.01/bin/bin/../../lib/gcc/pic32c/8.3.1/../../../../pic32c/lib/thumb/v7e-m+dp/hard\libg_nano.a(lib_a-strncmp.o)
 .xc_stack_usage.hdr
                0x00000000        0xe c:/program files/microchip/xc32/v3.01/bin/bin/../../lib/gcc/pic32c/8.3.1/../../../../pic32c/lib/thumb/v7e-m+dp/hard\libg_nano.a(lib_a-strncmp.o)
 .text          0x00000000        0x0 c:/program files/microchip/xc32/v3.01/bin/bin/../../lib/gcc/pic32c/8.3.1/../../../../pic32c/lib/thumb/v7e-m+dp/hard\libg_nano.a(lib_a-strncpy.o)
 .data          0x00000000        0x0 c:/program files/microchip/xc32/v3.01/bin/bin/../../lib/gcc/pic32c/8.3.1/../../../../pic32c/lib/thumb/v7e-m+dp/hard\libg_nano.a(lib_a-strncpy.o)
 .bss           0x00000000        0x0 c:/program files/microchip/xc32/v3.01/bin/bin/../../lib/gcc/pic32c/8.3.1/../../../../pic32c/lib/thumb/v7e-m+dp/hard\libg_nano.a(lib_a-strncpy.o)
 .xc_stack_usage
                0x00000000       0x15 c:/program files/microchip/xc32/v3.01/bin/bin/../../lib/gcc/pic32c/8.3.1/../../../../pic32c/lib/thumb/v7e-m+dp/hard\libg_nano.a(lib_a-strncpy.o)
 .xc_stack_usage.hdr
                0x00000000        0xe c:/program files/microchip/xc32/v3.01/bin/bin/../../lib/gcc/pic32c/8.3.1/../../../../pic32c/lib/thumb/v7e-m+dp/hard\libg_nano.a(lib_a-strncpy.o)
 .text          0x00000000        0x0 c:/program files/microchip/xc32/v3.01/bin/bin/../../lib/gcc/pic32c/8.3.1/../../../../pic32c/lib/thumb/v7e-m+dp/hard\libg_nano.a(lib_a-strtod.o)
 .data          0x00000000        0x0 c:/program files/microchip/xc32/v3.01/bin/bin/../../lib/gcc/pic32c/8.3.1/../../../../pic32c/lib/thumb/v7e-m+dp/hard\libg_nano.a(lib_a-strtod.o)
 .bss           0x00000000        0x0 c:/program files/microchip/xc32/v3.01/bin/bin/../../lib/gcc/pic32c/8.3.1/../../../../pic32c/lib/thumb/v7e-m+dp/hard\libg_nano.a(lib_a-strtod.o)
 .xc_stack_usage
                0x00000000       0x94 c:/program files/microchip/xc32/v3.01/bin/bin/../../lib/gcc/pic32c/8.3.1/../../../../pic32c/lib/thumb/v7e-m+dp/hard\libg_nano.a(lib_a-strtod.o)
 .text._strtod_r
                0x00000000        0xc c:/program files/microchip/xc32/v3.01/bin/bin/../../lib/gcc/pic32c/8.3.1/../../../../pic32c/lib/thumb/v7e-m+dp/hard\libg_nano.a(lib_a-strtod.o)
 .text.strtod_l
                0x00000000       0x14 c:/program files/microchip/xc32/v3.01/bin/bin/../../lib/gcc/pic32c/8.3.1/../../../../pic32c/lib/thumb/v7e-m+dp/hard\libg_nano.a(lib_a-strtod.o)
 .text.strtof_l
                0x00000000       0x84 c:/program files/microchip/xc32/v3.01/bin/bin/../../lib/gcc/pic32c/8.3.1/../../../../pic32c/lib/thumb/v7e-m+dp/hard\libg_nano.a(lib_a-strtod.o)
 .text.strtof   0x00000000       0x88 c:/program files/microchip/xc32/v3.01/bin/bin/../../lib/gcc/pic32c/8.3.1/../../../../pic32c/lib/thumb/v7e-m+dp/hard\libg_nano.a(lib_a-strtod.o)
 .xc_stack_usage.hdr
                0x00000000        0xe c:/program files/microchip/xc32/v3.01/bin/bin/../../lib/gcc/pic32c/8.3.1/../../../../pic32c/lib/thumb/v7e-m+dp/hard\libg_nano.a(lib_a-strtod.o)
 .text          0x00000000        0x0 c:/program files/microchip/xc32/v3.01/bin/bin/../../lib/gcc/pic32c/8.3.1/../../../../pic32c/lib/thumb/v7e-m+dp/hard\libg_nano.a(lib_a-strtol.o)
 .data          0x00000000        0x0 c:/program files/microchip/xc32/v3.01/bin/bin/../../lib/gcc/pic32c/8.3.1/../../../../pic32c/lib/thumb/v7e-m+dp/hard\libg_nano.a(lib_a-strtol.o)
 .bss           0x00000000        0x0 c:/program files/microchip/xc32/v3.01/bin/bin/../../lib/gcc/pic32c/8.3.1/../../../../pic32c/lib/thumb/v7e-m+dp/hard\libg_nano.a(lib_a-strtol.o)
 .xc_stack_usage
                0x00000000       0x5f c:/program files/microchip/xc32/v3.01/bin/bin/../../lib/gcc/pic32c/8.3.1/../../../../pic32c/lib/thumb/v7e-m+dp/hard\libg_nano.a(lib_a-strtol.o)
 .text._strtol_r
                0x00000000        0x4 c:/program files/microchip/xc32/v3.01/bin/bin/../../lib/gcc/pic32c/8.3.1/../../../../pic32c/lib/thumb/v7e-m+dp/hard\libg_nano.a(lib_a-strtol.o)
 .text.strtol_l
                0x00000000       0x14 c:/program files/microchip/xc32/v3.01/bin/bin/../../lib/gcc/pic32c/8.3.1/../../../../pic32c/lib/thumb/v7e-m+dp/hard\libg_nano.a(lib_a-strtol.o)
 .xc_stack_usage.hdr
                0x00000000        0xe c:/program files/microchip/xc32/v3.01/bin/bin/../../lib/gcc/pic32c/8.3.1/../../../../pic32c/lib/thumb/v7e-m+dp/hard\libg_nano.a(lib_a-strtol.o)
 .text          0x00000000        0x0 c:/program files/microchip/xc32/v3.01/bin/bin/../../lib/gcc/pic32c/8.3.1/../../../../pic32c/lib/thumb/v7e-m+dp/hard\libg_nano.a(lib_a-utoa.o)
 .data          0x00000000        0x0 c:/program files/microchip/xc32/v3.01/bin/bin/../../lib/gcc/pic32c/8.3.1/../../../../pic32c/lib/thumb/v7e-m+dp/hard\libg_nano.a(lib_a-utoa.o)
 .bss           0x00000000        0x0 c:/program files/microchip/xc32/v3.01/bin/bin/../../lib/gcc/pic32c/8.3.1/../../../../pic32c/lib/thumb/v7e-m+dp/hard\libg_nano.a(lib_a-utoa.o)
 .xc_stack_usage
                0x00000000       0x26 c:/program files/microchip/xc32/v3.01/bin/bin/../../lib/gcc/pic32c/8.3.1/../../../../pic32c/lib/thumb/v7e-m+dp/hard\libg_nano.a(lib_a-utoa.o)
 .text.utoa     0x00000000        0x4 c:/program files/microchip/xc32/v3.01/bin/bin/../../lib/gcc/pic32c/8.3.1/../../../../pic32c/lib/thumb/v7e-m+dp/hard\libg_nano.a(lib_a-utoa.o)
 .xc_stack_usage.hdr
                0x00000000        0xe c:/program files/microchip/xc32/v3.01/bin/bin/../../lib/gcc/pic32c/8.3.1/../../../../pic32c/lib/thumb/v7e-m+dp/hard\libg_nano.a(lib_a-utoa.o)
 .text          0x00000000        0x0 c:/program files/microchip/xc32/v3.01/bin/bin/../../lib/gcc/pic32c/8.3.1/../../../../pic32c/lib/thumb/v7e-m+dp/hard\libg_nano.a(lib_a-gdtoa-gethex.o)
 .data          0x00000000        0x0 c:/program files/microchip/xc32/v3.01/bin/bin/../../lib/gcc/pic32c/8.3.1/../../../../pic32c/lib/thumb/v7e-m+dp/hard\libg_nano.a(lib_a-gdtoa-gethex.o)
 .bss           0x00000000        0x0 c:/program files/microchip/xc32/v3.01/bin/bin/../../lib/gcc/pic32c/8.3.1/../../../../pic32c/lib/thumb/v7e-m+dp/hard\libg_nano.a(lib_a-gdtoa-gethex.o)
 .xc_stack_usage
                0x00000000       0x44 c:/program files/microchip/xc32/v3.01/bin/bin/../../lib/gcc/pic32c/8.3.1/../../../../pic32c/lib/thumb/v7e-m+dp/hard\libg_nano.a(lib_a-gdtoa-gethex.o)
 .xc_stack_usage.hdr
                0x00000000        0xe c:/program files/microchip/xc32/v3.01/bin/bin/../../lib/gcc/pic32c/8.3.1/../../../../pic32c/lib/thumb/v7e-m+dp/hard\libg_nano.a(lib_a-gdtoa-gethex.o)
 .text          0x00000000        0x0 c:/program files/microchip/xc32/v3.01/bin/bin/../../lib/gcc/pic32c/8.3.1/../../../../pic32c/lib/thumb/v7e-m+dp/hard\libg_nano.a(lib_a-gdtoa-hexnan.o)
 .data          0x00000000        0x0 c:/program files/microchip/xc32/v3.01/bin/bin/../../lib/gcc/pic32c/8.3.1/../../../../pic32c/lib/thumb/v7e-m+dp/hard\libg_nano.a(lib_a-gdtoa-hexnan.o)
 .bss           0x00000000        0x0 c:/program files/microchip/xc32/v3.01/bin/bin/../../lib/gcc/pic32c/8.3.1/../../../../pic32c/lib/thumb/v7e-m+dp/hard\libg_nano.a(lib_a-gdtoa-hexnan.o)
 .xc_stack_usage
                0x00000000       0x40 c:/program files/microchip/xc32/v3.01/bin/bin/../../lib/gcc/pic32c/8.3.1/../../../../pic32c/lib/thumb/v7e-m+dp/hard\libg_nano.a(lib_a-gdtoa-hexnan.o)
 .xc_stack_usage.hdr
                0x00000000        0xe c:/program files/microchip/xc32/v3.01/bin/bin/../../lib/gcc/pic32c/8.3.1/../../../../pic32c/lib/thumb/v7e-m+dp/hard\libg_nano.a(lib_a-gdtoa-hexnan.o)
 .text          0x00000000        0x0 c:/program files/microchip/xc32/v3.01/bin/bin/../../lib/gcc/pic32c/8.3.1/../../../../pic32c/lib/thumb/v7e-m+dp/hard\libg_nano.a(lib_a-impure.o)
 .data          0x00000000        0x0 c:/program files/microchip/xc32/v3.01/bin/bin/../../lib/gcc/pic32c/8.3.1/../../../../pic32c/lib/thumb/v7e-m+dp/hard\libg_nano.a(lib_a-impure.o)
 .bss           0x00000000        0x0 c:/program files/microchip/xc32/v3.01/bin/bin/../../lib/gcc/pic32c/8.3.1/../../../../pic32c/lib/thumb/v7e-m+dp/hard\libg_nano.a(lib_a-impure.o)
 .rodata._global_impure_ptr
                0x00000000        0x4 c:/program files/microchip/xc32/v3.01/bin/bin/../../lib/gcc/pic32c/8.3.1/../../../../pic32c/lib/thumb/v7e-m+dp/hard\libg_nano.a(lib_a-impure.o)
 .xc_stack_usage.hdr
                0x00000000        0xe c:/program files/microchip/xc32/v3.01/bin/bin/../../lib/gcc/pic32c/8.3.1/../../../../pic32c/lib/thumb/v7e-m+dp/hard\libg_nano.a(lib_a-impure.o)
 .text          0x00000000        0x0 c:/program files/microchip/xc32/v3.01/bin/bin/../../lib/gcc/pic32c/8.3.1/../../../../pic32c/lib/thumb/v7e-m+dp/hard\libg_nano.a(lib_a-lnumeric.o)
 .data          0x00000000        0x0 c:/program files/microchip/xc32/v3.01/bin/bin/../../lib/gcc/pic32c/8.3.1/../../../../pic32c/lib/thumb/v7e-m+dp/hard\libg_nano.a(lib_a-lnumeric.o)
 .bss           0x00000000        0x0 c:/program files/microchip/xc32/v3.01/bin/bin/../../lib/gcc/pic32c/8.3.1/../../../../pic32c/lib/thumb/v7e-m+dp/hard\libg_nano.a(lib_a-lnumeric.o)
 .xc_stack_usage
                0x00000000       0x23 c:/program files/microchip/xc32/v3.01/bin/bin/../../lib/gcc/pic32c/8.3.1/../../../../pic32c/lib/thumb/v7e-m+dp/hard\libg_nano.a(lib_a-lnumeric.o)
 .text.__numeric_load_locale
                0x00000000        0x4 c:/program files/microchip/xc32/v3.01/bin/bin/../../lib/gcc/pic32c/8.3.1/../../../../pic32c/lib/thumb/v7e-m+dp/hard\libg_nano.a(lib_a-lnumeric.o)
 .xc_stack_usage.hdr
                0x00000000        0xe c:/program files/microchip/xc32/v3.01/bin/bin/../../lib/gcc/pic32c/8.3.1/../../../../pic32c/lib/thumb/v7e-m+dp/hard\libg_nano.a(lib_a-lnumeric.o)
 .text          0x00000000        0x0 c:/program files/microchip/xc32/v3.01/bin/bin/../../lib/gcc/pic32c/8.3.1/../../../../pic32c/lib/thumb/v7e-m+dp/hard\libg_nano.a(lib_a-locale.o)
 .data          0x00000000        0x0 c:/program files/microchip/xc32/v3.01/bin/bin/../../lib/gcc/pic32c/8.3.1/../../../../pic32c/lib/thumb/v7e-m+dp/hard\libg_nano.a(lib_a-locale.o)
 .bss           0x00000000        0x0 c:/program files/microchip/xc32/v3.01/bin/bin/../../lib/gcc/pic32c/8.3.1/../../../../pic32c/lib/thumb/v7e-m+dp/hard\libg_nano.a(lib_a-locale.o)
 .xc_stack_usage
                0x00000000       0x52 c:/program files/microchip/xc32/v3.01/bin/bin/../../lib/gcc/pic32c/8.3.1/../../../../pic32c/lib/thumb/v7e-m+dp/hard\libg_nano.a(lib_a-locale.o)
 .text._setlocale_r
                0x00000000       0x40 c:/program files/microchip/xc32/v3.01/bin/bin/../../lib/gcc/pic32c/8.3.1/../../../../pic32c/lib/thumb/v7e-m+dp/hard\libg_nano.a(lib_a-locale.o)
 .text.__locale_mb_cur_max
                0x00000000        0xc c:/program files/microchip/xc32/v3.01/bin/bin/../../lib/gcc/pic32c/8.3.1/../../../../pic32c/lib/thumb/v7e-m+dp/hard\libg_nano.a(lib_a-locale.o)
 .text.setlocale
                0x00000000       0x10 c:/program files/microchip/xc32/v3.01/bin/bin/../../lib/gcc/pic32c/8.3.1/../../../../pic32c/lib/thumb/v7e-m+dp/hard\libg_nano.a(lib_a-locale.o)
 .bss._PathLocale
                0x00000000        0x4 c:/program files/microchip/xc32/v3.01/bin/bin/../../lib/gcc/pic32c/8.3.1/../../../../pic32c/lib/thumb/v7e-m+dp/hard\libg_nano.a(lib_a-locale.o)
 .xc_stack_usage.hdr
                0x00000000        0xe c:/program files/microchip/xc32/v3.01/bin/bin/../../lib/gcc/pic32c/8.3.1/../../../../pic32c/lib/thumb/v7e-m+dp/hard\libg_nano.a(lib_a-locale.o)
 .text          0x00000000        0x0 c:/program files/microchip/xc32/v3.01/bin/bin/../../lib/gcc/pic32c/8.3.1/../../../../pic32c/lib/thumb/v7e-m+dp/hard\libg_nano.a(lib_a-mbtowc_r.o)
 .data          0x00000000        0x0 c:/program files/microchip/xc32/v3.01/bin/bin/../../lib/gcc/pic32c/8.3.1/../../../../pic32c/lib/thumb/v7e-m+dp/hard\libg_nano.a(lib_a-mbtowc_r.o)
 .bss           0x00000000        0x0 c:/program files/microchip/xc32/v3.01/bin/bin/../../lib/gcc/pic32c/8.3.1/../../../../pic32c/lib/thumb/v7e-m+dp/hard\libg_nano.a(lib_a-mbtowc_r.o)
 .xc_stack_usage
                0x00000000       0x33 c:/program files/microchip/xc32/v3.01/bin/bin/../../lib/gcc/pic32c/8.3.1/../../../../pic32c/lib/thumb/v7e-m+dp/hard\libg_nano.a(lib_a-mbtowc_r.o)
 .text._mbtowc_r
                0x00000000       0x14 c:/program files/microchip/xc32/v3.01/bin/bin/../../lib/gcc/pic32c/8.3.1/../../../../pic32c/lib/thumb/v7e-m+dp/hard\libg_nano.a(lib_a-mbtowc_r.o)
 .xc_stack_usage.hdr
                0x00000000        0xe c:/program files/microchip/xc32/v3.01/bin/bin/../../lib/gcc/pic32c/8.3.1/../../../../pic32c/lib/thumb/v7e-m+dp/hard\libg_nano.a(lib_a-mbtowc_r.o)
 .text          0x00000000        0x0 c:/program files/microchip/xc32/v3.01/bin/bin/../../lib/gcc/pic32c/8.3.1/../../../../pic32c/lib/thumb/v7e-m+dp/hard\libg_nano.a(lib_a-mlock.o)
 .data          0x00000000        0x0 c:/program files/microchip/xc32/v3.01/bin/bin/../../lib/gcc/pic32c/8.3.1/../../../../pic32c/lib/thumb/v7e-m+dp/hard\libg_nano.a(lib_a-mlock.o)
 .bss           0x00000000        0x0 c:/program files/microchip/xc32/v3.01/bin/bin/../../lib/gcc/pic32c/8.3.1/../../../../pic32c/lib/thumb/v7e-m+dp/hard\libg_nano.a(lib_a-mlock.o)
 .xc_stack_usage
                0x00000000       0x38 c:/program files/microchip/xc32/v3.01/bin/bin/../../lib/gcc/pic32c/8.3.1/../../../../pic32c/lib/thumb/v7e-m+dp/hard\libg_nano.a(lib_a-mlock.o)
 .xc_stack_usage.hdr
                0x00000000        0xe c:/program files/microchip/xc32/v3.01/bin/bin/../../lib/gcc/pic32c/8.3.1/../../../../pic32c/lib/thumb/v7e-m+dp/hard\libg_nano.a(lib_a-mlock.o)
 .text          0x00000000        0x0 c:/program files/microchip/xc32/v3.01/bin/bin/../../lib/gcc/pic32c/8.3.1/../../../../pic32c/lib/thumb/v7e-m+dp/hard\libg_nano.a(lib_a-mprec.o)
 .data          0x00000000        0x0 c:/program files/microchip/xc32/v3.01/bin/bin/../../lib/gcc/pic32c/8.3.1/../../../../pic32c/lib/thumb/v7e-m+dp/hard\libg_nano.a(lib_a-mprec.o)
 .bss           0x00000000        0x0 c:/program files/microchip/xc32/v3.01/bin/bin/../../lib/gcc/pic32c/8.3.1/../../../../pic32c/lib/thumb/v7e-m+dp/hard\libg_nano.a(lib_a-mprec.o)
 .xc_stack_usage
                0x00000000      0x199 c:/program files/microchip/xc32/v3.01/bin/bin/../../lib/gcc/pic32c/8.3.1/../../../../pic32c/lib/thumb/v7e-m+dp/hard\libg_nano.a(lib_a-mprec.o)
 .text._mprec_log10
                0x00000000       0x28 c:/program files/microchip/xc32/v3.01/bin/bin/../../lib/gcc/pic32c/8.3.1/../../../../pic32c/lib/thumb/v7e-m+dp/hard\libg_nano.a(lib_a-mprec.o)
 .rodata.__mprec_tinytens
                0x00000000       0x28 c:/program files/microchip/xc32/v3.01/bin/bin/../../lib/gcc/pic32c/8.3.1/../../../../pic32c/lib/thumb/v7e-m+dp/hard\libg_nano.a(lib_a-mprec.o)
 .xc_stack_usage.hdr
                0x00000000        0xe c:/program files/microchip/xc32/v3.01/bin/bin/../../lib/gcc/pic32c/8.3.1/../../../../pic32c/lib/thumb/v7e-m+dp/hard\libg_nano.a(lib_a-mprec.o)
 .text          0x00000000        0x0 c:/program files/microchip/xc32/v3.01/bin/bin/../../lib/gcc/pic32c/8.3.1/../../../../pic32c/lib/thumb/v7e-m+dp/hard\libg_nano.a(lib_a-nano-callocr.o)
 .data          0x00000000        0x0 c:/program files/microchip/xc32/v3.01/bin/bin/../../lib/gcc/pic32c/8.3.1/../../../../pic32c/lib/thumb/v7e-m+dp/hard\libg_nano.a(lib_a-nano-callocr.o)
 .bss           0x00000000        0x0 c:/program files/microchip/xc32/v3.01/bin/bin/../../lib/gcc/pic32c/8.3.1/../../../../pic32c/lib/thumb/v7e-m+dp/hard\libg_nano.a(lib_a-nano-callocr.o)
 .xc_stack_usage
                0x00000000       0x17 c:/program files/microchip/xc32/v3.01/bin/bin/../../lib/gcc/pic32c/8.3.1/../../../../pic32c/lib/thumb/v7e-m+dp/hard\libg_nano.a(lib_a-nano-callocr.o)
 .xc_stack_usage.hdr
                0x00000000        0xe c:/program files/microchip/xc32/v3.01/bin/bin/../../lib/gcc/pic32c/8.3.1/../../../../pic32c/lib/thumb/v7e-m+dp/hard\libg_nano.a(lib_a-nano-callocr.o)
 .text          0x00000000        0x0 c:/program files/microchip/xc32/v3.01/bin/bin/../../lib/gcc/pic32c/8.3.1/../../../../pic32c/lib/thumb/v7e-m+dp/hard\libg_nano.a(lib_a-reent.o)
 .data          0x00000000        0x0 c:/program files/microchip/xc32/v3.01/bin/bin/../../lib/gcc/pic32c/8.3.1/../../../../pic32c/lib/thumb/v7e-m+dp/hard\libg_nano.a(lib_a-reent.o)
 .bss           0x00000000        0x0 c:/program files/microchip/xc32/v3.01/bin/bin/../../lib/gcc/pic32c/8.3.1/../../../../pic32c/lib/thumb/v7e-m+dp/hard\libg_nano.a(lib_a-reent.o)
 .xc_stack_usage
                0x00000000       0x36 c:/program files/microchip/xc32/v3.01/bin/bin/../../lib/gcc/pic32c/8.3.1/../../../../pic32c/lib/thumb/v7e-m+dp/hard\libg_nano.a(lib_a-reent.o)
 .text.cleanup_glue
                0x00000000       0x1a c:/program files/microchip/xc32/v3.01/bin/bin/../../lib/gcc/pic32c/8.3.1/../../../../pic32c/lib/thumb/v7e-m+dp/hard\libg_nano.a(lib_a-reent.o)
 .text._reclaim_reent
                0x00000000       0xb8 c:/program files/microchip/xc32/v3.01/bin/bin/../../lib/gcc/pic32c/8.3.1/../../../../pic32c/lib/thumb/v7e-m+dp/hard\libg_nano.a(lib_a-reent.o)
 .xc_stack_usage.hdr
                0x00000000        0xe c:/program files/microchip/xc32/v3.01/bin/bin/../../lib/gcc/pic32c/8.3.1/../../../../pic32c/lib/thumb/v7e-m+dp/hard\libg_nano.a(lib_a-reent.o)
 .text          0x00000000        0x0 c:/program files/microchip/xc32/v3.01/bin/bin/../../lib/gcc/pic32c/8.3.1/../../../../pic32c/lib/thumb/v7e-m+dp/hard\libg_nano.a(lib_a-s_nan.o)
 .data          0x00000000        0x0 c:/program files/microchip/xc32/v3.01/bin/bin/../../lib/gcc/pic32c/8.3.1/../../../../pic32c/lib/thumb/v7e-m+dp/hard\libg_nano.a(lib_a-s_nan.o)
 .bss           0x00000000        0x0 c:/program files/microchip/xc32/v3.01/bin/bin/../../lib/gcc/pic32c/8.3.1/../../../../pic32c/lib/thumb/v7e-m+dp/hard\libg_nano.a(lib_a-s_nan.o)
 .xc_stack_usage
                0x00000000       0x11 c:/program files/microchip/xc32/v3.01/bin/bin/../../lib/gcc/pic32c/8.3.1/../../../../pic32c/lib/thumb/v7e-m+dp/hard\libg_nano.a(lib_a-s_nan.o)
 .xc_stack_usage.hdr
                0x00000000        0xe c:/program files/microchip/xc32/v3.01/bin/bin/../../lib/gcc/pic32c/8.3.1/../../../../pic32c/lib/thumb/v7e-m+dp/hard\libg_nano.a(lib_a-s_nan.o)
 .text          0x00000000        0x0 c:/program files/microchip/xc32/v3.01/bin/bin/../../lib/gcc/pic32c/8.3.1/../../../../pic32c/lib/thumb/v7e-m+dp/hard\libg_nano.a(lib_a-sf_nan.o)
 .data          0x00000000        0x0 c:/program files/microchip/xc32/v3.01/bin/bin/../../lib/gcc/pic32c/8.3.1/../../../../pic32c/lib/thumb/v7e-m+dp/hard\libg_nano.a(lib_a-sf_nan.o)
 .bss           0x00000000        0x0 c:/program files/microchip/xc32/v3.01/bin/bin/../../lib/gcc/pic32c/8.3.1/../../../../pic32c/lib/thumb/v7e-m+dp/hard\libg_nano.a(lib_a-sf_nan.o)
 .xc_stack_usage
                0x00000000       0x12 c:/program files/microchip/xc32/v3.01/bin/bin/../../lib/gcc/pic32c/8.3.1/../../../../pic32c/lib/thumb/v7e-m+dp/hard\libg_nano.a(lib_a-sf_nan.o)
 .text.nanf     0x00000000        0xc c:/program files/microchip/xc32/v3.01/bin/bin/../../lib/gcc/pic32c/8.3.1/../../../../pic32c/lib/thumb/v7e-m+dp/hard\libg_nano.a(lib_a-sf_nan.o)
 .xc_stack_usage.hdr
                0x00000000        0xe c:/program files/microchip/xc32/v3.01/bin/bin/../../lib/gcc/pic32c/8.3.1/../../../../pic32c/lib/thumb/v7e-m+dp/hard\libg_nano.a(lib_a-sf_nan.o)
 .comment       0x00000000       0x54 c:/program files/microchip/xc32/v3.01/bin/bin/../../lib/gcc/pic32c/8.3.1/../../../../pic32c/lib/thumb/v7e-m+dp/hard\libg_nano.a(lib_a-sf_nan.o)
 .ARM.attributes
                0x00000000       0x32 c:/program files/microchip/xc32/v3.01/bin/bin/../../lib/gcc/pic32c/8.3.1/../../../../pic32c/lib/thumb/v7e-m+dp/hard\libg_nano.a(lib_a-sf_nan.o)
 .text          0x00000000        0x0 c:/program files/microchip/xc32/v3.01/bin/bin/../../lib/gcc/pic32c/8.3.1/../../../../pic32c/lib/thumb/v7e-m+dp/hard\libg_nano.a(lib_a-wctomb_r.o)
 .data          0x00000000        0x0 c:/program files/microchip/xc32/v3.01/bin/bin/../../lib/gcc/pic32c/8.3.1/../../../../pic32c/lib/thumb/v7e-m+dp/hard\libg_nano.a(lib_a-wctomb_r.o)
 .bss           0x00000000        0x0 c:/program files/microchip/xc32/v3.01/bin/bin/../../lib/gcc/pic32c/8.3.1/../../../../pic32c/lib/thumb/v7e-m+dp/hard\libg_nano.a(lib_a-wctomb_r.o)
 .xc_stack_usage
                0x00000000       0x33 c:/program files/microchip/xc32/v3.01/bin/bin/../../lib/gcc/pic32c/8.3.1/../../../../pic32c/lib/thumb/v7e-m+dp/hard\libg_nano.a(lib_a-wctomb_r.o)
 .text._wctomb_r
                0x00000000       0x14 c:/program files/microchip/xc32/v3.01/bin/bin/../../lib/gcc/pic32c/8.3.1/../../../../pic32c/lib/thumb/v7e-m+dp/hard\libg_nano.a(lib_a-wctomb_r.o)
 .xc_stack_usage.hdr
                0x00000000        0xe c:/program files/microchip/xc32/v3.01/bin/bin/../../lib/gcc/pic32c/8.3.1/../../../../pic32c/lib/thumb/v7e-m+dp/hard\libg_nano.a(lib_a-wctomb_r.o)
 .text          0x00000000        0x0 c:/program files/microchip/xc32/v3.01/bin/bin/../../lib/gcc/pic32c/8.3.1/../../../../pic32c/lib/thumb/v7e-m+dp/hard\libm_nano.a(lib_a-s_cos.o)
 .data          0x00000000        0x0 c:/program files/microchip/xc32/v3.01/bin/bin/../../lib/gcc/pic32c/8.3.1/../../../../pic32c/lib/thumb/v7e-m+dp/hard\libm_nano.a(lib_a-s_cos.o)
 .bss           0x00000000        0x0 c:/program files/microchip/xc32/v3.01/bin/bin/../../lib/gcc/pic32c/8.3.1/../../../../pic32c/lib/thumb/v7e-m+dp/hard\libm_nano.a(lib_a-s_cos.o)
 .xc_stack_usage
                0x00000000       0x11 c:/program files/microchip/xc32/v3.01/bin/bin/../../lib/gcc/pic32c/8.3.1/../../../../pic32c/lib/thumb/v7e-m+dp/hard\libm_nano.a(lib_a-s_cos.o)
 .xc_stack_usage.hdr
                0x00000000        0xe c:/program files/microchip/xc32/v3.01/bin/bin/../../lib/gcc/pic32c/8.3.1/../../../../pic32c/lib/thumb/v7e-m+dp/hard\libm_nano.a(lib_a-s_cos.o)
 .text          0x00000000        0x0 c:/program files/microchip/xc32/v3.01/bin/bin/../../lib/gcc/pic32c/8.3.1/../../../../pic32c/lib/thumb/v7e-m+dp/hard\libm_nano.a(lib_a-s_sin.o)
 .data          0x00000000        0x0 c:/program files/microchip/xc32/v3.01/bin/bin/../../lib/gcc/pic32c/8.3.1/../../../../pic32c/lib/thumb/v7e-m+dp/hard\libm_nano.a(lib_a-s_sin.o)
 .bss           0x00000000        0x0 c:/program files/microchip/xc32/v3.01/bin/bin/../../lib/gcc/pic32c/8.3.1/../../../../pic32c/lib/thumb/v7e-m+dp/hard\libm_nano.a(lib_a-s_sin.o)
 .xc_stack_usage
                0x00000000       0x11 c:/program files/microchip/xc32/v3.01/bin/bin/../../lib/gcc/pic32c/8.3.1/../../../../pic32c/lib/thumb/v7e-m+dp/hard\libm_nano.a(lib_a-s_sin.o)
 .xc_stack_usage.hdr
                0x00000000        0xe c:/program files/microchip/xc32/v3.01/bin/bin/../../lib/gcc/pic32c/8.3.1/../../../../pic32c/lib/thumb/v7e-m+dp/hard\libm_nano.a(lib_a-s_sin.o)
 .text          0x00000000        0x0 c:/program files/microchip/xc32/v3.01/bin/bin/../../lib/gcc/pic32c/8.3.1/../../../../pic32c/lib/thumb/v7e-m+dp/hard\libm_nano.a(lib_a-w_atan2.o)
 .data          0x00000000        0x0 c:/program files/microchip/xc32/v3.01/bin/bin/../../lib/gcc/pic32c/8.3.1/../../../../pic32c/lib/thumb/v7e-m+dp/hard\libm_nano.a(lib_a-w_atan2.o)
 .bss           0x00000000        0x0 c:/program files/microchip/xc32/v3.01/bin/bin/../../lib/gcc/pic32c/8.3.1/../../../../pic32c/lib/thumb/v7e-m+dp/hard\libm_nano.a(lib_a-w_atan2.o)
 .xc_stack_usage
                0x00000000       0x13 c:/program files/microchip/xc32/v3.01/bin/bin/../../lib/gcc/pic32c/8.3.1/../../../../pic32c/lib/thumb/v7e-m+dp/hard\libm_nano.a(lib_a-w_atan2.o)
 .xc_stack_usage.hdr
                0x00000000        0xe c:/program files/microchip/xc32/v3.01/bin/bin/../../lib/gcc/pic32c/8.3.1/../../../../pic32c/lib/thumb/v7e-m+dp/hard\libm_nano.a(lib_a-w_atan2.o)
 .text          0x00000000        0x0 c:/program files/microchip/xc32/v3.01/bin/bin/../../lib/gcc/pic32c/8.3.1/../../../../pic32c/lib/thumb/v7e-m+dp/hard\libm_nano.a(lib_a-w_sqrt.o)
 .data          0x00000000        0x0 c:/program files/microchip/xc32/v3.01/bin/bin/../../lib/gcc/pic32c/8.3.1/../../../../pic32c/lib/thumb/v7e-m+dp/hard\libm_nano.a(lib_a-w_sqrt.o)
 .bss           0x00000000        0x0 c:/program files/microchip/xc32/v3.01/bin/bin/../../lib/gcc/pic32c/8.3.1/../../../../pic32c/lib/thumb/v7e-m+dp/hard\libm_nano.a(lib_a-w_sqrt.o)
 .xc_stack_usage
                0x00000000       0x12 c:/program files/microchip/xc32/v3.01/bin/bin/../../lib/gcc/pic32c/8.3.1/../../../../pic32c/lib/thumb/v7e-m+dp/hard\libm_nano.a(lib_a-w_sqrt.o)
 .xc_stack_usage.hdr
                0x00000000        0xe c:/program files/microchip/xc32/v3.01/bin/bin/../../lib/gcc/pic32c/8.3.1/../../../../pic32c/lib/thumb/v7e-m+dp/hard\libm_nano.a(lib_a-w_sqrt.o)
 .text          0x00000000        0x0 c:/program files/microchip/xc32/v3.01/bin/bin/../../lib/gcc/pic32c/8.3.1/../../../../pic32c/lib/thumb/v7e-m+dp/hard\libm_nano.a(lib_a-e_atan2.o)
 .data          0x00000000        0x0 c:/program files/microchip/xc32/v3.01/bin/bin/../../lib/gcc/pic32c/8.3.1/../../../../pic32c/lib/thumb/v7e-m+dp/hard\libm_nano.a(lib_a-e_atan2.o)
 .bss           0x00000000        0x0 c:/program files/microchip/xc32/v3.01/bin/bin/../../lib/gcc/pic32c/8.3.1/../../../../pic32c/lib/thumb/v7e-m+dp/hard\libm_nano.a(lib_a-e_atan2.o)
 .xc_stack_usage
                0x00000000       0x1d c:/program files/microchip/xc32/v3.01/bin/bin/../../lib/gcc/pic32c/8.3.1/../../../../pic32c/lib/thumb/v7e-m+dp/hard\libm_nano.a(lib_a-e_atan2.o)
 .xc_stack_usage.hdr
                0x00000000        0xe c:/program files/microchip/xc32/v3.01/bin/bin/../../lib/gcc/pic32c/8.3.1/../../../../pic32c/lib/thumb/v7e-m+dp/hard\libm_nano.a(lib_a-e_atan2.o)
 .text          0x00000000        0x0 c:/program files/microchip/xc32/v3.01/bin/bin/../../lib/gcc/pic32c/8.3.1/../../../../pic32c/lib/thumb/v7e-m+dp/hard\libm_nano.a(lib_a-e_rem_pio2.o)
 .data          0x00000000        0x0 c:/program files/microchip/xc32/v3.01/bin/bin/../../lib/gcc/pic32c/8.3.1/../../../../pic32c/lib/thumb/v7e-m+dp/hard\libm_nano.a(lib_a-e_rem_pio2.o)
 .bss           0x00000000        0x0 c:/program files/microchip/xc32/v3.01/bin/bin/../../lib/gcc/pic32c/8.3.1/../../../../pic32c/lib/thumb/v7e-m+dp/hard\libm_nano.a(lib_a-e_rem_pio2.o)
 .xc_stack_usage
                0x00000000       0x20 c:/program files/microchip/xc32/v3.01/bin/bin/../../lib/gcc/pic32c/8.3.1/../../../../pic32c/lib/thumb/v7e-m+dp/hard\libm_nano.a(lib_a-e_rem_pio2.o)
 .xc_stack_usage.hdr
                0x00000000        0xe c:/program files/microchip/xc32/v3.01/bin/bin/../../lib/gcc/pic32c/8.3.1/../../../../pic32c/lib/thumb/v7e-m+dp/hard\libm_nano.a(lib_a-e_rem_pio2.o)
 .text          0x00000000        0x0 c:/program files/microchip/xc32/v3.01/bin/bin/../../lib/gcc/pic32c/8.3.1/../../../../pic32c/lib/thumb/v7e-m+dp/hard\libm_nano.a(lib_a-e_sqrt.o)
 .data          0x00000000        0x0 c:/program files/microchip/xc32/v3.01/bin/bin/../../lib/gcc/pic32c/8.3.1/../../../../pic32c/lib/thumb/v7e-m+dp/hard\libm_nano.a(lib_a-e_sqrt.o)
 .bss           0x00000000        0x0 c:/program files/microchip/xc32/v3.01/bin/bin/../../lib/gcc/pic32c/8.3.1/../../../../pic32c/lib/thumb/v7e-m+dp/hard\libm_nano.a(lib_a-e_sqrt.o)
 .xc_stack_usage
                0x00000000       0x1c c:/program files/microchip/xc32/v3.01/bin/bin/../../lib/gcc/pic32c/8.3.1/../../../../pic32c/lib/thumb/v7e-m+dp/hard\libm_nano.a(lib_a-e_sqrt.o)
 .xc_stack_usage.hdr
                0x00000000        0xe c:/program files/microchip/xc32/v3.01/bin/bin/../../lib/gcc/pic32c/8.3.1/../../../../pic32c/lib/thumb/v7e-m+dp/hard\libm_nano.a(lib_a-e_sqrt.o)
 .text          0x00000000        0x0 c:/program files/microchip/xc32/v3.01/bin/bin/../../lib/gcc/pic32c/8.3.1/../../../../pic32c/lib/thumb/v7e-m+dp/hard\libm_nano.a(lib_a-k_cos.o)
 .data          0x00000000        0x0 c:/program files/microchip/xc32/v3.01/bin/bin/../../lib/gcc/pic32c/8.3.1/../../../../pic32c/lib/thumb/v7e-m+dp/hard\libm_nano.a(lib_a-k_cos.o)
 .bss           0x00000000        0x0 c:/program files/microchip/xc32/v3.01/bin/bin/../../lib/gcc/pic32c/8.3.1/../../../../pic32c/lib/thumb/v7e-m+dp/hard\libm_nano.a(lib_a-k_cos.o)
 .xc_stack_usage
                0x00000000       0x1a c:/program files/microchip/xc32/v3.01/bin/bin/../../lib/gcc/pic32c/8.3.1/../../../../pic32c/lib/thumb/v7e-m+dp/hard\libm_nano.a(lib_a-k_cos.o)
 .xc_stack_usage.hdr
                0x00000000        0xe c:/program files/microchip/xc32/v3.01/bin/bin/../../lib/gcc/pic32c/8.3.1/../../../../pic32c/lib/thumb/v7e-m+dp/hard\libm_nano.a(lib_a-k_cos.o)
 .text          0x00000000        0x0 c:/program files/microchip/xc32/v3.01/bin/bin/../../lib/gcc/pic32c/8.3.1/../../../../pic32c/lib/thumb/v7e-m+dp/hard\libm_nano.a(lib_a-k_rem_pio2.o)
 .data          0x00000000        0x0 c:/program files/microchip/xc32/v3.01/bin/bin/../../lib/gcc/pic32c/8.3.1/../../../../pic32c/lib/thumb/v7e-m+dp/hard\libm_nano.a(lib_a-k_rem_pio2.o)
 .bss           0x00000000        0x0 c:/program files/microchip/xc32/v3.01/bin/bin/../../lib/gcc/pic32c/8.3.1/../../../../pic32c/lib/thumb/v7e-m+dp/hard\libm_nano.a(lib_a-k_rem_pio2.o)
 .xc_stack_usage
                0x00000000       0x1f c:/program files/microchip/xc32/v3.01/bin/bin/../../lib/gcc/pic32c/8.3.1/../../../../pic32c/lib/thumb/v7e-m+dp/hard\libm_nano.a(lib_a-k_rem_pio2.o)
 .xc_stack_usage.hdr
                0x00000000        0xe c:/program files/microchip/xc32/v3.01/bin/bin/../../lib/gcc/pic32c/8.3.1/../../../../pic32c/lib/thumb/v7e-m+dp/hard\libm_nano.a(lib_a-k_rem_pio2.o)
 .text          0x00000000        0x0 c:/program files/microchip/xc32/v3.01/bin/bin/../../lib/gcc/pic32c/8.3.1/../../../../pic32c/lib/thumb/v7e-m+dp/hard\libm_nano.a(lib_a-k_sin.o)
 .data          0x00000000        0x0 c:/program files/microchip/xc32/v3.01/bin/bin/../../lib/gcc/pic32c/8.3.1/../../../../pic32c/lib/thumb/v7e-m+dp/hard\libm_nano.a(lib_a-k_sin.o)
 .bss           0x00000000        0x0 c:/program files/microchip/xc32/v3.01/bin/bin/../../lib/gcc/pic32c/8.3.1/../../../../pic32c/lib/thumb/v7e-m+dp/hard\libm_nano.a(lib_a-k_sin.o)
 .xc_stack_usage
                0x00000000       0x1a c:/program files/microchip/xc32/v3.01/bin/bin/../../lib/gcc/pic32c/8.3.1/../../../../pic32c/lib/thumb/v7e-m+dp/hard\libm_nano.a(lib_a-k_sin.o)
 .xc_stack_usage.hdr
                0x00000000        0xe c:/program files/microchip/xc32/v3.01/bin/bin/../../lib/gcc/pic32c/8.3.1/../../../../pic32c/lib/thumb/v7e-m+dp/hard\libm_nano.a(lib_a-k_sin.o)
 .text          0x00000000        0x0 c:/program files/microchip/xc32/v3.01/bin/bin/../../lib/gcc/pic32c/8.3.1/../../../../pic32c/lib/thumb/v7e-m+dp/hard\libm_nano.a(lib_a-s_atan.o)
 .data          0x00000000        0x0 c:/program files/microchip/xc32/v3.01/bin/bin/../../lib/gcc/pic32c/8.3.1/../../../../pic32c/lib/thumb/v7e-m+dp/hard\libm_nano.a(lib_a-s_atan.o)
 .bss           0x00000000        0x0 c:/program files/microchip/xc32/v3.01/bin/bin/../../lib/gcc/pic32c/8.3.1/../../../../pic32c/lib/thumb/v7e-m+dp/hard\libm_nano.a(lib_a-s_atan.o)
 .xc_stack_usage
                0x00000000       0x12 c:/program files/microchip/xc32/v3.01/bin/bin/../../lib/gcc/pic32c/8.3.1/../../../../pic32c/lib/thumb/v7e-m+dp/hard\libm_nano.a(lib_a-s_atan.o)
 .xc_stack_usage.hdr
                0x00000000        0xe c:/program files/microchip/xc32/v3.01/bin/bin/../../lib/gcc/pic32c/8.3.1/../../../../pic32c/lib/thumb/v7e-m+dp/hard\libm_nano.a(lib_a-s_atan.o)
 .text          0x00000000        0x0 c:/program files/microchip/xc32/v3.01/bin/bin/../../lib/gcc/pic32c/8.3.1/../../../../pic32c/lib/thumb/v7e-m+dp/hard\libm_nano.a(lib_a-s_fabs.o)
 .data          0x00000000        0x0 c:/program files/microchip/xc32/v3.01/bin/bin/../../lib/gcc/pic32c/8.3.1/../../../../pic32c/lib/thumb/v7e-m+dp/hard\libm_nano.a(lib_a-s_fabs.o)
 .bss           0x00000000        0x0 c:/program files/microchip/xc32/v3.01/bin/bin/../../lib/gcc/pic32c/8.3.1/../../../../pic32c/lib/thumb/v7e-m+dp/hard\libm_nano.a(lib_a-s_fabs.o)
 .xc_stack_usage
                0x00000000       0x12 c:/program files/microchip/xc32/v3.01/bin/bin/../../lib/gcc/pic32c/8.3.1/../../../../pic32c/lib/thumb/v7e-m+dp/hard\libm_nano.a(lib_a-s_fabs.o)
 .xc_stack_usage.hdr
                0x00000000        0xe c:/program files/microchip/xc32/v3.01/bin/bin/../../lib/gcc/pic32c/8.3.1/../../../../pic32c/lib/thumb/v7e-m+dp/hard\libm_nano.a(lib_a-s_fabs.o)
 .text          0x00000000        0x0 c:/program files/microchip/xc32/v3.01/bin/bin/../../lib/gcc/pic32c/8.3.1/../../../../pic32c/lib/thumb/v7e-m+dp/hard\libm_nano.a(lib_a-s_floor.o)
 .data          0x00000000        0x0 c:/program files/microchip/xc32/v3.01/bin/bin/../../lib/gcc/pic32c/8.3.1/../../../../pic32c/lib/thumb/v7e-m+dp/hard\libm_nano.a(lib_a-s_floor.o)
 .bss           0x00000000        0x0 c:/program files/microchip/xc32/v3.01/bin/bin/../../lib/gcc/pic32c/8.3.1/../../../../pic32c/lib/thumb/v7e-m+dp/hard\libm_nano.a(lib_a-s_floor.o)
 .xc_stack_usage
                0x00000000       0x13 c:/program files/microchip/xc32/v3.01/bin/bin/../../lib/gcc/pic32c/8.3.1/../../../../pic32c/lib/thumb/v7e-m+dp/hard\libm_nano.a(lib_a-s_floor.o)
 .xc_stack_usage.hdr
                0x00000000        0xe c:/program files/microchip/xc32/v3.01/bin/bin/../../lib/gcc/pic32c/8.3.1/../../../../pic32c/lib/thumb/v7e-m+dp/hard\libm_nano.a(lib_a-s_floor.o)
 .text          0x00000000        0x0 c:/program files/microchip/xc32/v3.01/bin/bin/../../lib/gcc/pic32c/8.3.1/../../../../pic32c/lib/thumb/v7e-m+dp/hard\libm_nano.a(lib_a-s_lib_ver.o)
 .data          0x00000000        0x0 c:/program files/microchip/xc32/v3.01/bin/bin/../../lib/gcc/pic32c/8.3.1/../../../../pic32c/lib/thumb/v7e-m+dp/hard\libm_nano.a(lib_a-s_lib_ver.o)
 .bss           0x00000000        0x0 c:/program files/microchip/xc32/v3.01/bin/bin/../../lib/gcc/pic32c/8.3.1/../../../../pic32c/lib/thumb/v7e-m+dp/hard\libm_nano.a(lib_a-s_lib_ver.o)
 .xc_stack_usage.hdr
                0x00000000        0xe c:/program files/microchip/xc32/v3.01/bin/bin/../../lib/gcc/pic32c/8.3.1/../../../../pic32c/lib/thumb/v7e-m+dp/hard\libm_nano.a(lib_a-s_lib_ver.o)
 .text          0x00000000        0x0 c:/program files/microchip/xc32/v3.01/bin/bin/../../lib/gcc/pic32c/8.3.1/../../../../pic32c/lib/thumb/v7e-m+dp/hard\libm_nano.a(lib_a-s_scalbn.o)
 .data          0x00000000        0x0 c:/program files/microchip/xc32/v3.01/bin/bin/../../lib/gcc/pic32c/8.3.1/../../../../pic32c/lib/thumb/v7e-m+dp/hard\libm_nano.a(lib_a-s_scalbn.o)
 .bss           0x00000000        0x0 c:/program files/microchip/xc32/v3.01/bin/bin/../../lib/gcc/pic32c/8.3.1/../../../../pic32c/lib/thumb/v7e-m+dp/hard\libm_nano.a(lib_a-s_scalbn.o)
 .xc_stack_usage
                0x00000000       0x14 c:/program files/microchip/xc32/v3.01/bin/bin/../../lib/gcc/pic32c/8.3.1/../../../../pic32c/lib/thumb/v7e-m+dp/hard\libm_nano.a(lib_a-s_scalbn.o)
 .xc_stack_usage.hdr
                0x00000000        0xe c:/program files/microchip/xc32/v3.01/bin/bin/../../lib/gcc/pic32c/8.3.1/../../../../pic32c/lib/thumb/v7e-m+dp/hard\libm_nano.a(lib_a-s_scalbn.o)
 .text          0x00000000        0x0 c:/program files/microchip/xc32/v3.01/bin/bin/../../lib/gcc/pic32c/8.3.1/../../../../pic32c/lib/thumb/v7e-m+dp/hard\libc_nano.a(lib_a-errno.o)
 .data          0x00000000        0x0 c:/program files/microchip/xc32/v3.01/bin/bin/../../lib/gcc/pic32c/8.3.1/../../../../pic32c/lib/thumb/v7e-m+dp/hard\libc_nano.a(lib_a-errno.o)
 .bss           0x00000000        0x0 c:/program files/microchip/xc32/v3.01/bin/bin/../../lib/gcc/pic32c/8.3.1/../../../../pic32c/lib/thumb/v7e-m+dp/hard\libc_nano.a(lib_a-errno.o)
 .xc_stack_usage
                0x00000000       0x15 c:/program files/microchip/xc32/v3.01/bin/bin/../../lib/gcc/pic32c/8.3.1/../../../../pic32c/lib/thumb/v7e-m+dp/hard\libc_nano.a(lib_a-errno.o)
 .xc_stack_usage.hdr
                0x00000000        0xe c:/program files/microchip/xc32/v3.01/bin/bin/../../lib/gcc/pic32c/8.3.1/../../../../pic32c/lib/thumb/v7e-m+dp/hard\libc_nano.a(lib_a-errno.o)
 .text          0x00000000        0x0 c:/program files/microchip/xc32/v3.01/bin/bin/../../lib/gcc/pic32c/8.3.1/../../../../pic32c/lib/thumb/v7e-m+dp/hard\libpic32c.a(sbrk.o)
 .data          0x00000000        0x0 c:/program files/microchip/xc32/v3.01/bin/bin/../../lib/gcc/pic32c/8.3.1/../../../../pic32c/lib/thumb/v7e-m+dp/hard\libpic32c.a(sbrk.o)
 .xc_stack_usage
                0x00000000       0x13 c:/program files/microchip/xc32/v3.01/bin/bin/../../lib/gcc/pic32c/8.3.1/../../../../pic32c/lib/thumb/v7e-m+dp/hard\libpic32c.a(sbrk.o)
 .xc_stack_usage.hdr
                0x00000000        0xe c:/program files/microchip/xc32/v3.01/bin/bin/../../lib/gcc/pic32c/8.3.1/../../../../pic32c/lib/thumb/v7e-m+dp/hard\libpic32c.a(sbrk.o)
 .data          0x00000000        0x0 c:/program files/microchip/xc32/v3.01/bin/bin/../../lib/gcc/pic32c/8.3.1/thumb/v7e-m+dp/hard\libgcc.a(_arm_addsubdf3.o)
 .bss           0x00000000        0x0 c:/program files/microchip/xc32/v3.01/bin/bin/../../lib/gcc/pic32c/8.3.1/thumb/v7e-m+dp/hard\libgcc.a(_arm_addsubdf3.o)
 .xc_stack_usage.hdr
                0x00000000        0xe c:/program files/microchip/xc32/v3.01/bin/bin/../../lib/gcc/pic32c/8.3.1/thumb/v7e-m+dp/hard\libgcc.a(_arm_addsubdf3.o)
 .xc_stack_usage
                0x00000000       0xca c:/program files/microchip/xc32/v3.01/bin/bin/../../lib/gcc/pic32c/8.3.1/thumb/v7e-m+dp/hard\libgcc.a(_arm_addsubdf3.o)
 .data          0x00000000        0x0 c:/program files/microchip/xc32/v3.01/bin/bin/../../lib/gcc/pic32c/8.3.1/thumb/v7e-m+dp/hard\libgcc.a(_fixdfdi.o)
 .bss           0x00000000        0x0 c:/program files/microchip/xc32/v3.01/bin/bin/../../lib/gcc/pic32c/8.3.1/thumb/v7e-m+dp/hard\libgcc.a(_fixdfdi.o)
 .xc_stack_usage
                0x00000000       0x17 c:/program files/microchip/xc32/v3.01/bin/bin/../../lib/gcc/pic32c/8.3.1/thumb/v7e-m+dp/hard\libgcc.a(_fixdfdi.o)
 .xc_stack_usage.hdr
                0x00000000        0xe c:/program files/microchip/xc32/v3.01/bin/bin/../../lib/gcc/pic32c/8.3.1/thumb/v7e-m+dp/hard\libgcc.a(_fixdfdi.o)
 .data          0x00000000        0x0 c:/program files/microchip/xc32/v3.01/bin/bin/../../lib/gcc/pic32c/8.3.1/thumb/v7e-m+dp/hard\libgcc.a(_fixunsdfdi.o)
 .bss           0x00000000        0x0 c:/program files/microchip/xc32/v3.01/bin/bin/../../lib/gcc/pic32c/8.3.1/thumb/v7e-m+dp/hard\libgcc.a(_fixunsdfdi.o)
 .xc_stack_usage
                0x00000000       0x1a c:/program files/microchip/xc32/v3.01/bin/bin/../../lib/gcc/pic32c/8.3.1/thumb/v7e-m+dp/hard\libgcc.a(_fixunsdfdi.o)
 .xc_stack_usage.hdr
                0x00000000        0xe c:/program files/microchip/xc32/v3.01/bin/bin/../../lib/gcc/pic32c/8.3.1/thumb/v7e-m+dp/hard\libgcc.a(_fixunsdfdi.o)
 .text          0x00000000        0x0 c:/program files/microchip/xc32/v3.01/bin/bin/../../lib/gcc/pic32c/8.3.1/thumb/v7e-m+dp/hard/crtend.o
 .data          0x00000000        0x0 c:/program files/microchip/xc32/v3.01/bin/bin/../../lib/gcc/pic32c/8.3.1/thumb/v7e-m+dp/hard/crtend.o
 .bss           0x00000000        0x0 c:/program files/microchip/xc32/v3.01/bin/bin/../../lib/gcc/pic32c/8.3.1/thumb/v7e-m+dp/hard/crtend.o
 .eh_frame      0x00000000        0x4 c:/program files/microchip/xc32/v3.01/bin/bin/../../lib/gcc/pic32c/8.3.1/thumb/v7e-m+dp/hard/crtend.o
 .xc_stack_usage.hdr
                0x00000000        0xe c:/program files/microchip/xc32/v3.01/bin/bin/../../lib/gcc/pic32c/8.3.1/thumb/v7e-m+dp/hard/crtend.o
 .comment       0x00000000       0x54 c:/program files/microchip/xc32/v3.01/bin/bin/../../lib/gcc/pic32c/8.3.1/thumb/v7e-m+dp/hard/crtend.o
 .ARM.attributes
                0x00000000       0x30 c:/program files/microchip/xc32/v3.01/bin/bin/../../lib/gcc/pic32c/8.3.1/thumb/v7e-m+dp/hard/crtend.o
 .text          0x00000000        0x0 c:/program files/microchip/xc32/v3.01/bin/bin/../../lib/gcc/pic32c/8.3.1/thumb/v7e-m+dp/hard/crtn.o
 .data          0x00000000        0x0 c:/program files/microchip/xc32/v3.01/bin/bin/../../lib/gcc/pic32c/8.3.1/thumb/v7e-m+dp/hard/crtn.o
 .bss           0x00000000        0x0 c:/program files/microchip/xc32/v3.01/bin/bin/../../lib/gcc/pic32c/8.3.1/thumb/v7e-m+dp/hard/crtn.o
 .xc_stack_usage.hdr
                0x00000000        0xe c:/program files/microchip/xc32/v3.01/bin/bin/../../lib/gcc/pic32c/8.3.1/thumb/v7e-m+dp/hard/crtn.o

Memory Configuration

Name             Origin             Length             Attributes
rom              0x00400000         0x00200000         xrl
ram              0x20400000         0x00060000         xw !r
itcm             0x00000000         0x00000000         xw
dtcm             0x20000000         0x00000000         xw !r
config_D0000000  0xd0000000         0x00000004
config_D0000008  0xd0000008         0x00000004
config_D0000004  0xd0000004         0x00000004
config_D000000C  0xd000000c         0x00000004
config_D0000010  0xd0000010         0x00000004
*default*        0x00000000         0xffffffff

Linker script and memory map

LOAD c:/program files/microchip/xc32/v3.01/bin/bin/../../lib/gcc/pic32c/8.3.1/thumb/v7e-m+dp/hard/crti.o
LOAD c:/program files/microchip/xc32/v3.01/bin/bin/../../lib/gcc/pic32c/8.3.1/thumb/v7e-m+dp/hard/crtbegin.o
LOAD build/sam_e70_xult/debug/_ext/957281314/drv_i2c.o
LOAD build/sam_e70_xult/debug/_ext/1565510230/drv_sdmmc_file_system.o
LOAD build/sam_e70_xult/debug/_ext/1565510230/drv_sdmmc.o
LOAD build/sam_e70_xult/debug/_ext/716655881/drv_usart.o
LOAD build/sam_e70_xult/debug/_ext/1613695899/osal_freertos.o
LOAD build/sam_e70_xult/debug/_ext/1055500827/plib_clk.o
LOAD build/sam_e70_xult/debug/_ext/1055499099/plib_efc.o
LOAD build/sam_e70_xult/debug/_ext/719181653/plib_hsmci.o
LOAD build/sam_e70_xult/debug/_ext/1639550079/plib_nvic.o
LOAD build/sam_e70_xult/debug/_ext/1055488423/plib_pio.o
LOAD build/sam_e70_xult/debug/_ext/1055487991/plib_pwm0.o
LOAD build/sam_e70_xult/debug/_ext/865331892/plib_tc3.o
LOAD build/sam_e70_xult/debug/_ext/1539215101/plib_twihs0_master.o
LOAD build/sam_e70_xult/debug/_ext/707186936/plib_usart1.o
LOAD build/sam_e70_xult/debug/_ext/707186936/plib_usart0.o
LOAD build/sam_e70_xult/debug/_ext/707186936/plib_usart2.o
LOAD build/sam_e70_xult/debug/_ext/704852250/plib_xdmac.o
LOAD build/sam_e70_xult/debug/_ext/1518761459/xc32_monitor.o
LOAD build/sam_e70_xult/debug/_ext/876653320/sys_cache.o
LOAD build/sam_e70_xult/debug/_ext/984150034/sys_dma.o
LOAD build/sam_e70_xult/debug/_ext/1043829778/ff.o
LOAD build/sam_e70_xult/debug/_ext/1043829778/ffunicode.o
LOAD build/sam_e70_xult/debug/_ext/1893760823/diskio.o
LOAD build/sam_e70_xult/debug/_ext/1305476372/sys_fs.o
LOAD build/sam_e70_xult/debug/_ext/1305476372/sys_fs_media_manager.o
LOAD build/sam_e70_xult/debug/_ext/1305476372/sys_fs_fat_interface.o
LOAD build/sam_e70_xult/debug/_ext/766002106/sys_int.o
LOAD build/sam_e70_xult/debug/_ext/327803284/sys_time.o
LOAD build/sam_e70_xult/debug/_ext/1728594169/initialization.o
LOAD build/sam_e70_xult/debug/_ext/1728594169/interrupts.o
LOAD build/sam_e70_xult/debug/_ext/1728594169/exceptions.o
LOAD build/sam_e70_xult/debug/_ext/1728594169/startup_xc32.o
LOAD build/sam_e70_xult/debug/_ext/1728594169/libc_syscalls.o
LOAD build/sam_e70_xult/debug/_ext/1728594169/freertos_hooks.o
LOAD build/sam_e70_xult/debug/_ext/1728594169/tasks.o
LOAD build/sam_e70_xult/debug/_ext/977623654/port.o
LOAD build/sam_e70_xult/debug/_ext/1665200909/heap_1.o
LOAD build/sam_e70_xult/debug/_ext/404212886/croutine.o
LOAD build/sam_e70_xult/debug/_ext/404212886/list.o
LOAD build/sam_e70_xult/debug/_ext/404212886/queue.o
LOAD build/sam_e70_xult/debug/_ext/404212886/FreeRTOS_tasks.o
LOAD build/sam_e70_xult/debug/_ext/404212886/timers.o
LOAD build/sam_e70_xult/debug/_ext/404212886/event_groups.o
LOAD build/sam_e70_xult/debug/_ext/404212886/stream_buffer.o
LOAD build/sam_e70_xult/debug/_ext/1360937237/main.o
LOAD build/sam_e70_xult/debug/_ext/1360937237/app_communication.o
LOAD build/sam_e70_xult/debug/_ext/1360937237/app_mast_control.o
LOAD build/sam_e70_xult/debug/_ext/1360937237/app_course_algorithm.o
LOAD build/sam_e70_xult/debug/_ext/1360937237/app_rudder_control.o
LOAD build/sam_e70_xult/debug/_ext/1360937237/app_anemometer.o
LOAD build/sam_e70_xult/debug/_ext/1360937237/app_gps.o
LOAD build/sam_e70_xult/debug/_ext/1360937237/app_imu.o
                0x00000001                __MPLAB_BUILD = 0x1
                0x00600000                __rom_end = (ORIGIN (rom) + LENGTH (rom))
                0x20460000                __ram_end = (ORIGIN (ram) + LENGTH (ram))

.config_D0000000
                0xd0000000        0x4
 *(.config_D0000000)
 .config_D0000000
                0xd0000000        0x4 build/sam_e70_xult/debug/_ext/1728594169/initialization.o
                0xd0000000                __config_D0000000

.config_D0000008
 *(.config_D0000008)

.config_D0000004
 *(.config_D0000004)

.config_D000000C
 *(.config_D000000C)

.config_D0000010
 *(.config_D0000010)

.vectors        0x00400000      0x168
                0x00400000                . = ALIGN (0x4)
                0x00400000                _sfixed = .
 *(.vectors .vectors.* .vectors_default .vectors_default.*)
 .vectors       0x00400000      0x168 build/sam_e70_xult/debug/_ext/1728594169/interrupts.o
                0x00400000                exception_table
 *(.isr_vector)
 *(.reset*)
 *(.after_vectors)

.text           0x00400168       0x20
                0x00400168                . = ALIGN (0x4)
 *(.glue_7t)
 .glue_7t       0x00400168        0x0 linker stubs
 *(.glue_7)
 .glue_7        0x00400168        0x0 linker stubs
 *(.gnu.linkonce.r.*)
 *(.ARM.extab* .gnu.linkonce.armextab.*)
                0x00400168                . = ALIGN (0x4)
 *(.init)
 .init          0x00400168        0x4 c:/program files/microchip/xc32/v3.01/bin/bin/../../lib/gcc/pic32c/8.3.1/thumb/v7e-m+dp/hard/crti.o
                0x00400168                _init
 .init          0x0040016c        0x8 c:/program files/microchip/xc32/v3.01/bin/bin/../../lib/gcc/pic32c/8.3.1/thumb/v7e-m+dp/hard/crtn.o
                0x00400174                . = ALIGN (0x4)
                0x00400174                __preinit_array_start = .
 *(.preinit_array)
                0x00400174                __preinit_array_end = .
                0x00400174                . = ALIGN (0x4)
                0x00400174                __init_array_start = .
 *(SORT_BY_NAME(.init_array.*))
 *(.init_array)
 .init_array    0x00400174        0x4 c:/program files/microchip/xc32/v3.01/bin/bin/../../lib/gcc/pic32c/8.3.1/thumb/v7e-m+dp/hard/crtbegin.o
                0x00400178                __init_array_end = .
                0x00400178                . = ALIGN (0x4)
 *crtbegin.o(.ctors)
 *(EXCLUDE_FILE(*crtend.o) .ctors)
 *(SORT_BY_NAME(.ctors.*))
 *crtend.o(.ctors)
                0x00400178                . = ALIGN (0x4)
 *(.fini)
 .fini          0x00400178        0x4 c:/program files/microchip/xc32/v3.01/bin/bin/../../lib/gcc/pic32c/8.3.1/thumb/v7e-m+dp/hard/crti.o
                0x00400178                _fini
 .fini          0x0040017c        0x8 c:/program files/microchip/xc32/v3.01/bin/bin/../../lib/gcc/pic32c/8.3.1/thumb/v7e-m+dp/hard/crtn.o
                0x00400184                . = ALIGN (0x4)
                0x00400184                __fini_array_start = .
 *(.fini_array)
 .fini_array    0x00400184        0x4 c:/program files/microchip/xc32/v3.01/bin/bin/../../lib/gcc/pic32c/8.3.1/thumb/v7e-m+dp/hard/crtbegin.o
 *(SORT_BY_NAME(.fini_array.*))
                0x00400188                __fini_array_end = .
 *crtbegin.o(.dtors)
 *(EXCLUDE_FILE(*crtend.o) .dtors)
 *(SORT_BY_NAME(.dtors.*))
 *crtend.o(.dtors)
                0x00400188                . = ALIGN (0x4)
                0x00400188                _efixed = .
                [!provide]                PROVIDE (__exidx_start = .)

.ARM.exidx      0x00400188        0x8
 *(.ARM.exidx* .gnu.linkonce.armexidx.*)
 .ARM.exidx     0x00400188        0x8 c:/program files/microchip/xc32/v3.01/bin/bin/../../lib/gcc/pic32c/8.3.1/thumb/v7e-m+dp/hard\libgcc.a(_udivmoddi4.o)
                [!provide]                PROVIDE (__exidx_end = .)
                0x00400190                . = ALIGN (0x4)
                0x00400190                _etext = .

.bss            0x20400000      0x8a0
                0x20400000                . = ALIGN (0x4)
                0x20400000                __bss_start__ = .
                0x20400000                _sbss = .
                0x20400000                _szero = .
 *(COMMON)
 COMMON         0x20400000       0x30 build/sam_e70_xult/debug/_ext/1055488423/plib_pio.o
                0x20400000                portPinCbObj
 COMMON         0x20400030        0x8 build/sam_e70_xult/debug/_ext/1055487991/plib_pwm0.o
                0x20400030                PWM0_CallbackObj
 COMMON         0x20400038        0x8 build/sam_e70_xult/debug/_ext/865331892/plib_tc3.o
                0x20400038                TC3_CH0_CallbackObj
 COMMON         0x20400040       0x30 build/sam_e70_xult/debug/_ext/707186936/plib_usart1.o
                0x20400040                usart1Obj
 COMMON         0x20400070       0x30 build/sam_e70_xult/debug/_ext/707186936/plib_usart0.o
                0x20400070                usart0Obj
 COMMON         0x204000a0       0x30 build/sam_e70_xult/debug/_ext/707186936/plib_usart2.o
                0x204000a0                usart2Obj
 COMMON         0x204000d0       0x10 build/sam_e70_xult/debug/_ext/704852250/plib_xdmac.o
                0x204000d0                xdmacChannelObj
 COMMON         0x204000e0      0x178 build/sam_e70_xult/debug/_ext/1305476372/sys_fs.o
                0x204000e0                gSysFsMutex
                0x20400100                gSYSFSFileObj
                0x20400220                gSYSFSDirObj
                0x20400230                gSYSFSCurrentMountPoint
                0x20400238                gSYSFSObj
                0x20400240                errorValue
                0x20400244                gSYSFSMountPoint
 *fill*         0x20400258        0x8 
 COMMON         0x20400260      0x25c build/sam_e70_xult/debug/_ext/1305476372/sys_fs_media_manager.o
                0x20400260                gSYSFSMediaObject
                0x20400288                VolToPart
                0x204002a0                gSYSFSMediaBuffer
                0x204004a0                gSYSFSVolumeObject
 COMMON         0x204004bc       0x18 build/sam_e70_xult/debug/_ext/1728594169/initialization.o
                0x204004bc                sysObj
 COMMON         0x204004d4       0x1c build/sam_e70_xult/debug/_ext/1728594169/tasks.o
                0x204004d4                xAPP_RUDDER_CONTROL_Tasks
                0x204004d8                xAPP_COURSE_ALGORITHM_Tasks
                0x204004dc                xAPP_ANEMOMETER_Tasks
                0x204004e0                xAPP_MAST_CONTROL_Tasks
                0x204004e4                xAPP_COMMUNICATION_Tasks
                0x204004e8                xAPP_GPS_Tasks
                0x204004ec                xAPP_IMU_Tasks
 COMMON         0x204004f0       0x50 build/sam_e70_xult/debug/_ext/1360937237/app_communication.o
                0x204004f0                message_ptr
                0x204004f4                destination
                0x20400508                app_communicationData
 COMMON         0x20400540        0x1 build/sam_e70_xult/debug/_ext/1360937237/app_mast_control.o
                0x20400540                app_mast_controlData
 *fill*         0x20400541        0x3 
 COMMON         0x20400544       0xdf build/sam_e70_xult/debug/_ext/1360937237/app_course_algorithm.o
                0x20400544                IMU_info
                0x20400548                confirmation_year
                0x2040054c                GPS_info
                0x20400550                Anemometer_info
                0x20400554                app_course_algorithmData
                0x20400618                date
 *fill*         0x20400623        0x1 
 COMMON         0x20400624       0x3c build/sam_e70_xult/debug/_ext/1360937237/app_rudder_control.o
                0x20400624                angles
                0x2040062c                app_rudder_controlData
 COMMON         0x20400660       0xc8 build/sam_e70_xult/debug/_ext/1360937237/app_anemometer.o
                0x20400660                su_vector
                0x20400668                sdir
                0x20400670                Anemometer_values
                0x204006f0                app_anemometerData
 COMMON         0x20400728       0xb8 build/sam_e70_xult/debug/_ext/1360937237/app_gps.o
                0x20400728                app_gpsData
                0x20400760                buf
 COMMON         0x204007e0       0xbc build/sam_e70_xult/debug/_ext/1360937237/app_imu.o
                0x204007e0                IMU_values
                0x2040085c                sheading
                0x20400864                app_imuData
 COMMON         0x2040089c        0x4 c:/program files/microchip/xc32/v3.01/bin/bin/../../lib/gcc/pic32c/8.3.1/../../../../pic32c/lib/thumb/v7e-m+dp/hard\libg_nano.a(lib_a-reent.o)
                0x2040089c                errno
                0x204008a0                . = ALIGN (0x4)
                0x204008a0                __bss_end__ = .
                0x204008a0                _ebss = .
                0x204008a0                _ezero = .
                0x204008a0                . = ALIGN (0x4)
                0x204008a0                _end = .
                0x2045ffff                _ram_end_ = ((ORIGIN (ram) + LENGTH (ram)) - 0x1)
                0x00000001                __ICD2RAM = 0x1
                0x00000001                __MPLAB_DEBUG = 0x1
                0x00000001                __DEBUG = 0x1
                0x00000200                _min_heap_size = 0x200
START GROUP
LOAD c:/program files/microchip/xc32/v3.01/bin/bin/../../lib/gcc/pic32c/8.3.1/../../../../pic32c/lib/thumb/v7e-m+dp/hard\libpic32c.a
LOAD c:/program files/microchip/xc32/v3.01/bin/bin/../../lib/gcc/pic32c/8.3.1/thumb/v7e-m+dp/hard\libgcc.a
LOAD c:/program files/microchip/xc32/v3.01/bin/bin/../../lib/gcc/pic32c/8.3.1/../../../../pic32c/lib/thumb/v7e-m+dp/hard\libg_nano.a
LOAD c:/program files/microchip/xc32/v3.01/bin/bin/../../lib/gcc/pic32c/8.3.1/../../../../pic32c/lib/thumb/v7e-m+dp/hard\libm_nano.a
LOAD c:/program files/microchip/xc32/v3.01/bin/bin/../../lib/gcc/pic32c/8.3.1/../../../../pic32c/lib/thumb/v7e-m+dp/hard\libc_nano.a
END GROUP
LOAD c:/program files/microchip/xc32/v3.01/bin/bin/../../lib/gcc/pic32c/8.3.1/thumb/v7e-m+dp/hard/crtend.o
LOAD c:/program files/microchip/xc32/v3.01/bin/bin/../../lib/gcc/pic32c/8.3.1/thumb/v7e-m+dp/hard/crtn.o
OUTPUT(dist/sam_e70_xult/debug/SailBoatProgram.X.debug.elf elf32-littlearm)
LOAD stack
LOAD data_init

.ARM.attributes
                0x00000000       0x2e
 .ARM.attributes
                0x00000000       0x1e c:/program files/microchip/xc32/v3.01/bin/bin/../../lib/gcc/pic32c/8.3.1/thumb/v7e-m+dp/hard/crti.o
 .ARM.attributes
                0x0000001e       0x32 c:/program files/microchip/xc32/v3.01/bin/bin/../../lib/gcc/pic32c/8.3.1/thumb/v7e-m+dp/hard/crtbegin.o
 .ARM.attributes
                0x00000050       0x32 build/sam_e70_xult/debug/_ext/957281314/drv_i2c.o
 .ARM.attributes
                0x00000082       0x32 build/sam_e70_xult/debug/_ext/1565510230/drv_sdmmc_file_system.o
 .ARM.attributes
                0x000000b4       0x32 build/sam_e70_xult/debug/_ext/1565510230/drv_sdmmc.o
 .ARM.attributes
                0x000000e6       0x32 build/sam_e70_xult/debug/_ext/716655881/drv_usart.o
 .ARM.attributes
                0x00000118       0x32 build/sam_e70_xult/debug/_ext/1613695899/osal_freertos.o
 .ARM.attributes
                0x0000014a       0x32 build/sam_e70_xult/debug/_ext/1055500827/plib_clk.o
 .ARM.attributes
                0x0000017c       0x32 build/sam_e70_xult/debug/_ext/1055499099/plib_efc.o
 .ARM.attributes
                0x000001ae       0x32 build/sam_e70_xult/debug/_ext/719181653/plib_hsmci.o
 .ARM.attributes
                0x000001e0       0x32 build/sam_e70_xult/debug/_ext/1639550079/plib_nvic.o
 .ARM.attributes
                0x00000212       0x32 build/sam_e70_xult/debug/_ext/1055488423/plib_pio.o
 .ARM.attributes
                0x00000244       0x32 build/sam_e70_xult/debug/_ext/1055487991/plib_pwm0.o
 .ARM.attributes
                0x00000276       0x32 build/sam_e70_xult/debug/_ext/865331892/plib_tc3.o
 .ARM.attributes
                0x000002a8       0x32 build/sam_e70_xult/debug/_ext/1539215101/plib_twihs0_master.o
 .ARM.attributes
                0x000002da       0x32 build/sam_e70_xult/debug/_ext/707186936/plib_usart1.o
 .ARM.attributes
                0x0000030c       0x32 build/sam_e70_xult/debug/_ext/707186936/plib_usart0.o
 .ARM.attributes
                0x0000033e       0x32 build/sam_e70_xult/debug/_ext/707186936/plib_usart2.o
 .ARM.attributes
                0x00000370       0x32 build/sam_e70_xult/debug/_ext/704852250/plib_xdmac.o
 .ARM.attributes
                0x000003a2       0x32 build/sam_e70_xult/debug/_ext/876653320/sys_cache.o
 .ARM.attributes
                0x000003d4       0x32 build/sam_e70_xult/debug/_ext/1043829778/ff.o
 .ARM.attributes
                0x00000406       0x32 build/sam_e70_xult/debug/_ext/1043829778/ffunicode.o
 .ARM.attributes
                0x00000438       0x32 build/sam_e70_xult/debug/_ext/1893760823/diskio.o
 .ARM.attributes
                0x0000046a       0x32 build/sam_e70_xult/debug/_ext/1305476372/sys_fs.o
 .ARM.attributes
                0x0000049c       0x32 build/sam_e70_xult/debug/_ext/1305476372/sys_fs_media_manager.o
 .ARM.attributes
                0x000004ce       0x32 build/sam_e70_xult/debug/_ext/1305476372/sys_fs_fat_interface.o
 .ARM.attributes
                0x00000500       0x32 build/sam_e70_xult/debug/_ext/766002106/sys_int.o
 .ARM.attributes
                0x00000532       0x32 build/sam_e70_xult/debug/_ext/327803284/sys_time.o
 .ARM.attributes
                0x00000564       0x32 build/sam_e70_xult/debug/_ext/1728594169/initialization.o
 .ARM.attributes
                0x00000596       0x32 build/sam_e70_xult/debug/_ext/1728594169/interrupts.o
 .ARM.attributes
                0x000005c8       0x32 build/sam_e70_xult/debug/_ext/1728594169/exceptions.o
 .ARM.attributes
                0x000005fa       0x32 build/sam_e70_xult/debug/_ext/1728594169/startup_xc32.o
 .ARM.attributes
                0x0000062c       0x32 build/sam_e70_xult/debug/_ext/1728594169/freertos_hooks.o
 .ARM.attributes
                0x0000065e       0x32 build/sam_e70_xult/debug/_ext/1728594169/tasks.o
 .ARM.attributes
                0x00000690       0x32 build/sam_e70_xult/debug/_ext/977623654/port.o
 .ARM.attributes
                0x000006c2       0x32 build/sam_e70_xult/debug/_ext/1665200909/heap_1.o
 .ARM.attributes
                0x000006f4       0x32 build/sam_e70_xult/debug/_ext/404212886/list.o
 .ARM.attributes
                0x00000726       0x32 build/sam_e70_xult/debug/_ext/404212886/queue.o
 .ARM.attributes
                0x00000758       0x32 build/sam_e70_xult/debug/_ext/404212886/FreeRTOS_tasks.o
 .ARM.attributes
                0x0000078a       0x32 build/sam_e70_xult/debug/_ext/1360937237/main.o
 .ARM.attributes
                0x000007bc       0x32 build/sam_e70_xult/debug/_ext/1360937237/app_communication.o
 .ARM.attributes
                0x000007ee       0x32 build/sam_e70_xult/debug/_ext/1360937237/app_mast_control.o
 .ARM.attributes
                0x00000820       0x32 build/sam_e70_xult/debug/_ext/1360937237/app_course_algorithm.o
 .ARM.attributes
                0x00000852       0x32 build/sam_e70_xult/debug/_ext/1360937237/app_rudder_control.o
 .ARM.attributes
                0x00000884       0x32 build/sam_e70_xult/debug/_ext/1360937237/app_anemometer.o
 .ARM.attributes
                0x000008b6       0x32 build/sam_e70_xult/debug/_ext/1360937237/app_gps.o
 .ARM.attributes
                0x000008e8       0x32 build/sam_e70_xult/debug/_ext/1360937237/app_imu.o
 .ARM.attributes
                0x0000091a       0x32 c:/program files/microchip/xc32/v3.01/bin/bin/../../lib/gcc/pic32c/8.3.1/../../../../pic32c/lib/thumb/v7e-m+dp/hard\libpic32c.a(data_init.o)
 .ARM.attributes
                0x0000094c       0x1e c:/program files/microchip/xc32/v3.01/bin/bin/../../lib/gcc/pic32c/8.3.1/thumb/v7e-m+dp/hard\libgcc.a(_aeabi_uldivmod.o)
 .ARM.attributes
                0x0000096a       0x32 c:/program files/microchip/xc32/v3.01/bin/bin/../../lib/gcc/pic32c/8.3.1/thumb/v7e-m+dp/hard\libgcc.a(_udivmoddi4.o)
 .ARM.attributes
                0x0000099c       0x1e c:/program files/microchip/xc32/v3.01/bin/bin/../../lib/gcc/pic32c/8.3.1/thumb/v7e-m+dp/hard\libgcc.a(_dvmd_tls.o)
 .ARM.attributes
                0x000009ba       0x32 c:/program files/microchip/xc32/v3.01/bin/bin/../../lib/gcc/pic32c/8.3.1/../../../../pic32c/lib/thumb/v7e-m+dp/hard\libg_nano.a(lib_a-atof.o)
 .ARM.attributes
                0x000009ec       0x32 c:/program files/microchip/xc32/v3.01/bin/bin/../../lib/gcc/pic32c/8.3.1/../../../../pic32c/lib/thumb/v7e-m+dp/hard\libg_nano.a(lib_a-atoi.o)
 .ARM.attributes
                0x00000a1e       0x30 c:/program files/microchip/xc32/v3.01/bin/bin/../../lib/gcc/pic32c/8.3.1/../../../../pic32c/lib/thumb/v7e-m+dp/hard\libg_nano.a(lib_a-ctype_.o)
 .ARM.attributes
                0x00000a4e       0x32 c:/program files/microchip/xc32/v3.01/bin/bin/../../lib/gcc/pic32c/8.3.1/../../../../pic32c/lib/thumb/v7e-m+dp/hard\libg_nano.a(lib_a-init.o)
 .ARM.attributes
                0x00000a80       0x32 c:/program files/microchip/xc32/v3.01/bin/bin/../../lib/gcc/pic32c/8.3.1/../../../../pic32c/lib/thumb/v7e-m+dp/hard\libg_nano.a(lib_a-itoa.o)
 .ARM.attributes
                0x00000ab2       0x32 c:/program files/microchip/xc32/v3.01/bin/bin/../../lib/gcc/pic32c/8.3.1/../../../../pic32c/lib/thumb/v7e-m+dp/hard\libg_nano.a(lib_a-malloc.o)
 .ARM.attributes
                0x00000ae4       0x32 c:/program files/microchip/xc32/v3.01/bin/bin/../../lib/gcc/pic32c/8.3.1/../../../../pic32c/lib/thumb/v7e-m+dp/hard\libg_nano.a(lib_a-memcpy-stub.o)
 .ARM.attributes
                0x00000b16       0x32 c:/program files/microchip/xc32/v3.01/bin/bin/../../lib/gcc/pic32c/8.3.1/../../../../pic32c/lib/thumb/v7e-m+dp/hard\libg_nano.a(lib_a-memmove.o)
 .ARM.attributes
                0x00000b48       0x32 c:/program files/microchip/xc32/v3.01/bin/bin/../../lib/gcc/pic32c/8.3.1/../../../../pic32c/lib/thumb/v7e-m+dp/hard\libg_nano.a(lib_a-memset.o)
 .ARM.attributes
                0x00000b7a       0x32 c:/program files/microchip/xc32/v3.01/bin/bin/../../lib/gcc/pic32c/8.3.1/../../../../pic32c/lib/thumb/v7e-m+dp/hard\libg_nano.a(lib_a-nano-mallocr.o)
 .ARM.attributes
                0x00000bac       0x32 c:/program files/microchip/xc32/v3.01/bin/bin/../../lib/gcc/pic32c/8.3.1/../../../../pic32c/lib/thumb/v7e-m+dp/hard\libg_nano.a(lib_a-sbrkr.o)
 .ARM.attributes
                0x00000bde       0x32 c:/program files/microchip/xc32/v3.01/bin/bin/../../lib/gcc/pic32c/8.3.1/../../../../pic32c/lib/thumb/v7e-m+dp/hard\libg_nano.a(lib_a-strchr.o)
 .ARM.attributes
                0x00000c10       0x32 c:/program files/microchip/xc32/v3.01/bin/bin/../../lib/gcc/pic32c/8.3.1/../../../../pic32c/lib/thumb/v7e-m+dp/hard\libg_nano.a(lib_a-strcpy.o)
 .ARM.attributes
                0x00000c42       0x17 c:/program files/microchip/xc32/v3.01/bin/bin/../../lib/gcc/pic32c/8.3.1/../../../../pic32c/lib/thumb/v7e-m+dp/hard\libg_nano.a(lib_a-strlen.o)
 .ARM.attributes
                0x00000c59       0x32 c:/program files/microchip/xc32/v3.01/bin/bin/../../lib/gcc/pic32c/8.3.1/../../../../pic32c/lib/thumb/v7e-m+dp/hard\libg_nano.a(lib_a-strncmp.o)
 .ARM.attributes
                0x00000c8b       0x32 c:/program files/microchip/xc32/v3.01/bin/bin/../../lib/gcc/pic32c/8.3.1/../../../../pic32c/lib/thumb/v7e-m+dp/hard\libg_nano.a(lib_a-strncpy.o)
 .ARM.attributes
                0x00000cbd       0x32 c:/program files/microchip/xc32/v3.01/bin/bin/../../lib/gcc/pic32c/8.3.1/../../../../pic32c/lib/thumb/v7e-m+dp/hard\libg_nano.a(lib_a-strtod.o)
 .ARM.attributes
                0x00000cef       0x32 c:/program files/microchip/xc32/v3.01/bin/bin/../../lib/gcc/pic32c/8.3.1/../../../../pic32c/lib/thumb/v7e-m+dp/hard\libg_nano.a(lib_a-strtol.o)
 .ARM.attributes
                0x00000d21       0x32 c:/program files/microchip/xc32/v3.01/bin/bin/../../lib/gcc/pic32c/8.3.1/../../../../pic32c/lib/thumb/v7e-m+dp/hard\libg_nano.a(lib_a-utoa.o)
 .ARM.attributes
                0x00000d53       0x32 c:/program files/microchip/xc32/v3.01/bin/bin/../../lib/gcc/pic32c/8.3.1/../../../../pic32c/lib/thumb/v7e-m+dp/hard\libg_nano.a(lib_a-gdtoa-gethex.o)
 .ARM.attributes
                0x00000d85       0x32 c:/program files/microchip/xc32/v3.01/bin/bin/../../lib/gcc/pic32c/8.3.1/../../../../pic32c/lib/thumb/v7e-m+dp/hard\libg_nano.a(lib_a-gdtoa-hexnan.o)
 .ARM.attributes
                0x00000db7       0x30 c:/program files/microchip/xc32/v3.01/bin/bin/../../lib/gcc/pic32c/8.3.1/../../../../pic32c/lib/thumb/v7e-m+dp/hard\libg_nano.a(lib_a-impure.o)
 .ARM.attributes
                0x00000de7       0x32 c:/program files/microchip/xc32/v3.01/bin/bin/../../lib/gcc/pic32c/8.3.1/../../../../pic32c/lib/thumb/v7e-m+dp/hard\libg_nano.a(lib_a-lnumeric.o)
 .ARM.attributes
                0x00000e19       0x32 c:/program files/microchip/xc32/v3.01/bin/bin/../../lib/gcc/pic32c/8.3.1/../../../../pic32c/lib/thumb/v7e-m+dp/hard\libg_nano.a(lib_a-locale.o)
 .ARM.attributes
                0x00000e4b       0x32 c:/program files/microchip/xc32/v3.01/bin/bin/../../lib/gcc/pic32c/8.3.1/../../../../pic32c/lib/thumb/v7e-m+dp/hard\libg_nano.a(lib_a-mbtowc_r.o)
 .ARM.attributes
                0x00000e7d       0x32 c:/program files/microchip/xc32/v3.01/bin/bin/../../lib/gcc/pic32c/8.3.1/../../../../pic32c/lib/thumb/v7e-m+dp/hard\libg_nano.a(lib_a-mlock.o)
 .ARM.attributes
                0x00000eaf       0x32 c:/program files/microchip/xc32/v3.01/bin/bin/../../lib/gcc/pic32c/8.3.1/../../../../pic32c/lib/thumb/v7e-m+dp/hard\libg_nano.a(lib_a-mprec.o)
 .ARM.attributes
                0x00000ee1       0x32 c:/program files/microchip/xc32/v3.01/bin/bin/../../lib/gcc/pic32c/8.3.1/../../../../pic32c/lib/thumb/v7e-m+dp/hard\libg_nano.a(lib_a-nano-callocr.o)
 .ARM.attributes
                0x00000f13       0x32 c:/program files/microchip/xc32/v3.01/bin/bin/../../lib/gcc/pic32c/8.3.1/../../../../pic32c/lib/thumb/v7e-m+dp/hard\libg_nano.a(lib_a-reent.o)
 .ARM.attributes
                0x00000f45       0x32 c:/program files/microchip/xc32/v3.01/bin/bin/../../lib/gcc/pic32c/8.3.1/../../../../pic32c/lib/thumb/v7e-m+dp/hard\libg_nano.a(lib_a-s_nan.o)
 .ARM.attributes
                0x00000f77       0x32 c:/program files/microchip/xc32/v3.01/bin/bin/../../lib/gcc/pic32c/8.3.1/../../../../pic32c/lib/thumb/v7e-m+dp/hard\libg_nano.a(lib_a-wctomb_r.o)
 .ARM.attributes
                0x00000fa9       0x32 c:/program files/microchip/xc32/v3.01/bin/bin/../../lib/gcc/pic32c/8.3.1/../../../../pic32c/lib/thumb/v7e-m+dp/hard\libm_nano.a(lib_a-s_cos.o)
 .ARM.attributes
                0x00000fdb       0x32 c:/program files/microchip/xc32/v3.01/bin/bin/../../lib/gcc/pic32c/8.3.1/../../../../pic32c/lib/thumb/v7e-m+dp/hard\libm_nano.a(lib_a-s_sin.o)
 .ARM.attributes
                0x0000100d       0x32 c:/program files/microchip/xc32/v3.01/bin/bin/../../lib/gcc/pic32c/8.3.1/../../../../pic32c/lib/thumb/v7e-m+dp/hard\libm_nano.a(lib_a-w_atan2.o)
 .ARM.attributes
                0x0000103f       0x32 c:/program files/microchip/xc32/v3.01/bin/bin/../../lib/gcc/pic32c/8.3.1/../../../../pic32c/lib/thumb/v7e-m+dp/hard\libm_nano.a(lib_a-w_sqrt.o)
 .ARM.attributes
                0x00001071       0x32 c:/program files/microchip/xc32/v3.01/bin/bin/../../lib/gcc/pic32c/8.3.1/../../../../pic32c/lib/thumb/v7e-m+dp/hard\libm_nano.a(lib_a-e_atan2.o)
 .ARM.attributes
                0x000010a3       0x32 c:/program files/microchip/xc32/v3.01/bin/bin/../../lib/gcc/pic32c/8.3.1/../../../../pic32c/lib/thumb/v7e-m+dp/hard\libm_nano.a(lib_a-e_rem_pio2.o)
 .ARM.attributes
                0x000010d5       0x32 c:/program files/microchip/xc32/v3.01/bin/bin/../../lib/gcc/pic32c/8.3.1/../../../../pic32c/lib/thumb/v7e-m+dp/hard\libm_nano.a(lib_a-e_sqrt.o)
 .ARM.attributes
                0x00001107       0x32 c:/program files/microchip/xc32/v3.01/bin/bin/../../lib/gcc/pic32c/8.3.1/../../../../pic32c/lib/thumb/v7e-m+dp/hard\libm_nano.a(lib_a-k_cos.o)
 .ARM.attributes
                0x00001139       0x32 c:/program files/microchip/xc32/v3.01/bin/bin/../../lib/gcc/pic32c/8.3.1/../../../../pic32c/lib/thumb/v7e-m+dp/hard\libm_nano.a(lib_a-k_rem_pio2.o)
 .ARM.attributes
                0x0000116b       0x32 c:/program files/microchip/xc32/v3.01/bin/bin/../../lib/gcc/pic32c/8.3.1/../../../../pic32c/lib/thumb/v7e-m+dp/hard\libm_nano.a(lib_a-k_sin.o)
 .ARM.attributes
                0x0000119d       0x32 c:/program files/microchip/xc32/v3.01/bin/bin/../../lib/gcc/pic32c/8.3.1/../../../../pic32c/lib/thumb/v7e-m+dp/hard\libm_nano.a(lib_a-s_atan.o)
 .ARM.attributes
                0x000011cf       0x32 c:/program files/microchip/xc32/v3.01/bin/bin/../../lib/gcc/pic32c/8.3.1/../../../../pic32c/lib/thumb/v7e-m+dp/hard\libm_nano.a(lib_a-s_fabs.o)
 .ARM.attributes
                0x00001201       0x32 c:/program files/microchip/xc32/v3.01/bin/bin/../../lib/gcc/pic32c/8.3.1/../../../../pic32c/lib/thumb/v7e-m+dp/hard\libm_nano.a(lib_a-s_floor.o)
 .ARM.attributes
                0x00001233       0x30 c:/program files/microchip/xc32/v3.01/bin/bin/../../lib/gcc/pic32c/8.3.1/../../../../pic32c/lib/thumb/v7e-m+dp/hard\libm_nano.a(lib_a-s_lib_ver.o)
 .ARM.attributes
                0x00001263       0x32 c:/program files/microchip/xc32/v3.01/bin/bin/../../lib/gcc/pic32c/8.3.1/../../../../pic32c/lib/thumb/v7e-m+dp/hard\libm_nano.a(lib_a-s_scalbn.o)
 .ARM.attributes
                0x00001295       0x32 c:/program files/microchip/xc32/v3.01/bin/bin/../../lib/gcc/pic32c/8.3.1/../../../../pic32c/lib/thumb/v7e-m+dp/hard\libc_nano.a(lib_a-errno.o)
 .ARM.attributes
                0x000012c7       0x32 c:/program files/microchip/xc32/v3.01/bin/bin/../../lib/gcc/pic32c/8.3.1/../../../../pic32c/lib/thumb/v7e-m+dp/hard\libpic32c.a(sbrk.o)
 .ARM.attributes
                0x000012f9       0x1e c:/program files/microchip/xc32/v3.01/bin/bin/../../lib/gcc/pic32c/8.3.1/thumb/v7e-m+dp/hard\libgcc.a(_arm_addsubdf3.o)
 .ARM.attributes
                0x00001317       0x32 c:/program files/microchip/xc32/v3.01/bin/bin/../../lib/gcc/pic32c/8.3.1/thumb/v7e-m+dp/hard\libgcc.a(_fixdfdi.o)
 .ARM.attributes
                0x00001349       0x32 c:/program files/microchip/xc32/v3.01/bin/bin/../../lib/gcc/pic32c/8.3.1/thumb/v7e-m+dp/hard\libgcc.a(_fixunsdfdi.o)
 .ARM.attributes
                0x0000137b       0x1e c:/program files/microchip/xc32/v3.01/bin/bin/../../lib/gcc/pic32c/8.3.1/thumb/v7e-m+dp/hard/crtn.o

.comment        0x00000000       0x53
 .comment       0x00000000       0x53 c:/program files/microchip/xc32/v3.01/bin/bin/../../lib/gcc/pic32c/8.3.1/thumb/v7e-m+dp/hard/crtbegin.o
                                 0x54 (size before relaxing)
 .comment       0x00000053       0x54 build/sam_e70_xult/debug/_ext/957281314/drv_i2c.o
 .comment       0x00000053       0x54 build/sam_e70_xult/debug/_ext/1565510230/drv_sdmmc_file_system.o
 .comment       0x00000053       0x54 build/sam_e70_xult/debug/_ext/1565510230/drv_sdmmc.o
 .comment       0x00000053       0x54 build/sam_e70_xult/debug/_ext/716655881/drv_usart.o
 .comment       0x00000053       0x54 build/sam_e70_xult/debug/_ext/1613695899/osal_freertos.o
 .comment       0x00000053       0x54 build/sam_e70_xult/debug/_ext/1055500827/plib_clk.o
 .comment       0x00000053       0x54 build/sam_e70_xult/debug/_ext/1055499099/plib_efc.o
 .comment       0x00000053       0x54 build/sam_e70_xult/debug/_ext/719181653/plib_hsmci.o
 .comment       0x00000053       0x54 build/sam_e70_xult/debug/_ext/1639550079/plib_nvic.o
 .comment       0x00000053       0x54 build/sam_e70_xult/debug/_ext/1055488423/plib_pio.o
 .comment       0x00000053       0x54 build/sam_e70_xult/debug/_ext/1055487991/plib_pwm0.o
 .comment       0x00000053       0x54 build/sam_e70_xult/debug/_ext/865331892/plib_tc3.o
 .comment       0x00000053       0x54 build/sam_e70_xult/debug/_ext/1539215101/plib_twihs0_master.o
 .comment       0x00000053       0x54 build/sam_e70_xult/debug/_ext/707186936/plib_usart1.o
 .comment       0x00000053       0x54 build/sam_e70_xult/debug/_ext/707186936/plib_usart0.o
 .comment       0x00000053       0x54 build/sam_e70_xult/debug/_ext/707186936/plib_usart2.o
 .comment       0x00000053       0x54 build/sam_e70_xult/debug/_ext/704852250/plib_xdmac.o
 .comment       0x00000053       0x54 build/sam_e70_xult/debug/_ext/876653320/sys_cache.o
 .comment       0x00000053       0x54 build/sam_e70_xult/debug/_ext/1043829778/ff.o
 .comment       0x00000053       0x54 build/sam_e70_xult/debug/_ext/1043829778/ffunicode.o
 .comment       0x00000053       0x54 build/sam_e70_xult/debug/_ext/1893760823/diskio.o
 .comment       0x00000053       0x54 build/sam_e70_xult/debug/_ext/1305476372/sys_fs.o
 .comment       0x00000053       0x54 build/sam_e70_xult/debug/_ext/1305476372/sys_fs_media_manager.o
 .comment       0x00000053       0x54 build/sam_e70_xult/debug/_ext/1305476372/sys_fs_fat_interface.o
 .comment       0x00000053       0x54 build/sam_e70_xult/debug/_ext/766002106/sys_int.o
 .comment       0x00000053       0x54 build/sam_e70_xult/debug/_ext/327803284/sys_time.o
 .comment       0x00000053       0x54 build/sam_e70_xult/debug/_ext/1728594169/initialization.o
 .comment       0x00000053       0x54 build/sam_e70_xult/debug/_ext/1728594169/interrupts.o
 .comment       0x00000053       0x54 build/sam_e70_xult/debug/_ext/1728594169/exceptions.o
 .comment       0x00000053       0x54 build/sam_e70_xult/debug/_ext/1728594169/startup_xc32.o
 .comment       0x00000053       0x54 build/sam_e70_xult/debug/_ext/1728594169/freertos_hooks.o
 .comment       0x00000053       0x54 build/sam_e70_xult/debug/_ext/1728594169/tasks.o
 .comment       0x00000053       0x54 build/sam_e70_xult/debug/_ext/977623654/port.o
 .comment       0x00000053       0x54 build/sam_e70_xult/debug/_ext/1665200909/heap_1.o
 .comment       0x00000053       0x54 build/sam_e70_xult/debug/_ext/404212886/list.o
 .comment       0x00000053       0x54 build/sam_e70_xult/debug/_ext/404212886/queue.o
 .comment       0x00000053       0x54 build/sam_e70_xult/debug/_ext/404212886/FreeRTOS_tasks.o
 .comment       0x00000053       0x54 build/sam_e70_xult/debug/_ext/1360937237/main.o
 .comment       0x00000053       0x54 build/sam_e70_xult/debug/_ext/1360937237/app_communication.o
 .comment       0x00000053       0x54 build/sam_e70_xult/debug/_ext/1360937237/app_mast_control.o
 .comment       0x00000053       0x54 build/sam_e70_xult/debug/_ext/1360937237/app_course_algorithm.o
 .comment       0x00000053       0x54 build/sam_e70_xult/debug/_ext/1360937237/app_rudder_control.o
 .comment       0x00000053       0x54 build/sam_e70_xult/debug/_ext/1360937237/app_anemometer.o
 .comment       0x00000053       0x54 build/sam_e70_xult/debug/_ext/1360937237/app_gps.o
 .comment       0x00000053       0x54 build/sam_e70_xult/debug/_ext/1360937237/app_imu.o
 .comment       0x00000053       0x54 c:/program files/microchip/xc32/v3.01/bin/bin/../../lib/gcc/pic32c/8.3.1/../../../../pic32c/lib/thumb/v7e-m+dp/hard\libpic32c.a(data_init.o)
 .comment       0x00000053       0x54 c:/program files/microchip/xc32/v3.01/bin/bin/../../lib/gcc/pic32c/8.3.1/thumb/v7e-m+dp/hard\libgcc.a(_udivmoddi4.o)
 .comment       0x00000053       0x54 c:/program files/microchip/xc32/v3.01/bin/bin/../../lib/gcc/pic32c/8.3.1/../../../../pic32c/lib/thumb/v7e-m+dp/hard\libg_nano.a(lib_a-atof.o)
 .comment       0x00000053       0x54 c:/program files/microchip/xc32/v3.01/bin/bin/../../lib/gcc/pic32c/8.3.1/../../../../pic32c/lib/thumb/v7e-m+dp/hard\libg_nano.a(lib_a-atoi.o)
 .comment       0x00000053       0x54 c:/program files/microchip/xc32/v3.01/bin/bin/../../lib/gcc/pic32c/8.3.1/../../../../pic32c/lib/thumb/v7e-m+dp/hard\libg_nano.a(lib_a-ctype_.o)
 .comment       0x00000053       0x54 c:/program files/microchip/xc32/v3.01/bin/bin/../../lib/gcc/pic32c/8.3.1/../../../../pic32c/lib/thumb/v7e-m+dp/hard\libg_nano.a(lib_a-init.o)
 .comment       0x00000053       0x54 c:/program files/microchip/xc32/v3.01/bin/bin/../../lib/gcc/pic32c/8.3.1/../../../../pic32c/lib/thumb/v7e-m+dp/hard\libg_nano.a(lib_a-itoa.o)
 .comment       0x00000053       0x54 c:/program files/microchip/xc32/v3.01/bin/bin/../../lib/gcc/pic32c/8.3.1/../../../../pic32c/lib/thumb/v7e-m+dp/hard\libg_nano.a(lib_a-malloc.o)
 .comment       0x00000053       0x54 c:/program files/microchip/xc32/v3.01/bin/bin/../../lib/gcc/pic32c/8.3.1/../../../../pic32c/lib/thumb/v7e-m+dp/hard\libg_nano.a(lib_a-memcpy-stub.o)
 .comment       0x00000053       0x54 c:/program files/microchip/xc32/v3.01/bin/bin/../../lib/gcc/pic32c/8.3.1/../../../../pic32c/lib/thumb/v7e-m+dp/hard\libg_nano.a(lib_a-memmove.o)
 .comment       0x00000053       0x54 c:/program files/microchip/xc32/v3.01/bin/bin/../../lib/gcc/pic32c/8.3.1/../../../../pic32c/lib/thumb/v7e-m+dp/hard\libg_nano.a(lib_a-memset.o)
 .comment       0x00000053       0x54 c:/program files/microchip/xc32/v3.01/bin/bin/../../lib/gcc/pic32c/8.3.1/../../../../pic32c/lib/thumb/v7e-m+dp/hard\libg_nano.a(lib_a-nano-mallocr.o)
 .comment       0x00000053       0x54 c:/program files/microchip/xc32/v3.01/bin/bin/../../lib/gcc/pic32c/8.3.1/../../../../pic32c/lib/thumb/v7e-m+dp/hard\libg_nano.a(lib_a-sbrkr.o)
 .comment       0x00000053       0x54 c:/program files/microchip/xc32/v3.01/bin/bin/../../lib/gcc/pic32c/8.3.1/../../../../pic32c/lib/thumb/v7e-m+dp/hard\libg_nano.a(lib_a-strchr.o)
 .comment       0x00000053       0x54 c:/program files/microchip/xc32/v3.01/bin/bin/../../lib/gcc/pic32c/8.3.1/../../../../pic32c/lib/thumb/v7e-m+dp/hard\libg_nano.a(lib_a-strcpy.o)
 .comment       0x00000053       0x54 c:/program files/microchip/xc32/v3.01/bin/bin/../../lib/gcc/pic32c/8.3.1/../../../../pic32c/lib/thumb/v7e-m+dp/hard\libg_nano.a(lib_a-strncmp.o)
 .comment       0x00000053       0x54 c:/program files/microchip/xc32/v3.01/bin/bin/../../lib/gcc/pic32c/8.3.1/../../../../pic32c/lib/thumb/v7e-m+dp/hard\libg_nano.a(lib_a-strncpy.o)
 .comment       0x00000053       0x54 c:/program files/microchip/xc32/v3.01/bin/bin/../../lib/gcc/pic32c/8.3.1/../../../../pic32c/lib/thumb/v7e-m+dp/hard\libg_nano.a(lib_a-strtod.o)
 .comment       0x00000053       0x54 c:/program files/microchip/xc32/v3.01/bin/bin/../../lib/gcc/pic32c/8.3.1/../../../../pic32c/lib/thumb/v7e-m+dp/hard\libg_nano.a(lib_a-strtol.o)
 .comment       0x00000053       0x54 c:/program files/microchip/xc32/v3.01/bin/bin/../../lib/gcc/pic32c/8.3.1/../../../../pic32c/lib/thumb/v7e-m+dp/hard\libg_nano.a(lib_a-utoa.o)
 .comment       0x00000053       0x54 c:/program files/microchip/xc32/v3.01/bin/bin/../../lib/gcc/pic32c/8.3.1/../../../../pic32c/lib/thumb/v7e-m+dp/hard\libg_nano.a(lib_a-gdtoa-gethex.o)
 .comment       0x00000053       0x54 c:/program files/microchip/xc32/v3.01/bin/bin/../../lib/gcc/pic32c/8.3.1/../../../../pic32c/lib/thumb/v7e-m+dp/hard\libg_nano.a(lib_a-gdtoa-hexnan.o)
 .comment       0x00000053       0x54 c:/program files/microchip/xc32/v3.01/bin/bin/../../lib/gcc/pic32c/8.3.1/../../../../pic32c/lib/thumb/v7e-m+dp/hard\libg_nano.a(lib_a-impure.o)
 .comment       0x00000053       0x54 c:/program files/microchip/xc32/v3.01/bin/bin/../../lib/gcc/pic32c/8.3.1/../../../../pic32c/lib/thumb/v7e-m+dp/hard\libg_nano.a(lib_a-lnumeric.o)
 .comment       0x00000053       0x54 c:/program files/microchip/xc32/v3.01/bin/bin/../../lib/gcc/pic32c/8.3.1/../../../../pic32c/lib/thumb/v7e-m+dp/hard\libg_nano.a(lib_a-locale.o)
 .comment       0x00000053       0x54 c:/program files/microchip/xc32/v3.01/bin/bin/../../lib/gcc/pic32c/8.3.1/../../../../pic32c/lib/thumb/v7e-m+dp/hard\libg_nano.a(lib_a-mbtowc_r.o)
 .comment       0x00000053       0x54 c:/program files/microchip/xc32/v3.01/bin/bin/../../lib/gcc/pic32c/8.3.1/../../../../pic32c/lib/thumb/v7e-m+dp/hard\libg_nano.a(lib_a-mlock.o)
 .comment       0x00000053       0x54 c:/program files/microchip/xc32/v3.01/bin/bin/../../lib/gcc/pic32c/8.3.1/../../../../pic32c/lib/thumb/v7e-m+dp/hard\libg_nano.a(lib_a-mprec.o)
 .comment       0x00000053       0x54 c:/program files/microchip/xc32/v3.01/bin/bin/../../lib/gcc/pic32c/8.3.1/../../../../pic32c/lib/thumb/v7e-m+dp/hard\libg_nano.a(lib_a-nano-callocr.o)
 .comment       0x00000053       0x54 c:/program files/microchip/xc32/v3.01/bin/bin/../../lib/gcc/pic32c/8.3.1/../../../../pic32c/lib/thumb/v7e-m+dp/hard\libg_nano.a(lib_a-reent.o)
 .comment       0x00000053       0x54 c:/program files/microchip/xc32/v3.01/bin/bin/../../lib/gcc/pic32c/8.3.1/../../../../pic32c/lib/thumb/v7e-m+dp/hard\libg_nano.a(lib_a-s_nan.o)
 .comment       0x00000053       0x54 c:/program files/microchip/xc32/v3.01/bin/bin/../../lib/gcc/pic32c/8.3.1/../../../../pic32c/lib/thumb/v7e-m+dp/hard\libg_nano.a(lib_a-wctomb_r.o)
 .comment       0x00000053       0x54 c:/program files/microchip/xc32/v3.01/bin/bin/../../lib/gcc/pic32c/8.3.1/../../../../pic32c/lib/thumb/v7e-m+dp/hard\libm_nano.a(lib_a-s_cos.o)
 .comment       0x00000053       0x54 c:/program files/microchip/xc32/v3.01/bin/bin/../../lib/gcc/pic32c/8.3.1/../../../../pic32c/lib/thumb/v7e-m+dp/hard\libm_nano.a(lib_a-s_sin.o)
 .comment       0x00000053       0x54 c:/program files/microchip/xc32/v3.01/bin/bin/../../lib/gcc/pic32c/8.3.1/../../../../pic32c/lib/thumb/v7e-m+dp/hard\libm_nano.a(lib_a-w_atan2.o)
 .comment       0x00000053       0x54 c:/program files/microchip/xc32/v3.01/bin/bin/../../lib/gcc/pic32c/8.3.1/../../../../pic32c/lib/thumb/v7e-m+dp/hard\libm_nano.a(lib_a-w_sqrt.o)
 .comment       0x00000053       0x54 c:/program files/microchip/xc32/v3.01/bin/bin/../../lib/gcc/pic32c/8.3.1/../../../../pic32c/lib/thumb/v7e-m+dp/hard\libm_nano.a(lib_a-e_atan2.o)
 .comment       0x00000053       0x54 c:/program files/microchip/xc32/v3.01/bin/bin/../../lib/gcc/pic32c/8.3.1/../../../../pic32c/lib/thumb/v7e-m+dp/hard\libm_nano.a(lib_a-e_rem_pio2.o)
 .comment       0x00000053       0x54 c:/program files/microchip/xc32/v3.01/bin/bin/../../lib/gcc/pic32c/8.3.1/../../../../pic32c/lib/thumb/v7e-m+dp/hard\libm_nano.a(lib_a-e_sqrt.o)
 .comment       0x00000053       0x54 c:/program files/microchip/xc32/v3.01/bin/bin/../../lib/gcc/pic32c/8.3.1/../../../../pic32c/lib/thumb/v7e-m+dp/hard\libm_nano.a(lib_a-k_cos.o)
 .comment       0x00000053       0x54 c:/program files/microchip/xc32/v3.01/bin/bin/../../lib/gcc/pic32c/8.3.1/../../../../pic32c/lib/thumb/v7e-m+dp/hard\libm_nano.a(lib_a-k_rem_pio2.o)
 .comment       0x00000053       0x54 c:/program files/microchip/xc32/v3.01/bin/bin/../../lib/gcc/pic32c/8.3.1/../../../../pic32c/lib/thumb/v7e-m+dp/hard\libm_nano.a(lib_a-k_sin.o)
 .comment       0x00000053       0x54 c:/program files/microchip/xc32/v3.01/bin/bin/../../lib/gcc/pic32c/8.3.1/../../../../pic32c/lib/thumb/v7e-m+dp/hard\libm_nano.a(lib_a-s_atan.o)
 .comment       0x00000053       0x54 c:/program files/microchip/xc32/v3.01/bin/bin/../../lib/gcc/pic32c/8.3.1/../../../../pic32c/lib/thumb/v7e-m+dp/hard\libm_nano.a(lib_a-s_fabs.o)
 .comment       0x00000053       0x54 c:/program files/microchip/xc32/v3.01/bin/bin/../../lib/gcc/pic32c/8.3.1/../../../../pic32c/lib/thumb/v7e-m+dp/hard\libm_nano.a(lib_a-s_floor.o)
 .comment       0x00000053       0x54 c:/program files/microchip/xc32/v3.01/bin/bin/../../lib/gcc/pic32c/8.3.1/../../../../pic32c/lib/thumb/v7e-m+dp/hard\libm_nano.a(lib_a-s_lib_ver.o)
 .comment       0x00000053       0x54 c:/program files/microchip/xc32/v3.01/bin/bin/../../lib/gcc/pic32c/8.3.1/../../../../pic32c/lib/thumb/v7e-m+dp/hard\libm_nano.a(lib_a-s_scalbn.o)
 .comment       0x00000053       0x54 c:/program files/microchip/xc32/v3.01/bin/bin/../../lib/gcc/pic32c/8.3.1/../../../../pic32c/lib/thumb/v7e-m+dp/hard\libc_nano.a(lib_a-errno.o)
 .comment       0x00000053       0x54 c:/program files/microchip/xc32/v3.01/bin/bin/../../lib/gcc/pic32c/8.3.1/../../../../pic32c/lib/thumb/v7e-m+dp/hard\libpic32c.a(sbrk.o)
 .comment       0x00000053       0x54 c:/program files/microchip/xc32/v3.01/bin/bin/../../lib/gcc/pic32c/8.3.1/thumb/v7e-m+dp/hard\libgcc.a(_fixdfdi.o)
 .comment       0x00000053       0x54 c:/program files/microchip/xc32/v3.01/bin/bin/../../lib/gcc/pic32c/8.3.1/thumb/v7e-m+dp/hard\libgcc.a(_fixunsdfdi.o)

.debug_info     0x00000000    0x5f36d
 .debug_info    0x00000000     0x1937 build/sam_e70_xult/debug/_ext/957281314/drv_i2c.o
 .debug_info    0x00001937      0xcb4 build/sam_e70_xult/debug/_ext/1565510230/drv_sdmmc_file_system.o
 .debug_info    0x000025eb     0x58f0 build/sam_e70_xult/debug/_ext/1565510230/drv_sdmmc.o
 .debug_info    0x00007edb     0x1c83 build/sam_e70_xult/debug/_ext/716655881/drv_usart.o
 .debug_info    0x00009b5e      0xc3b build/sam_e70_xult/debug/_ext/1613695899/osal_freertos.o
 .debug_info    0x0000a799      0x8d7 build/sam_e70_xult/debug/_ext/1055500827/plib_clk.o
 .debug_info    0x0000b070     0x1545 build/sam_e70_xult/debug/_ext/1055499099/plib_efc.o
 .debug_info    0x0000c5b5     0x1e7d build/sam_e70_xult/debug/_ext/719181653/plib_hsmci.o
 .debug_info    0x0000e432     0x1593 build/sam_e70_xult/debug/_ext/1639550079/plib_nvic.o
 .debug_info    0x0000f9c5     0x1a11 build/sam_e70_xult/debug/_ext/1055488423/plib_pio.o
 .debug_info    0x000113d6     0x1255 build/sam_e70_xult/debug/_ext/1055487991/plib_pwm0.o
 .debug_info    0x0001262b      0x9c9 build/sam_e70_xult/debug/_ext/865331892/plib_tc3.o
 .debug_info    0x00012ff4      0xdb1 build/sam_e70_xult/debug/_ext/1539215101/plib_twihs0_master.o
 .debug_info    0x00013da5     0x1087 build/sam_e70_xult/debug/_ext/707186936/plib_usart1.o
 .debug_info    0x00014e2c     0x1087 build/sam_e70_xult/debug/_ext/707186936/plib_usart0.o
 .debug_info    0x00015eb3     0x1087 build/sam_e70_xult/debug/_ext/707186936/plib_usart2.o
 .debug_info    0x00016f3a      0xdea build/sam_e70_xult/debug/_ext/704852250/plib_xdmac.o
 .debug_info    0x00017d24     0x166e build/sam_e70_xult/debug/_ext/876653320/sys_cache.o
 .debug_info    0x00019392     0x6a5a build/sam_e70_xult/debug/_ext/1043829778/ff.o
 .debug_info    0x0001fdec      0x652 build/sam_e70_xult/debug/_ext/1043829778/ffunicode.o
 .debug_info    0x0002043e     0x1e50 build/sam_e70_xult/debug/_ext/1893760823/diskio.o
 .debug_info    0x0002228e     0x4e7b build/sam_e70_xult/debug/_ext/1305476372/sys_fs.o
 .debug_info    0x00027109     0x3106 build/sam_e70_xult/debug/_ext/1305476372/sys_fs_media_manager.o
 .debug_info    0x0002a20f     0x2545 build/sam_e70_xult/debug/_ext/1305476372/sys_fs_fat_interface.o
 .debug_info    0x0002c754      0xd12 build/sam_e70_xult/debug/_ext/766002106/sys_int.o
 .debug_info    0x0002d466     0x3968 build/sam_e70_xult/debug/_ext/327803284/sys_time.o
 .debug_info    0x00030dce     0x58ca build/sam_e70_xult/debug/_ext/1728594169/initialization.o
 .debug_info    0x00036698     0x290d build/sam_e70_xult/debug/_ext/1728594169/interrupts.o
 .debug_info    0x00038fa5     0x1d30 build/sam_e70_xult/debug/_ext/1728594169/exceptions.o
 .debug_info    0x0003acd5      0xe5f build/sam_e70_xult/debug/_ext/1728594169/startup_xc32.o
 .debug_info    0x0003bb34      0x566 build/sam_e70_xult/debug/_ext/1728594169/freertos_hooks.o
 .debug_info    0x0003c09a     0x2543 build/sam_e70_xult/debug/_ext/1728594169/tasks.o
 .debug_info    0x0003e5dd      0x7b6 build/sam_e70_xult/debug/_ext/977623654/port.o
 .debug_info    0x0003ed93     0x10fb build/sam_e70_xult/debug/_ext/1665200909/heap_1.o
 .debug_info    0x0003fe8e     0x121e build/sam_e70_xult/debug/_ext/404212886/list.o
 .debug_info    0x000410ac     0x2d4b build/sam_e70_xult/debug/_ext/404212886/queue.o
 .debug_info    0x00043df7     0x3a63 build/sam_e70_xult/debug/_ext/404212886/FreeRTOS_tasks.o
 .debug_info    0x0004785a     0x1c82 build/sam_e70_xult/debug/_ext/1360937237/main.o
 .debug_info    0x000494dc     0x1c0c build/sam_e70_xult/debug/_ext/1360937237/app_communication.o
 .debug_info    0x0004b0e8     0x38de build/sam_e70_xult/debug/_ext/1360937237/app_mast_control.o
 .debug_info    0x0004e9c6     0x21b2 build/sam_e70_xult/debug/_ext/1360937237/app_course_algorithm.o
 .debug_info    0x00050b78     0x39c9 build/sam_e70_xult/debug/_ext/1360937237/app_rudder_control.o
 .debug_info    0x00054541     0x1bbb build/sam_e70_xult/debug/_ext/1360937237/app_anemometer.o
 .debug_info    0x000560fc     0x1d9d build/sam_e70_xult/debug/_ext/1360937237/app_gps.o
 .debug_info    0x00057e99     0x17bd build/sam_e70_xult/debug/_ext/1360937237/app_imu.o
 .debug_info    0x00059656      0x2d3 c:/program files/microchip/xc32/v3.01/bin/bin/../../lib/gcc/pic32c/8.3.1/../../../../pic32c/lib/thumb/v7e-m+dp/hard\libpic32c.a(data_init.o)
 .debug_info    0x00059929       0x26 c:/program files/microchip/xc32/v3.01/bin/bin/../../lib/gcc/pic32c/8.3.1/thumb/v7e-m+dp/hard\libgcc.a(_aeabi_uldivmod.o)
 .debug_info    0x0005994f     0x1fe2 c:/program files/microchip/xc32/v3.01/bin/bin/../../lib/gcc/pic32c/8.3.1/thumb/v7e-m+dp/hard\libgcc.a(_udivmoddi4.o)
 .debug_info    0x0005b931       0x26 c:/program files/microchip/xc32/v3.01/bin/bin/../../lib/gcc/pic32c/8.3.1/thumb/v7e-m+dp/hard\libgcc.a(_dvmd_tls.o)
 .debug_info    0x0005b957      0x2b6 c:/program files/microchip/xc32/v3.01/bin/bin/../../lib/gcc/pic32c/8.3.1/../../../../pic32c/lib/thumb/v7e-m+dp/hard\libpic32c.a(sbrk.o)
 .debug_info    0x0005bc0d       0x26 c:/program files/microchip/xc32/v3.01/bin/bin/../../lib/gcc/pic32c/8.3.1/thumb/v7e-m+dp/hard\libgcc.a(_arm_addsubdf3.o)
 .debug_info    0x0005bc33     0x1ba7 c:/program files/microchip/xc32/v3.01/bin/bin/../../lib/gcc/pic32c/8.3.1/thumb/v7e-m+dp/hard\libgcc.a(_fixdfdi.o)
 .debug_info    0x0005d7da     0x1b93 c:/program files/microchip/xc32/v3.01/bin/bin/../../lib/gcc/pic32c/8.3.1/thumb/v7e-m+dp/hard\libgcc.a(_fixunsdfdi.o)

.debug_abbrev   0x00000000     0x8e73
 .debug_abbrev  0x00000000      0x3ac build/sam_e70_xult/debug/_ext/957281314/drv_i2c.o
 .debug_abbrev  0x000003ac      0x176 build/sam_e70_xult/debug/_ext/1565510230/drv_sdmmc_file_system.o
 .debug_abbrev  0x00000522      0x680 build/sam_e70_xult/debug/_ext/1565510230/drv_sdmmc.o
 .debug_abbrev  0x00000ba2      0x3ec build/sam_e70_xult/debug/_ext/716655881/drv_usart.o
 .debug_abbrev  0x00000f8e      0x1f5 build/sam_e70_xult/debug/_ext/1613695899/osal_freertos.o
 .debug_abbrev  0x00001183       0xd5 build/sam_e70_xult/debug/_ext/1055500827/plib_clk.o
 .debug_abbrev  0x00001258      0x30e build/sam_e70_xult/debug/_ext/1055499099/plib_efc.o
 .debug_abbrev  0x00001566      0x3ac build/sam_e70_xult/debug/_ext/719181653/plib_hsmci.o
 .debug_abbrev  0x00001912      0x1f7 build/sam_e70_xult/debug/_ext/1639550079/plib_nvic.o
 .debug_abbrev  0x00001b09      0x285 build/sam_e70_xult/debug/_ext/1055488423/plib_pio.o
 .debug_abbrev  0x00001d8e      0x216 build/sam_e70_xult/debug/_ext/1055487991/plib_pwm0.o
 .debug_abbrev  0x00001fa4      0x1a7 build/sam_e70_xult/debug/_ext/865331892/plib_tc3.o
 .debug_abbrev  0x0000214b      0x2ec build/sam_e70_xult/debug/_ext/1539215101/plib_twihs0_master.o
 .debug_abbrev  0x00002437      0x31f build/sam_e70_xult/debug/_ext/707186936/plib_usart1.o
 .debug_abbrev  0x00002756      0x31f build/sam_e70_xult/debug/_ext/707186936/plib_usart0.o
 .debug_abbrev  0x00002a75      0x31f build/sam_e70_xult/debug/_ext/707186936/plib_usart2.o
 .debug_abbrev  0x00002d94      0x29e build/sam_e70_xult/debug/_ext/704852250/plib_xdmac.o
 .debug_abbrev  0x00003032      0x248 build/sam_e70_xult/debug/_ext/876653320/sys_cache.o
 .debug_abbrev  0x0000327a      0x3f3 build/sam_e70_xult/debug/_ext/1043829778/ff.o
 .debug_abbrev  0x0000366d      0x146 build/sam_e70_xult/debug/_ext/1043829778/ffunicode.o
 .debug_abbrev  0x000037b3      0x445 build/sam_e70_xult/debug/_ext/1893760823/diskio.o
 .debug_abbrev  0x00003bf8      0x554 build/sam_e70_xult/debug/_ext/1305476372/sys_fs.o
 .debug_abbrev  0x0000414c      0x57f build/sam_e70_xult/debug/_ext/1305476372/sys_fs_media_manager.o
 .debug_abbrev  0x000046cb      0x335 build/sam_e70_xult/debug/_ext/1305476372/sys_fs_fat_interface.o
 .debug_abbrev  0x00004a00      0x267 build/sam_e70_xult/debug/_ext/766002106/sys_int.o
 .debug_abbrev  0x00004c67      0x664 build/sam_e70_xult/debug/_ext/327803284/sys_time.o
 .debug_abbrev  0x000052cb      0x377 build/sam_e70_xult/debug/_ext/1728594169/initialization.o
 .debug_abbrev  0x00005642      0x20b build/sam_e70_xult/debug/_ext/1728594169/interrupts.o
 .debug_abbrev  0x0000584d      0x1fe build/sam_e70_xult/debug/_ext/1728594169/exceptions.o
 .debug_abbrev  0x00005a4b      0x24f build/sam_e70_xult/debug/_ext/1728594169/startup_xc32.o
 .debug_abbrev  0x00005c9a      0x13f build/sam_e70_xult/debug/_ext/1728594169/freertos_hooks.o
 .debug_abbrev  0x00005dd9      0x27b build/sam_e70_xult/debug/_ext/1728594169/tasks.o
 .debug_abbrev  0x00006054      0x22f build/sam_e70_xult/debug/_ext/977623654/port.o
 .debug_abbrev  0x00006283      0x2af build/sam_e70_xult/debug/_ext/1665200909/heap_1.o
 .debug_abbrev  0x00006532      0x270 build/sam_e70_xult/debug/_ext/404212886/list.o
 .debug_abbrev  0x000067a2      0x484 build/sam_e70_xult/debug/_ext/404212886/queue.o
 .debug_abbrev  0x00006c26      0x545 build/sam_e70_xult/debug/_ext/404212886/FreeRTOS_tasks.o
 .debug_abbrev  0x0000716b      0x237 build/sam_e70_xult/debug/_ext/1360937237/main.o
 .debug_abbrev  0x000073a2      0x2cb build/sam_e70_xult/debug/_ext/1360937237/app_communication.o
 .debug_abbrev  0x0000766d      0x37f build/sam_e70_xult/debug/_ext/1360937237/app_mast_control.o
 .debug_abbrev  0x000079ec      0x2f5 build/sam_e70_xult/debug/_ext/1360937237/app_course_algorithm.o
 .debug_abbrev  0x00007ce1      0x35c build/sam_e70_xult/debug/_ext/1360937237/app_rudder_control.o
 .debug_abbrev  0x0000803d      0x30e build/sam_e70_xult/debug/_ext/1360937237/app_anemometer.o
 .debug_abbrev  0x0000834b      0x330 build/sam_e70_xult/debug/_ext/1360937237/app_gps.o
 .debug_abbrev  0x0000867b      0x30e build/sam_e70_xult/debug/_ext/1360937237/app_imu.o
 .debug_abbrev  0x00008989       0x2e c:/program files/microchip/xc32/v3.01/bin/bin/../../lib/gcc/pic32c/8.3.1/../../../../pic32c/lib/thumb/v7e-m+dp/hard\libpic32c.a(data_init.o)
 .debug_abbrev  0x000089b7       0x14 c:/program files/microchip/xc32/v3.01/bin/bin/../../lib/gcc/pic32c/8.3.1/thumb/v7e-m+dp/hard\libgcc.a(_aeabi_uldivmod.o)
 .debug_abbrev  0x000089cb      0x192 c:/program files/microchip/xc32/v3.01/bin/bin/../../lib/gcc/pic32c/8.3.1/thumb/v7e-m+dp/hard\libgcc.a(_udivmoddi4.o)
 .debug_abbrev  0x00008b5d       0x14 c:/program files/microchip/xc32/v3.01/bin/bin/../../lib/gcc/pic32c/8.3.1/thumb/v7e-m+dp/hard\libgcc.a(_dvmd_tls.o)
 .debug_abbrev  0x00008b71       0x2e c:/program files/microchip/xc32/v3.01/bin/bin/../../lib/gcc/pic32c/8.3.1/../../../../pic32c/lib/thumb/v7e-m+dp/hard\libpic32c.a(sbrk.o)
 .debug_abbrev  0x00008b9f       0x14 c:/program files/microchip/xc32/v3.01/bin/bin/../../lib/gcc/pic32c/8.3.1/thumb/v7e-m+dp/hard\libgcc.a(_arm_addsubdf3.o)
 .debug_abbrev  0x00008bb3      0x16d c:/program files/microchip/xc32/v3.01/bin/bin/../../lib/gcc/pic32c/8.3.1/thumb/v7e-m+dp/hard\libgcc.a(_fixdfdi.o)
 .debug_abbrev  0x00008d20      0x153 c:/program files/microchip/xc32/v3.01/bin/bin/../../lib/gcc/pic32c/8.3.1/thumb/v7e-m+dp/hard\libgcc.a(_fixunsdfdi.o)

.debug_loc      0x00000000    0x23b40
 .debug_loc     0x00000000      0xbcf build/sam_e70_xult/debug/_ext/957281314/drv_i2c.o
 .debug_loc     0x00000bcf       0x45 build/sam_e70_xult/debug/_ext/1565510230/drv_sdmmc_file_system.o
 .debug_loc     0x00000c14     0x22e1 build/sam_e70_xult/debug/_ext/1565510230/drv_sdmmc.o
 .debug_loc     0x00002ef5      0xca0 build/sam_e70_xult/debug/_ext/716655881/drv_usart.o
 .debug_loc     0x00003b95      0x727 build/sam_e70_xult/debug/_ext/1613695899/osal_freertos.o
 .debug_loc     0x000042bc      0x611 build/sam_e70_xult/debug/_ext/1055499099/plib_efc.o
 .debug_loc     0x000048cd      0x51f build/sam_e70_xult/debug/_ext/719181653/plib_hsmci.o
 .debug_loc     0x00004dec      0x37a build/sam_e70_xult/debug/_ext/1639550079/plib_nvic.o
 .debug_loc     0x00005166      0x33e build/sam_e70_xult/debug/_ext/1055488423/plib_pio.o
 .debug_loc     0x000054a4      0x197 build/sam_e70_xult/debug/_ext/1055487991/plib_pwm0.o
 .debug_loc     0x0000563b       0x46 build/sam_e70_xult/debug/_ext/865331892/plib_tc3.o
 .debug_loc     0x00005681      0x6b3 build/sam_e70_xult/debug/_ext/1539215101/plib_twihs0_master.o
 .debug_loc     0x00005d34      0x631 build/sam_e70_xult/debug/_ext/707186936/plib_usart1.o
 .debug_loc     0x00006365      0x631 build/sam_e70_xult/debug/_ext/707186936/plib_usart0.o
 .debug_loc     0x00006996      0x631 build/sam_e70_xult/debug/_ext/707186936/plib_usart2.o
 .debug_loc     0x00006fc7      0x38b build/sam_e70_xult/debug/_ext/704852250/plib_xdmac.o
 .debug_loc     0x00007352      0x6bb build/sam_e70_xult/debug/_ext/876653320/sys_cache.o
 .debug_loc     0x00007a0d     0xa0a1 build/sam_e70_xult/debug/_ext/1043829778/ff.o
 .debug_loc     0x00011aae      0x52d build/sam_e70_xult/debug/_ext/1043829778/ffunicode.o
 .debug_loc     0x00011fdb      0x99b build/sam_e70_xult/debug/_ext/1893760823/diskio.o
 .debug_loc     0x00012976     0x4bf4 build/sam_e70_xult/debug/_ext/1305476372/sys_fs.o
 .debug_loc     0x0001756a     0x16a5 build/sam_e70_xult/debug/_ext/1305476372/sys_fs_media_manager.o
 .debug_loc     0x00018c0f     0x1c7a build/sam_e70_xult/debug/_ext/1305476372/sys_fs_fat_interface.o
 .debug_loc     0x0001a889      0x182 build/sam_e70_xult/debug/_ext/766002106/sys_int.o
 .debug_loc     0x0001aa0b     0x22b8 build/sam_e70_xult/debug/_ext/327803284/sys_time.o
 .debug_loc     0x0001ccc3       0x45 build/sam_e70_xult/debug/_ext/1728594169/initialization.o
 .debug_loc     0x0001cd08       0xa7 build/sam_e70_xult/debug/_ext/1728594169/startup_xc32.o
 .debug_loc     0x0001cdaf       0x82 build/sam_e70_xult/debug/_ext/1728594169/freertos_hooks.o
 .debug_loc     0x0001ce31      0x2a5 build/sam_e70_xult/debug/_ext/1728594169/tasks.o
 .debug_loc     0x0001d0d6      0x13a build/sam_e70_xult/debug/_ext/977623654/port.o
 .debug_loc     0x0001d210       0x80 build/sam_e70_xult/debug/_ext/1665200909/heap_1.o
 .debug_loc     0x0001d290       0xbf build/sam_e70_xult/debug/_ext/404212886/list.o
 .debug_loc     0x0001d34f     0x16e4 build/sam_e70_xult/debug/_ext/404212886/queue.o
 .debug_loc     0x0001ea33     0x211d build/sam_e70_xult/debug/_ext/404212886/FreeRTOS_tasks.o
 .debug_loc     0x00020b50       0x20 build/sam_e70_xult/debug/_ext/1360937237/main.o
 .debug_loc     0x00020b70      0x29a build/sam_e70_xult/debug/_ext/1360937237/app_communication.o
 .debug_loc     0x00020e0a       0xdb build/sam_e70_xult/debug/_ext/1360937237/app_mast_control.o
 .debug_loc     0x00020ee5      0x7db build/sam_e70_xult/debug/_ext/1360937237/app_course_algorithm.o
 .debug_loc     0x000216c0      0x160 build/sam_e70_xult/debug/_ext/1360937237/app_rudder_control.o
 .debug_loc     0x00021820      0x84c build/sam_e70_xult/debug/_ext/1360937237/app_anemometer.o
 .debug_loc     0x0002206c      0x6dd build/sam_e70_xult/debug/_ext/1360937237/app_gps.o
 .debug_loc     0x00022749      0x2ed build/sam_e70_xult/debug/_ext/1360937237/app_imu.o
 .debug_loc     0x00022a36       0x14 c:/program files/microchip/xc32/v3.01/bin/bin/../../lib/gcc/pic32c/8.3.1/../../../../pic32c/lib/thumb/v7e-m+dp/hard\libpic32c.a(data_init.o)
 .debug_loc     0x00022a4a     0x1041 c:/program files/microchip/xc32/v3.01/bin/bin/../../lib/gcc/pic32c/8.3.1/thumb/v7e-m+dp/hard\libgcc.a(_udivmoddi4.o)
 .debug_loc     0x00023a8b       0x72 c:/program files/microchip/xc32/v3.01/bin/bin/../../lib/gcc/pic32c/8.3.1/thumb/v7e-m+dp/hard\libgcc.a(_fixdfdi.o)
 .debug_loc     0x00023afd       0x43 c:/program files/microchip/xc32/v3.01/bin/bin/../../lib/gcc/pic32c/8.3.1/thumb/v7e-m+dp/hard\libgcc.a(_fixunsdfdi.o)

.debug_aranges  0x00000000     0x1708
 .debug_aranges
                0x00000000       0x78 build/sam_e70_xult/debug/_ext/957281314/drv_i2c.o
 .debug_aranges
                0x00000078       0x20 build/sam_e70_xult/debug/_ext/1565510230/drv_sdmmc_file_system.o
 .debug_aranges
                0x00000098       0xb0 build/sam_e70_xult/debug/_ext/1565510230/drv_sdmmc.o
 .debug_aranges
                0x00000148       0x70 build/sam_e70_xult/debug/_ext/716655881/drv_usart.o
 .debug_aranges
                0x000001b8       0x90 build/sam_e70_xult/debug/_ext/1613695899/osal_freertos.o
 .debug_aranges
                0x00000248       0x20 build/sam_e70_xult/debug/_ext/1055500827/plib_clk.o
 .debug_aranges
                0x00000268       0x70 build/sam_e70_xult/debug/_ext/1055499099/plib_efc.o
 .debug_aranges
                0x000002d8       0x98 build/sam_e70_xult/debug/_ext/719181653/plib_hsmci.o
 .debug_aranges
                0x00000370       0x38 build/sam_e70_xult/debug/_ext/1639550079/plib_nvic.o
 .debug_aranges
                0x000003a8       0x98 build/sam_e70_xult/debug/_ext/1055488423/plib_pio.o
 .debug_aranges
                0x00000440       0x90 build/sam_e70_xult/debug/_ext/1055487991/plib_pwm0.o
 .debug_aranges
                0x000004d0       0x68 build/sam_e70_xult/debug/_ext/865331892/plib_tc3.o
 .debug_aranges
                0x00000538       0x70 build/sam_e70_xult/debug/_ext/1539215101/plib_twihs0_master.o
 .debug_aranges
                0x000005a8       0x88 build/sam_e70_xult/debug/_ext/707186936/plib_usart1.o
 .debug_aranges
                0x00000630       0x88 build/sam_e70_xult/debug/_ext/707186936/plib_usart0.o
 .debug_aranges
                0x000006b8       0x88 build/sam_e70_xult/debug/_ext/707186936/plib_usart2.o
 .debug_aranges
                0x00000740       0x78 build/sam_e70_xult/debug/_ext/704852250/plib_xdmac.o
 .debug_aranges
                0x000007b8       0x80 build/sam_e70_xult/debug/_ext/876653320/sys_cache.o
 .debug_aranges
                0x00000838      0x220 build/sam_e70_xult/debug/_ext/1043829778/ff.o
 .debug_aranges
                0x00000a58       0x30 build/sam_e70_xult/debug/_ext/1043829778/ffunicode.o
 .debug_aranges
                0x00000a88       0x60 build/sam_e70_xult/debug/_ext/1893760823/diskio.o
 .debug_aranges
                0x00000ae8      0x170 build/sam_e70_xult/debug/_ext/1305476372/sys_fs.o
 .debug_aranges
                0x00000c58       0x98 build/sam_e70_xult/debug/_ext/1305476372/sys_fs_media_manager.o
 .debug_aranges
                0x00000cf0      0x130 build/sam_e70_xult/debug/_ext/1305476372/sys_fs_fat_interface.o
 .debug_aranges
                0x00000e20       0x40 build/sam_e70_xult/debug/_ext/766002106/sys_int.o
 .debug_aranges
                0x00000e60      0x130 build/sam_e70_xult/debug/_ext/327803284/sys_time.o
 .debug_aranges
                0x00000f90       0x20 build/sam_e70_xult/debug/_ext/1728594169/initialization.o
 .debug_aranges
                0x00000fb0       0x20 build/sam_e70_xult/debug/_ext/1728594169/interrupts.o
 .debug_aranges
                0x00000fd0       0x48 build/sam_e70_xult/debug/_ext/1728594169/exceptions.o
 .debug_aranges
                0x00001018       0x28 build/sam_e70_xult/debug/_ext/1728594169/startup_xc32.o
 .debug_aranges
                0x00001040       0x40 build/sam_e70_xult/debug/_ext/1728594169/freertos_hooks.o
 .debug_aranges
                0x00001080       0x68 build/sam_e70_xult/debug/_ext/1728594169/tasks.o
 .debug_aranges
                0x000010e8       0x78 build/sam_e70_xult/debug/_ext/977623654/port.o
 .debug_aranges
                0x00001160       0x38 build/sam_e70_xult/debug/_ext/1665200909/heap_1.o
 .debug_aranges
                0x00001198       0x40 build/sam_e70_xult/debug/_ext/404212886/list.o
 .debug_aranges
                0x000011d8       0xc8 build/sam_e70_xult/debug/_ext/404212886/queue.o
 .debug_aranges
                0x000012a0      0x178 build/sam_e70_xult/debug/_ext/404212886/FreeRTOS_tasks.o
 .debug_aranges
                0x00001418       0x20 build/sam_e70_xult/debug/_ext/1360937237/main.o
 .debug_aranges
                0x00001438       0x40 build/sam_e70_xult/debug/_ext/1360937237/app_communication.o
 .debug_aranges
                0x00001478       0x48 build/sam_e70_xult/debug/_ext/1360937237/app_mast_control.o
 .debug_aranges
                0x000014c0       0x38 build/sam_e70_xult/debug/_ext/1360937237/app_course_algorithm.o
 .debug_aranges
                0x000014f8       0x38 build/sam_e70_xult/debug/_ext/1360937237/app_rudder_control.o
 .debug_aranges
                0x00001530       0x40 build/sam_e70_xult/debug/_ext/1360937237/app_anemometer.o
 .debug_aranges
                0x00001570       0x60 build/sam_e70_xult/debug/_ext/1360937237/app_gps.o
 .debug_aranges
                0x000015d0       0x38 build/sam_e70_xult/debug/_ext/1360937237/app_imu.o
 .debug_aranges
                0x00001608       0x20 c:/program files/microchip/xc32/v3.01/bin/bin/../../lib/gcc/pic32c/8.3.1/../../../../pic32c/lib/thumb/v7e-m+dp/hard\libpic32c.a(data_init.o)
 .debug_aranges
                0x00001628       0x20 c:/program files/microchip/xc32/v3.01/bin/bin/../../lib/gcc/pic32c/8.3.1/thumb/v7e-m+dp/hard\libgcc.a(_aeabi_uldivmod.o)
 .debug_aranges
                0x00001648       0x20 c:/program files/microchip/xc32/v3.01/bin/bin/../../lib/gcc/pic32c/8.3.1/thumb/v7e-m+dp/hard\libgcc.a(_udivmoddi4.o)
 .debug_aranges
                0x00001668       0x20 c:/program files/microchip/xc32/v3.01/bin/bin/../../lib/gcc/pic32c/8.3.1/thumb/v7e-m+dp/hard\libgcc.a(_dvmd_tls.o)
 .debug_aranges
                0x00001688       0x20 c:/program files/microchip/xc32/v3.01/bin/bin/../../lib/gcc/pic32c/8.3.1/../../../../pic32c/lib/thumb/v7e-m+dp/hard\libpic32c.a(sbrk.o)
 .debug_aranges
                0x000016a8       0x20 c:/program files/microchip/xc32/v3.01/bin/bin/../../lib/gcc/pic32c/8.3.1/thumb/v7e-m+dp/hard\libgcc.a(_arm_addsubdf3.o)
 .debug_aranges
                0x000016c8       0x20 c:/program files/microchip/xc32/v3.01/bin/bin/../../lib/gcc/pic32c/8.3.1/thumb/v7e-m+dp/hard\libgcc.a(_fixdfdi.o)
 .debug_aranges
                0x000016e8       0x20 c:/program files/microchip/xc32/v3.01/bin/bin/../../lib/gcc/pic32c/8.3.1/thumb/v7e-m+dp/hard\libgcc.a(_fixunsdfdi.o)

.debug_ranges   0x00000000     0x1ae8
 .debug_ranges  0x00000000       0x68 build/sam_e70_xult/debug/_ext/957281314/drv_i2c.o
 .debug_ranges  0x00000068       0x10 build/sam_e70_xult/debug/_ext/1565510230/drv_sdmmc_file_system.o
 .debug_ranges  0x00000078       0xe8 build/sam_e70_xult/debug/_ext/1565510230/drv_sdmmc.o
 .debug_ranges  0x00000160       0x78 build/sam_e70_xult/debug/_ext/716655881/drv_usart.o
 .debug_ranges  0x000001d8       0x80 build/sam_e70_xult/debug/_ext/1613695899/osal_freertos.o
 .debug_ranges  0x00000258       0x10 build/sam_e70_xult/debug/_ext/1055500827/plib_clk.o
 .debug_ranges  0x00000268       0x90 build/sam_e70_xult/debug/_ext/1055499099/plib_efc.o
 .debug_ranges  0x000002f8       0x88 build/sam_e70_xult/debug/_ext/719181653/plib_hsmci.o
 .debug_ranges  0x00000380       0x28 build/sam_e70_xult/debug/_ext/1639550079/plib_nvic.o
 .debug_ranges  0x000003a8       0x88 build/sam_e70_xult/debug/_ext/1055488423/plib_pio.o
 .debug_ranges  0x00000430       0x80 build/sam_e70_xult/debug/_ext/1055487991/plib_pwm0.o
 .debug_ranges  0x000004b0       0x58 build/sam_e70_xult/debug/_ext/865331892/plib_tc3.o
 .debug_ranges  0x00000508       0x60 build/sam_e70_xult/debug/_ext/1539215101/plib_twihs0_master.o
 .debug_ranges  0x00000568       0x78 build/sam_e70_xult/debug/_ext/707186936/plib_usart1.o
 .debug_ranges  0x000005e0       0x78 build/sam_e70_xult/debug/_ext/707186936/plib_usart0.o
 .debug_ranges  0x00000658       0x78 build/sam_e70_xult/debug/_ext/707186936/plib_usart2.o
 .debug_ranges  0x000006d0       0x68 build/sam_e70_xult/debug/_ext/704852250/plib_xdmac.o
 .debug_ranges  0x00000738       0xe8 build/sam_e70_xult/debug/_ext/876653320/sys_cache.o
 .debug_ranges  0x00000820      0x430 build/sam_e70_xult/debug/_ext/1043829778/ff.o
 .debug_ranges  0x00000c50       0x20 build/sam_e70_xult/debug/_ext/1043829778/ffunicode.o
 .debug_ranges  0x00000c70       0x68 build/sam_e70_xult/debug/_ext/1893760823/diskio.o
 .debug_ranges  0x00000cd8      0x160 build/sam_e70_xult/debug/_ext/1305476372/sys_fs.o
 .debug_ranges  0x00000e38      0x110 build/sam_e70_xult/debug/_ext/1305476372/sys_fs_media_manager.o
 .debug_ranges  0x00000f48      0x150 build/sam_e70_xult/debug/_ext/1305476372/sys_fs_fat_interface.o
 .debug_ranges  0x00001098       0x48 build/sam_e70_xult/debug/_ext/766002106/sys_int.o
 .debug_ranges  0x000010e0      0x168 build/sam_e70_xult/debug/_ext/327803284/sys_time.o
 .debug_ranges  0x00001248       0x10 build/sam_e70_xult/debug/_ext/1728594169/initialization.o
 .debug_ranges  0x00001258       0x10 build/sam_e70_xult/debug/_ext/1728594169/interrupts.o
 .debug_ranges  0x00001268       0x38 build/sam_e70_xult/debug/_ext/1728594169/exceptions.o
 .debug_ranges  0x000012a0       0x48 build/sam_e70_xult/debug/_ext/1728594169/startup_xc32.o
 .debug_ranges  0x000012e8       0x30 build/sam_e70_xult/debug/_ext/1728594169/freertos_hooks.o
 .debug_ranges  0x00001318       0x58 build/sam_e70_xult/debug/_ext/1728594169/tasks.o
 .debug_ranges  0x00001370       0x68 build/sam_e70_xult/debug/_ext/977623654/port.o
 .debug_ranges  0x000013d8       0x28 build/sam_e70_xult/debug/_ext/1665200909/heap_1.o
 .debug_ranges  0x00001400       0x30 build/sam_e70_xult/debug/_ext/404212886/list.o
 .debug_ranges  0x00001430      0x180 build/sam_e70_xult/debug/_ext/404212886/queue.o
 .debug_ranges  0x000015b0      0x288 build/sam_e70_xult/debug/_ext/404212886/FreeRTOS_tasks.o
 .debug_ranges  0x00001838       0x10 build/sam_e70_xult/debug/_ext/1360937237/main.o
 .debug_ranges  0x00001848       0x30 build/sam_e70_xult/debug/_ext/1360937237/app_communication.o
 .debug_ranges  0x00001878       0x38 build/sam_e70_xult/debug/_ext/1360937237/app_mast_control.o
 .debug_ranges  0x000018b0       0x28 build/sam_e70_xult/debug/_ext/1360937237/app_course_algorithm.o
 .debug_ranges  0x000018d8       0x70 build/sam_e70_xult/debug/_ext/1360937237/app_rudder_control.o
 .debug_ranges  0x00001948       0x30 build/sam_e70_xult/debug/_ext/1360937237/app_anemometer.o
 .debug_ranges  0x00001978       0x50 build/sam_e70_xult/debug/_ext/1360937237/app_gps.o
 .debug_ranges  0x000019c8       0x28 build/sam_e70_xult/debug/_ext/1360937237/app_imu.o
 .debug_ranges  0x000019f0       0x10 c:/program files/microchip/xc32/v3.01/bin/bin/../../lib/gcc/pic32c/8.3.1/../../../../pic32c/lib/thumb/v7e-m+dp/hard\libpic32c.a(data_init.o)
 .debug_ranges  0x00001a00       0xd8 c:/program files/microchip/xc32/v3.01/bin/bin/../../lib/gcc/pic32c/8.3.1/thumb/v7e-m+dp/hard\libgcc.a(_udivmoddi4.o)
 .debug_ranges  0x00001ad8       0x10 c:/program files/microchip/xc32/v3.01/bin/bin/../../lib/gcc/pic32c/8.3.1/../../../../pic32c/lib/thumb/v7e-m+dp/hard\libpic32c.a(sbrk.o)

.debug_line     0x00000000    0x1c261
 .debug_line    0x00000000      0x851 build/sam_e70_xult/debug/_ext/957281314/drv_i2c.o
 .debug_line    0x00000851      0x206 build/sam_e70_xult/debug/_ext/1565510230/drv_sdmmc_file_system.o
 .debug_line    0x00000a57     0x1ea0 build/sam_e70_xult/debug/_ext/1565510230/drv_sdmmc.o
 .debug_line    0x000028f7      0x8e9 build/sam_e70_xult/debug/_ext/716655881/drv_usart.o
 .debug_line    0x000031e0      0x4e1 build/sam_e70_xult/debug/_ext/1613695899/osal_freertos.o
 .debug_line    0x000036c1      0x208 build/sam_e70_xult/debug/_ext/1055500827/plib_clk.o
 .debug_line    0x000038c9      0x49a build/sam_e70_xult/debug/_ext/1055499099/plib_efc.o
 .debug_line    0x00003d63      0x825 build/sam_e70_xult/debug/_ext/719181653/plib_hsmci.o
 .debug_line    0x00004588      0x57d build/sam_e70_xult/debug/_ext/1639550079/plib_nvic.o
 .debug_line    0x00004b05      0x626 build/sam_e70_xult/debug/_ext/1055488423/plib_pio.o
 .debug_line    0x0000512b      0x3b6 build/sam_e70_xult/debug/_ext/1055487991/plib_pwm0.o
 .debug_line    0x000054e1      0x2b4 build/sam_e70_xult/debug/_ext/865331892/plib_tc3.o
 .debug_line    0x00005795      0x827 build/sam_e70_xult/debug/_ext/1539215101/plib_twihs0_master.o
 .debug_line    0x00005fbc      0x730 build/sam_e70_xult/debug/_ext/707186936/plib_usart1.o
 .debug_line    0x000066ec      0x730 build/sam_e70_xult/debug/_ext/707186936/plib_usart0.o
 .debug_line    0x00006e1c      0x730 build/sam_e70_xult/debug/_ext/707186936/plib_usart2.o
 .debug_line    0x0000754c      0x4bf build/sam_e70_xult/debug/_ext/704852250/plib_xdmac.o
 .debug_line    0x00007a0b      0xb33 build/sam_e70_xult/debug/_ext/876653320/sys_cache.o
 .debug_line    0x0000853e     0x4d60 build/sam_e70_xult/debug/_ext/1043829778/ff.o
 .debug_line    0x0000d29e      0x323 build/sam_e70_xult/debug/_ext/1043829778/ffunicode.o
 .debug_line    0x0000d5c1      0x5f0 build/sam_e70_xult/debug/_ext/1893760823/diskio.o
 .debug_line    0x0000dbb1     0x274a build/sam_e70_xult/debug/_ext/1305476372/sys_fs.o
 .debug_line    0x000102fb      0xeba build/sam_e70_xult/debug/_ext/1305476372/sys_fs_media_manager.o
 .debug_line    0x000111b5      0xa3d build/sam_e70_xult/debug/_ext/1305476372/sys_fs_fat_interface.o
 .debug_line    0x00011bf2      0x31d build/sam_e70_xult/debug/_ext/766002106/sys_int.o
 .debug_line    0x00011f0f     0x12a4 build/sam_e70_xult/debug/_ext/327803284/sys_time.o
 .debug_line    0x000131b3      0x9f2 build/sam_e70_xult/debug/_ext/1728594169/initialization.o
 .debug_line    0x00013ba5      0x39c build/sam_e70_xult/debug/_ext/1728594169/interrupts.o
 .debug_line    0x00013f41      0x3e8 build/sam_e70_xult/debug/_ext/1728594169/exceptions.o
 .debug_line    0x00014329      0x4b9 build/sam_e70_xult/debug/_ext/1728594169/startup_xc32.o
 .debug_line    0x000147e2      0x22d build/sam_e70_xult/debug/_ext/1728594169/freertos_hooks.o
 .debug_line    0x00014a0f      0x589 build/sam_e70_xult/debug/_ext/1728594169/tasks.o
 .debug_line    0x00014f98      0x3a9 build/sam_e70_xult/debug/_ext/977623654/port.o
 .debug_line    0x00015341      0x2d8 build/sam_e70_xult/debug/_ext/1665200909/heap_1.o
 .debug_line    0x00015619      0x3cf build/sam_e70_xult/debug/_ext/404212886/list.o
 .debug_line    0x000159e8      0xf83 build/sam_e70_xult/debug/_ext/404212886/queue.o
 .debug_line    0x0001696b     0x1813 build/sam_e70_xult/debug/_ext/404212886/FreeRTOS_tasks.o
 .debug_line    0x0001817e      0x371 build/sam_e70_xult/debug/_ext/1360937237/main.o
 .debug_line    0x000184ef      0x716 build/sam_e70_xult/debug/_ext/1360937237/app_communication.o
 .debug_line    0x00018c05      0x635 build/sam_e70_xult/debug/_ext/1360937237/app_mast_control.o
 .debug_line    0x0001923a      0x5ab build/sam_e70_xult/debug/_ext/1360937237/app_course_algorithm.o
 .debug_line    0x000197e5      0x6df build/sam_e70_xult/debug/_ext/1360937237/app_rudder_control.o
 .debug_line    0x00019ec4      0x6e1 build/sam_e70_xult/debug/_ext/1360937237/app_anemometer.o
 .debug_line    0x0001a5a5      0x7b3 build/sam_e70_xult/debug/_ext/1360937237/app_gps.o
 .debug_line    0x0001ad58      0x54d build/sam_e70_xult/debug/_ext/1360937237/app_imu.o
 .debug_line    0x0001b2a5      0x110 c:/program files/microchip/xc32/v3.01/bin/bin/../../lib/gcc/pic32c/8.3.1/../../../../pic32c/lib/thumb/v7e-m+dp/hard\libpic32c.a(data_init.o)
 .debug_line    0x0001b3b5       0x9c c:/program files/microchip/xc32/v3.01/bin/bin/../../lib/gcc/pic32c/8.3.1/thumb/v7e-m+dp/hard\libgcc.a(_aeabi_uldivmod.o)
 .debug_line    0x0001b451      0x57e c:/program files/microchip/xc32/v3.01/bin/bin/../../lib/gcc/pic32c/8.3.1/thumb/v7e-m+dp/hard\libgcc.a(_udivmoddi4.o)
 .debug_line    0x0001b9cf       0x9c c:/program files/microchip/xc32/v3.01/bin/bin/../../lib/gcc/pic32c/8.3.1/thumb/v7e-m+dp/hard\libgcc.a(_dvmd_tls.o)
 .debug_line    0x0001ba6b       0xb5 c:/program files/microchip/xc32/v3.01/bin/bin/../../lib/gcc/pic32c/8.3.1/../../../../pic32c/lib/thumb/v7e-m+dp/hard\libpic32c.a(sbrk.o)
 .debug_line    0x0001bb20      0x1c1 c:/program files/microchip/xc32/v3.01/bin/bin/../../lib/gcc/pic32c/8.3.1/thumb/v7e-m+dp/hard\libgcc.a(_arm_addsubdf3.o)
 .debug_line    0x0001bce1      0x2c0 c:/program files/microchip/xc32/v3.01/bin/bin/../../lib/gcc/pic32c/8.3.1/thumb/v7e-m+dp/hard\libgcc.a(_fixdfdi.o)
 .debug_line    0x0001bfa1      0x2c0 c:/program files/microchip/xc32/v3.01/bin/bin/../../lib/gcc/pic32c/8.3.1/thumb/v7e-m+dp/hard\libgcc.a(_fixunsdfdi.o)

.debug_str      0x00000000     0x20e4
 .debug_str     0x00000000       0xdf build/sam_e70_xult/debug/_ext/957281314/drv_i2c.o
 .debug_str     0x000000df       0x1e build/sam_e70_xult/debug/_ext/1565510230/drv_sdmmc_file_system.o
 .debug_str     0x000000fd      0x288 build/sam_e70_xult/debug/_ext/1565510230/drv_sdmmc.o
 .debug_str     0x00000385      0x116 build/sam_e70_xult/debug/_ext/716655881/drv_usart.o
 .debug_str     0x0000049b      0x13b build/sam_e70_xult/debug/_ext/1613695899/osal_freertos.o
 .debug_str     0x000005d6        0x0 build/sam_e70_xult/debug/_ext/1055500827/plib_clk.o
 .debug_str     0x000005d6       0x22 build/sam_e70_xult/debug/_ext/1055499099/plib_efc.o
 .debug_str     0x000005f8       0x65 build/sam_e70_xult/debug/_ext/719181653/plib_hsmci.o
 .debug_str     0x0000065d       0x28 build/sam_e70_xult/debug/_ext/1639550079/plib_nvic.o
 .debug_str     0x00000685       0x59 build/sam_e70_xult/debug/_ext/1055488423/plib_pio.o
 .debug_str     0x000006de       0x14 build/sam_e70_xult/debug/_ext/1055487991/plib_pwm0.o
 .debug_str     0x000006f2        0xa build/sam_e70_xult/debug/_ext/865331892/plib_tc3.o
 .debug_str     0x000006fc       0x11 build/sam_e70_xult/debug/_ext/1539215101/plib_twihs0_master.o
 .debug_str     0x0000070d       0x1c build/sam_e70_xult/debug/_ext/707186936/plib_usart1.o
 .debug_str     0x00000729       0x1c build/sam_e70_xult/debug/_ext/707186936/plib_usart0.o
 .debug_str     0x00000745       0x1c build/sam_e70_xult/debug/_ext/707186936/plib_usart2.o
 .debug_str     0x00000761       0x2b build/sam_e70_xult/debug/_ext/704852250/plib_xdmac.o
 .debug_str     0x0000078c       0x1c build/sam_e70_xult/debug/_ext/876653320/sys_cache.o
 .debug_str     0x000007a8       0x80 build/sam_e70_xult/debug/_ext/1043829778/ff.o
 .debug_str     0x00000828        0x0 build/sam_e70_xult/debug/_ext/1043829778/ffunicode.o
 .debug_str     0x00000828       0xfb build/sam_e70_xult/debug/_ext/1893760823/diskio.o
 .debug_str     0x00000923      0x161 build/sam_e70_xult/debug/_ext/1305476372/sys_fs.o
 .debug_str     0x00000a84       0xe0 build/sam_e70_xult/debug/_ext/1305476372/sys_fs_media_manager.o
 .debug_str     0x00000b64       0x96 build/sam_e70_xult/debug/_ext/1305476372/sys_fs_fat_interface.o
 .debug_str     0x00000bfa       0x32 build/sam_e70_xult/debug/_ext/766002106/sys_int.o
 .debug_str     0x00000c2c      0x16e build/sam_e70_xult/debug/_ext/327803284/sys_time.o
 .debug_str     0x00000d9a      0x34f build/sam_e70_xult/debug/_ext/1728594169/initialization.o
 .debug_str     0x000010e9       0x64 build/sam_e70_xult/debug/_ext/1728594169/interrupts.o
 .debug_str     0x0000114d       0x64 build/sam_e70_xult/debug/_ext/1728594169/exceptions.o
 .debug_str     0x000011b1       0x2f build/sam_e70_xult/debug/_ext/1728594169/startup_xc32.o
 .debug_str     0x000011e0       0x25 build/sam_e70_xult/debug/_ext/1728594169/freertos_hooks.o
 .debug_str     0x00001205      0x14d build/sam_e70_xult/debug/_ext/1728594169/tasks.o
 .debug_str     0x00001352       0x26 build/sam_e70_xult/debug/_ext/977623654/port.o
 .debug_str     0x00001378       0x4a build/sam_e70_xult/debug/_ext/1665200909/heap_1.o
 .debug_str     0x000013c2       0x39 build/sam_e70_xult/debug/_ext/404212886/list.o
 .debug_str     0x000013fb      0x28d build/sam_e70_xult/debug/_ext/404212886/queue.o
 .debug_str     0x00001688      0x283 build/sam_e70_xult/debug/_ext/404212886/FreeRTOS_tasks.o
 .debug_str     0x0000190b       0x7d build/sam_e70_xult/debug/_ext/1360937237/main.o
 .debug_str     0x00001988       0x85 build/sam_e70_xult/debug/_ext/1360937237/app_communication.o
 .debug_str     0x00001a0d      0x136 build/sam_e70_xult/debug/_ext/1360937237/app_mast_control.o
 .debug_str     0x00001b43       0x78 build/sam_e70_xult/debug/_ext/1360937237/app_course_algorithm.o
 .debug_str     0x00001bbb      0x149 build/sam_e70_xult/debug/_ext/1360937237/app_rudder_control.o
 .debug_str     0x00001d04       0x78 build/sam_e70_xult/debug/_ext/1360937237/app_anemometer.o
 .debug_str     0x00001d7c       0x5a build/sam_e70_xult/debug/_ext/1360937237/app_gps.o
 .debug_str     0x00001dd6       0x3b build/sam_e70_xult/debug/_ext/1360937237/app_imu.o
 .debug_str     0x00001e11        0x0 c:/program files/microchip/xc32/v3.01/bin/bin/../../lib/gcc/pic32c/8.3.1/../../../../pic32c/lib/thumb/v7e-m+dp/hard\libpic32c.a(data_init.o)
 .debug_str     0x00001e11       0xee c:/program files/microchip/xc32/v3.01/bin/bin/../../lib/gcc/pic32c/8.3.1/thumb/v7e-m+dp/hard\libgcc.a(_aeabi_uldivmod.o)
 .debug_str     0x00001eff        0x0 c:/program files/microchip/xc32/v3.01/bin/bin/../../lib/gcc/pic32c/8.3.1/thumb/v7e-m+dp/hard\libgcc.a(_udivmoddi4.o)
 .debug_str     0x00001eff       0xf2 c:/program files/microchip/xc32/v3.01/bin/bin/../../lib/gcc/pic32c/8.3.1/thumb/v7e-m+dp/hard\libgcc.a(_dvmd_tls.o)
 .debug_str     0x00001ff1        0x0 c:/program files/microchip/xc32/v3.01/bin/bin/../../lib/gcc/pic32c/8.3.1/../../../../pic32c/lib/thumb/v7e-m+dp/hard\libpic32c.a(sbrk.o)
 .debug_str     0x00001ff1       0xf3 c:/program files/microchip/xc32/v3.01/bin/bin/../../lib/gcc/pic32c/8.3.1/thumb/v7e-m+dp/hard\libgcc.a(_arm_addsubdf3.o)
 .debug_str     0x000020e4        0x0 c:/program files/microchip/xc32/v3.01/bin/bin/../../lib/gcc/pic32c/8.3.1/thumb/v7e-m+dp/hard\libgcc.a(_fixdfdi.o)
 .debug_str     0x000020e4        0x0 c:/program files/microchip/xc32/v3.01/bin/bin/../../lib/gcc/pic32c/8.3.1/thumb/v7e-m+dp/hard\libgcc.a(_fixunsdfdi.o)

.debug_frame    0x00000000     0x4004
 .debug_frame   0x00000000      0x188 build/sam_e70_xult/debug/_ext/957281314/drv_i2c.o
 .debug_frame   0x00000188       0x28 build/sam_e70_xult/debug/_ext/1565510230/drv_sdmmc_file_system.o
 .debug_frame   0x000001b0      0x254 build/sam_e70_xult/debug/_ext/1565510230/drv_sdmmc.o
 .debug_frame   0x00000404      0x180 build/sam_e70_xult/debug/_ext/716655881/drv_usart.o
 .debug_frame   0x00000584      0x180 build/sam_e70_xult/debug/_ext/1613695899/osal_freertos.o
 .debug_frame   0x00000704       0x20 build/sam_e70_xult/debug/_ext/1055500827/plib_clk.o
 .debug_frame   0x00000724       0xec build/sam_e70_xult/debug/_ext/1055499099/plib_efc.o
 .debug_frame   0x00000810      0x150 build/sam_e70_xult/debug/_ext/719181653/plib_hsmci.o
 .debug_frame   0x00000960       0x50 build/sam_e70_xult/debug/_ext/1639550079/plib_nvic.o
 .debug_frame   0x000009b0      0x154 build/sam_e70_xult/debug/_ext/1055488423/plib_pio.o
 .debug_frame   0x00000b04      0x12c build/sam_e70_xult/debug/_ext/1055487991/plib_pwm0.o
 .debug_frame   0x00000c30       0xb8 build/sam_e70_xult/debug/_ext/865331892/plib_tc3.o
 .debug_frame   0x00000ce8       0xf8 build/sam_e70_xult/debug/_ext/1539215101/plib_twihs0_master.o
 .debug_frame   0x00000de0      0x14c build/sam_e70_xult/debug/_ext/707186936/plib_usart1.o
 .debug_frame   0x00000f2c      0x14c build/sam_e70_xult/debug/_ext/707186936/plib_usart0.o
 .debug_frame   0x00001078      0x14c build/sam_e70_xult/debug/_ext/707186936/plib_usart2.o
 .debug_frame   0x000011c4      0x108 build/sam_e70_xult/debug/_ext/704852250/plib_xdmac.o
 .debug_frame   0x000012cc      0x150 build/sam_e70_xult/debug/_ext/876653320/sys_cache.o
 .debug_frame   0x0000141c      0x8f0 build/sam_e70_xult/debug/_ext/1043829778/ff.o
 .debug_frame   0x00001d0c       0x5c build/sam_e70_xult/debug/_ext/1043829778/ffunicode.o
 .debug_frame   0x00001d68       0xfc build/sam_e70_xult/debug/_ext/1893760823/diskio.o
 .debug_frame   0x00001e64      0x5ac build/sam_e70_xult/debug/_ext/1305476372/sys_fs.o
 .debug_frame   0x00002410      0x1e0 build/sam_e70_xult/debug/_ext/1305476372/sys_fs_media_manager.o
 .debug_frame   0x000025f0      0x36c build/sam_e70_xult/debug/_ext/1305476372/sys_fs_fat_interface.o
 .debug_frame   0x0000295c       0x84 build/sam_e70_xult/debug/_ext/766002106/sys_int.o
 .debug_frame   0x000029e0      0x3e4 build/sam_e70_xult/debug/_ext/327803284/sys_time.o
 .debug_frame   0x00002dc4       0x28 build/sam_e70_xult/debug/_ext/1728594169/initialization.o
 .debug_frame   0x00002dec       0x20 build/sam_e70_xult/debug/_ext/1728594169/interrupts.o
 .debug_frame   0x00002e0c       0x70 build/sam_e70_xult/debug/_ext/1728594169/exceptions.o
 .debug_frame   0x00002e7c       0x38 build/sam_e70_xult/debug/_ext/1728594169/startup_xc32.o
 .debug_frame   0x00002eb4       0x6c build/sam_e70_xult/debug/_ext/1728594169/freertos_hooks.o
 .debug_frame   0x00002f20      0x10c build/sam_e70_xult/debug/_ext/1728594169/tasks.o
 .debug_frame   0x0000302c       0xe8 build/sam_e70_xult/debug/_ext/977623654/port.o
 .debug_frame   0x00003114       0x5c build/sam_e70_xult/debug/_ext/1665200909/heap_1.o
 .debug_frame   0x00003170       0x6c build/sam_e70_xult/debug/_ext/404212886/list.o
 .debug_frame   0x000031dc      0x280 build/sam_e70_xult/debug/_ext/404212886/queue.o
 .debug_frame   0x0000345c      0x46c build/sam_e70_xult/debug/_ext/404212886/FreeRTOS_tasks.o
 .debug_frame   0x000038c8       0x28 build/sam_e70_xult/debug/_ext/1360937237/main.o
 .debug_frame   0x000038f0       0x94 build/sam_e70_xult/debug/_ext/1360937237/app_communication.o
 .debug_frame   0x00003984       0x7c build/sam_e70_xult/debug/_ext/1360937237/app_mast_control.o
 .debug_frame   0x00003a00      0x124 build/sam_e70_xult/debug/_ext/1360937237/app_course_algorithm.o
 .debug_frame   0x00003b24       0x64 build/sam_e70_xult/debug/_ext/1360937237/app_rudder_control.o
 .debug_frame   0x00003b88      0x108 build/sam_e70_xult/debug/_ext/1360937237/app_anemometer.o
 .debug_frame   0x00003c90      0x14c build/sam_e70_xult/debug/_ext/1360937237/app_gps.o
 .debug_frame   0x00003ddc       0x7c build/sam_e70_xult/debug/_ext/1360937237/app_imu.o
 .debug_frame   0x00003e58       0x38 c:/program files/microchip/xc32/v3.01/bin/bin/../../lib/gcc/pic32c/8.3.1/../../../../pic32c/lib/thumb/v7e-m+dp/hard\libpic32c.a(data_init.o)
 .debug_frame   0x00003e90       0x2c c:/program files/microchip/xc32/v3.01/bin/bin/../../lib/gcc/pic32c/8.3.1/thumb/v7e-m+dp/hard\libgcc.a(_aeabi_uldivmod.o)
 .debug_frame   0x00003ebc       0x34 c:/program files/microchip/xc32/v3.01/bin/bin/../../lib/gcc/pic32c/8.3.1/thumb/v7e-m+dp/hard\libgcc.a(_udivmoddi4.o)
 .debug_frame   0x00003ef0       0x20 c:/program files/microchip/xc32/v3.01/bin/bin/../../lib/gcc/pic32c/8.3.1/../../../../pic32c/lib/thumb/v7e-m+dp/hard\libpic32c.a(sbrk.o)
 .debug_frame   0x00003f10       0xac c:/program files/microchip/xc32/v3.01/bin/bin/../../lib/gcc/pic32c/8.3.1/thumb/v7e-m+dp/hard\libgcc.a(_arm_addsubdf3.o)
 .debug_frame   0x00003fbc       0x28 c:/program files/microchip/xc32/v3.01/bin/bin/../../lib/gcc/pic32c/8.3.1/thumb/v7e-m+dp/hard\libgcc.a(_fixdfdi.o)
 .debug_frame   0x00003fe4       0x20 c:/program files/microchip/xc32/v3.01/bin/bin/../../lib/gcc/pic32c/8.3.1/thumb/v7e-m+dp/hard\libgcc.a(_fixunsdfdi.o)

.stack          0x2040c770      0x100
 .stack         0x2040c770      0x100 stack

.bss.ucHeap%1   0x204008a0     0xa000
 .bss.ucHeap    0x204008a0     0xa000 build/sam_e70_xult/debug/_ext/1665200909/heap_1.o

.bss.gSYSFSMediaBlockBuffer%2
                0x2040a8a0      0x800
 .bss.gSYSFSMediaBlockBuffer
                0x2040a8a0      0x800 build/sam_e70_xult/debug/_ext/1305476372/sys_fs_media_manager.o
                0x2040a8a0                gSYSFSMediaBlockBuffer

.bss.gDrvSDMMCObj%3
                0x2040b0a0      0x340
 .bss.gDrvSDMMCObj
                0x2040b0a0      0x340 build/sam_e70_xult/debug/_ext/1565510230/drv_sdmmc.o

.bss.FATFSFileObject%4
                0x2040b3e0      0x260
 .bss.FATFSFileObject
                0x2040b3e0      0x260 build/sam_e70_xult/debug/_ext/1305476372/sys_fs_fat_interface.o

.bss.FATFSVolume%5
                0x2040b640      0x260
 .bss.FATFSVolume
                0x2040b640      0x260 build/sam_e70_xult/debug/_ext/1305476372/sys_fs_fat_interface.o

.bss.gSysFsDiskData%6
                0x2040b8a0      0x220
 .bss.gSysFsDiskData
                0x2040b8a0      0x220 build/sam_e70_xult/debug/_ext/1893760823/diskio.o

.bss.LfnBuf%7   0x2040bac0      0x200
 .bss.LfnBuf    0x2040bac0      0x200 build/sam_e70_xult/debug/_ext/1043829778/ff.o

.data.__global_locale%8
                0x2040bcc0      0x16c
 .data.__global_locale
                0x2040bcc0      0x16c c:/program files/microchip/xc32/v3.01/bin/bin/../../lib/gcc/pic32c/8.3.1/../../../../pic32c/lib/thumb/v7e-m+dp/hard\libg_nano.a(lib_a-locale.o)
                0x2040bcc0                __global_locale

.bss.gDrvUSARTObj%9
                0x2040be2c       0xf0
 .bss.gDrvUSARTObj
                0x2040be2c       0xf0 build/sam_e70_xult/debug/_ext/716655881/drv_usart.o

.bss.timers%10  0x2040bf1c       0xa0
 .bss.timers    0x2040bf1c       0xa0 build/sam_e70_xult/debug/_ext/327803284/sys_time.o

.bss.pxReadyTasksLists%11
                0x2040bfbc       0x64
 .bss.pxReadyTasksLists
                0x2040bfbc       0x64 build/sam_e70_xult/debug/_ext/404212886/FreeRTOS_tasks.o

.bss.drvUSART1ClientObjPool%12
                0x2040c020       0x60
 .bss.drvUSART1ClientObjPool
                0x2040c020       0x60 build/sam_e70_xult/debug/_ext/1728594169/initialization.o

.data.impure_data%13
                0x2040c080       0x60
 .data.impure_data
                0x2040c080       0x60 c:/program files/microchip/xc32/v3.01/bin/bin/../../lib/gcc/pic32c/8.3.1/../../../../pic32c/lib/thumb/v7e-m+dp/hard\libg_nano.a(lib_a-impure.o)

.bss.decoded%14
                0x2040c0e0       0x57
 .bss.decoded   0x2040c0e0       0x57 build/sam_e70_xult/debug/_ext/1360937237/app_communication.o
                0x2040c0e0                decoded

.bss.recbuffer%15
                0x2040c138       0x57
 .bss.recbuffer
                0x2040c138       0x57 build/sam_e70_xult/debug/_ext/1360937237/app_communication.o
                0x2040c138                recbuffer

.bss.sendbuffer%16
                0x2040c190       0x57
 .bss.sendbuffer
                0x2040c190       0x57 build/sam_e70_xult/debug/_ext/1360937237/app_communication.o
                0x2040c190                sendbuffer

.bss.drvSDMMC0BufferObjPool%17
                0x2040c1e8       0x48
 .bss.drvSDMMC0BufferObjPool
                0x2040c1e8       0x48 build/sam_e70_xult/debug/_ext/1728594169/initialization.o

.bss.gDrvI2CObj%18
                0x2040c230       0x38
 .bss.gDrvI2CObj
                0x2040c230       0x38 build/sam_e70_xult/debug/_ext/957281314/drv_i2c.o

.bss.FATFSDirObject%19
                0x2040c280       0x38
 .bss.FATFSDirObject
                0x2040c280       0x38 build/sam_e70_xult/debug/_ext/1305476372/sys_fs_fat_interface.o

.bss.gSystemCounterObj%20
                0x2040c2b8       0x38
 .bss.gSystemCounterObj
                0x2040c2b8       0x38 build/sam_e70_xult/debug/_ext/327803284/sys_time.o

.bss.drvUSART0ClientObjPool%21
                0x2040c2f0       0x30
 .bss.drvUSART0ClientObjPool
                0x2040c2f0       0x30 build/sam_e70_xult/debug/_ext/1728594169/initialization.o

.bss.twihs0Obj%22
                0x2040c320       0x28
 .bss.twihs0Obj
                0x2040c320       0x28 build/sam_e70_xult/debug/_ext/1539215101/plib_twihs0_master.o

.bss.drvI2C0ClientObjPool%23
                0x2040c348       0x20
 .bss.drvI2C0ClientObjPool
                0x2040c348       0x20 build/sam_e70_xult/debug/_ext/1728594169/initialization.o

.bss%24         0x2040c368       0x1c
 .bss           0x2040c368       0x1c c:/program files/microchip/xc32/v3.01/bin/bin/../../lib/gcc/pic32c/8.3.1/thumb/v7e-m+dp/hard/crtbegin.o

.data.gSYSFSMediaManagerObj%25
                0x2040c268       0x18
 .data.gSYSFSMediaManagerObj
                0x2040c268       0x18 build/sam_e70_xult/debug/_ext/1305476372/sys_fs_media_manager.o
                0x2040c268                gSYSFSMediaManagerObj

.bss.hsmciObj%26
                0x2040c384       0x14
 .bss.hsmciObj  0x2040c384       0x14 build/sam_e70_xult/debug/_ext/719181653/plib_hsmci.o

.data.gSYSFSVolumeName%27
                0x2040c398       0x14
 .data.gSYSFSVolumeName
                0x2040c398       0x14 build/sam_e70_xult/debug/_ext/1305476372/sys_fs_media_manager.o
                0x2040c398                gSYSFSVolumeName

.bss.xDelayedTaskList1%28
                0x2040c3ac       0x14
 .bss.xDelayedTaskList1
                0x2040c3ac       0x14 build/sam_e70_xult/debug/_ext/404212886/FreeRTOS_tasks.o

.bss.xDelayedTaskList2%29
                0x2040c3c0       0x14
 .bss.xDelayedTaskList2
                0x2040c3c0       0x14 build/sam_e70_xult/debug/_ext/404212886/FreeRTOS_tasks.o

.bss.xPendingReadyList%30
                0x2040c3d4       0x14
 .bss.xPendingReadyList
                0x2040c3d4       0x14 build/sam_e70_xult/debug/_ext/404212886/FreeRTOS_tasks.o

.bss.xSuspendedTaskList%31
                0x2040c3e8       0x14
 .bss.xSuspendedTaskList
                0x2040c3e8       0x14 build/sam_e70_xult/debug/_ext/404212886/FreeRTOS_tasks.o

.bss.xTasksWaitingTermination%32
                0x2040c3fc       0x14
 .bss.xTasksWaitingTermination
                0x2040c3fc       0x14 build/sam_e70_xult/debug/_ext/404212886/FreeRTOS_tasks.o

.data.signal_confirmed%33
                0x2040c410       0x12
 .data.signal_confirmed
                0x2040c410       0x12 build/sam_e70_xult/debug/_ext/1360937237/app_communication.o
                0x2040c410                signal_confirmed

.bss.Files%34   0x2040c424       0x10
 .bss.Files     0x2040c424       0x10 build/sam_e70_xult/debug/_ext/1043829778/ff.o

.bss.drvSDMMC0ClientObjPool%35
                0x2040c434       0x10
 .bss.drvSDMMC0ClientObjPool
                0x2040c434       0x10 build/sam_e70_xult/debug/_ext/1728594169/initialization.o

.bss.drvUSART2ClientObjPool%36
                0x2040c444       0x10
 .bss.drvUSART2ClientObjPool
                0x2040c444       0x10 build/sam_e70_xult/debug/_ext/1728594169/initialization.o

.bss.sysfsMountTable%37
                0x2040c454        0xc
 .bss.sysfsMountTable
                0x2040c454        0xc build/sam_e70_xult/debug/_ext/1728594169/initialization.o
                0x2040c454                sysfsMountTable

.data.confirmed%38
                0x2040c460        0xb
 .data.confirmed
                0x2040c460        0xb build/sam_e70_xult/debug/_ext/1360937237/app_communication.o
                0x2040c460                confirmed

.bss.value%39   0x2040c470        0x8
 .bss.value     0x2040c470        0x8 build/sam_e70_xult/debug/_ext/1360937237/app_communication.o
                0x2040c470                value

.data.portNumCb%40
                0x2040c478        0x6
 .data.portNumCb
                0x2040c478        0x6 build/sam_e70_xult/debug/_ext/1055488423/plib_pio.o
                0x2040c478                portNumCb

.bss.FatFs%41   0x2040c46c        0x4
 .bss.FatFs     0x2040c46c        0x4 build/sam_e70_xult/debug/_ext/1043829778/ff.o

.bss.cmd.7957%42
                0x2040c480        0x4
 .bss.cmd.7957  0x2040c480        0x4 build/sam_e70_xult/debug/_ext/1728594169/startup_xc32.o

.data.uxCriticalNesting%43
                0x2040c484        0x4
 .data.uxCriticalNesting
                0x2040c484        0x4 build/sam_e70_xult/debug/_ext/977623654/port.o

.bss.pucAlignedHeap.6555%44
                0x2040c488        0x4
 .bss.pucAlignedHeap.6555
                0x2040c488        0x4 build/sam_e70_xult/debug/_ext/1665200909/heap_1.o

.bss.xNextFreeByte%45
                0x2040c48c        0x4
 .bss.xNextFreeByte
                0x2040c48c        0x4 build/sam_e70_xult/debug/_ext/1665200909/heap_1.o

.bss.pxCurrentTCB%46
                0x2040c490        0x4
 .bss.pxCurrentTCB
                0x2040c490        0x4 build/sam_e70_xult/debug/_ext/404212886/FreeRTOS_tasks.o
                0x2040c490                pxCurrentTCB

.bss.pxDelayedTaskList%47
                0x2040c494        0x4
 .bss.pxDelayedTaskList
                0x2040c494        0x4 build/sam_e70_xult/debug/_ext/404212886/FreeRTOS_tasks.o

.bss.pxOverflowDelayedTaskList%48
                0x2040c498        0x4
 .bss.pxOverflowDelayedTaskList
                0x2040c498        0x4 build/sam_e70_xult/debug/_ext/404212886/FreeRTOS_tasks.o

.bss.uxCurrentNumberOfTasks%49
                0x2040c49c        0x4
 .bss.uxCurrentNumberOfTasks
                0x2040c49c        0x4 build/sam_e70_xult/debug/_ext/404212886/FreeRTOS_tasks.o

.bss.uxDeletedTasksWaitingCleanUp%50
                0x2040c4a0        0x4
 .bss.uxDeletedTasksWaitingCleanUp
                0x2040c4a0        0x4 build/sam_e70_xult/debug/_ext/404212886/FreeRTOS_tasks.o

.bss.uxSchedulerSuspended%51
                0x2040c4a4        0x4
 .bss.uxSchedulerSuspended
                0x2040c4a4        0x4 build/sam_e70_xult/debug/_ext/404212886/FreeRTOS_tasks.o

.bss.uxTaskNumber%52
                0x2040c4a8        0x4
 .bss.uxTaskNumber
                0x2040c4a8        0x4 build/sam_e70_xult/debug/_ext/404212886/FreeRTOS_tasks.o

.bss.uxTopReadyPriority%53
                0x2040c4ac        0x4
 .bss.uxTopReadyPriority
                0x2040c4ac        0x4 build/sam_e70_xult/debug/_ext/404212886/FreeRTOS_tasks.o

.bss.xIdleTaskHandle%54
                0x2040c4b0        0x4
 .bss.xIdleTaskHandle
                0x2040c4b0        0x4 build/sam_e70_xult/debug/_ext/404212886/FreeRTOS_tasks.o

.bss.xNextTaskUnblockTime%55
                0x2040c4b4        0x4
 .bss.xNextTaskUnblockTime
                0x2040c4b4        0x4 build/sam_e70_xult/debug/_ext/404212886/FreeRTOS_tasks.o

.bss.xNumOfOverflows%56
                0x2040c4b8        0x4
 .bss.xNumOfOverflows
                0x2040c4b8        0x4 build/sam_e70_xult/debug/_ext/404212886/FreeRTOS_tasks.o

.bss.xPendedTicks%57
                0x2040c4bc        0x4
 .bss.xPendedTicks
                0x2040c4bc        0x4 build/sam_e70_xult/debug/_ext/404212886/FreeRTOS_tasks.o

.bss.xSchedulerRunning%58
                0x2040c4c0        0x4
 .bss.xSchedulerRunning
                0x2040c4c0        0x4 build/sam_e70_xult/debug/_ext/404212886/FreeRTOS_tasks.o

.bss.xTickCount%59
                0x2040c4c4        0x4
 .bss.xTickCount
                0x2040c4c4        0x4 build/sam_e70_xult/debug/_ext/404212886/FreeRTOS_tasks.o

.bss.xYieldPending%60
                0x2040c4c8        0x4
 .bss.xYieldPending
                0x2040c4c8        0x4 build/sam_e70_xult/debug/_ext/404212886/FreeRTOS_tasks.o

.bss.delay%61   0x2040c4cc        0x4
 .bss.delay     0x2040c4cc        0x4 build/sam_e70_xult/debug/_ext/1360937237/app_communication.o
                0x2040c4cc                delay

.bss.endptr%62  0x2040c4d0        0x4
 .bss.endptr    0x2040c4d0        0x4 build/sam_e70_xult/debug/_ext/1360937237/app_communication.o
                0x2040c4d0                endptr

.bss.num_times_confimred_receive%63
                0x2040c4d4        0x4
 .bss.num_times_confimred_receive
                0x2040c4d4        0x4 build/sam_e70_xult/debug/_ext/1360937237/app_communication.o
                0x2040c4d4                num_times_confimred_receive

.bss.numbound%64
                0x2040c4d8        0x4
 .bss.numbound  0x2040c4d8        0x4 build/sam_e70_xult/debug/_ext/1360937237/app_communication.o
                0x2040c4d8                numbound

.bss.ptr%65     0x2040c4dc        0x4
 .bss.ptr       0x2040c4dc        0x4 build/sam_e70_xult/debug/_ext/1360937237/app_communication.o
                0x2040c4dc                ptr

.bss.size%66    0x2040c4e0        0x4
 .bss.size      0x2040c4e0        0x4 build/sam_e70_xult/debug/_ext/1360937237/app_communication.o
                0x2040c4e0                size

.bss.startptr%67
                0x2040c4e4        0x4
 .bss.startptr  0x2040c4e4        0x4 build/sam_e70_xult/debug/_ext/1360937237/app_communication.o
                0x2040c4e4                startptr

.data.retry_num%68
                0x2040c4e8        0x4
 .data.retry_num
                0x2040c4e8        0x4 build/sam_e70_xult/debug/_ext/1360937237/app_communication.o
                0x2040c4e8                retry_num

.bss.desired_mast_angle%69
                0x2040c4ec        0x4
 .bss.desired_mast_angle
                0x2040c4ec        0x4 build/sam_e70_xult/debug/_ext/1360937237/app_mast_control.o
                0x2040c4ec                desired_mast_angle

.bss.duty%70    0x2040c4f0        0x4
 .bss.duty      0x2040c4f0        0x4 build/sam_e70_xult/debug/_ext/1360937237/app_mast_control.o
                0x2040c4f0                duty

.bss.error%71   0x2040c4f4        0x4
 .bss.error     0x2040c4f4        0x4 build/sam_e70_xult/debug/_ext/1360937237/app_mast_control.o
                0x2040c4f4                error

.bss.mast_angle%72
                0x2040c4f8        0x4
 .bss.mast_angle
                0x2040c4f8        0x4 build/sam_e70_xult/debug/_ext/1360937237/app_mast_control.o
                0x2040c4f8                mast_angle

.data.allowed_calibration_error%73
                0x2040c4fc        0x4
 .data.allowed_calibration_error
                0x2040c4fc        0x4 build/sam_e70_xult/debug/_ext/1360937237/app_mast_control.o
                0x2040c4fc                allowed_calibration_error

.data.allowed_error%74
                0x2040c500        0x4
 .data.allowed_error
                0x2040c500        0x4 build/sam_e70_xult/debug/_ext/1360937237/app_mast_control.o
                0x2040c500                allowed_error

.data.restrict_angle%75
                0x2040c504        0x4
 .data.restrict_angle
                0x2040c504        0x4 build/sam_e70_xult/debug/_ext/1360937237/app_mast_control.o
                0x2040c504                restrict_angle

.bss.date_ptr%76
                0x2040c508        0x4
 .bss.date_ptr  0x2040c508        0x4 build/sam_e70_xult/debug/_ext/1360937237/app_course_algorithm.o
                0x2040c508                date_ptr

.bss.mast_angle_to_wind%77
                0x2040c50c        0x4
 .bss.mast_angle_to_wind
                0x2040c50c        0x4 build/sam_e70_xult/debug/_ext/1360937237/app_course_algorithm.o
                0x2040c50c                mast_angle_to_wind

.bss.rudder_angle_to_wind%78
                0x2040c510        0x4
 .bss.rudder_angle_to_wind
                0x2040c510        0x4 build/sam_e70_xult/debug/_ext/1360937237/app_course_algorithm.o
                0x2040c510                rudder_angle_to_wind

.data.allowed_cruise_angle_error%79
                0x2040c514        0x4
 .data.allowed_cruise_angle_error
                0x2040c514        0x4 build/sam_e70_xult/debug/_ext/1360937237/app_course_algorithm.o
                0x2040c514                allowed_cruise_angle_error

.data.allowed_set_angle_error%80
                0x2040c518        0x4
 .data.allowed_set_angle_error
                0x2040c518        0x4 build/sam_e70_xult/debug/_ext/1360937237/app_course_algorithm.o
                0x2040c518                allowed_set_angle_error

.bss.desired_rudder_angle%81
                0x2040c51c        0x4
 .bss.desired_rudder_angle
                0x2040c51c        0x4 build/sam_e70_xult/debug/_ext/1360937237/app_rudder_control.o
                0x2040c51c                desired_rudder_angle

.bss.rudder_angle%82
                0x2040c520        0x4
 .bss.rudder_angle
                0x2040c520        0x4 build/sam_e70_xult/debug/_ext/1360937237/app_rudder_control.o
                0x2040c520                rudder_angle

.bss.rudder_error%83
                0x2040c524        0x4
 .bss.rudder_error
                0x2040c524        0x4 build/sam_e70_xult/debug/_ext/1360937237/app_rudder_control.o
                0x2040c524                rudder_error

.data.rudder_allowed_error%84
                0x2040c528        0x4
 .data.rudder_allowed_error
                0x2040c528        0x4 build/sam_e70_xult/debug/_ext/1360937237/app_rudder_control.o
                0x2040c528                rudder_allowed_error

.data.rudder_duty%85
                0x2040c52c        0x4
 .data.rudder_duty
                0x2040c52c        0x4 build/sam_e70_xult/debug/_ext/1360937237/app_rudder_control.o
                0x2040c52c                rudder_duty

.bss.dir%86     0x2040c530        0x4
 .bss.dir       0x2040c530        0x4 build/sam_e70_xult/debug/_ext/1360937237/app_anemometer.o
                0x2040c530                dir

.bss.u_vector%87
                0x2040c534        0x4
 .bss.u_vector  0x2040c534        0x4 build/sam_e70_xult/debug/_ext/1360937237/app_anemometer.o
                0x2040c534                u_vector

.bss%88         0x2040c538        0x4
 .bss           0x2040c538        0x4 c:/program files/microchip/xc32/v3.01/bin/bin/../../lib/gcc/pic32c/8.3.1/../../../../pic32c/lib/thumb/v7e-m+dp/hard\libpic32c.a(data_init.o)

.bss.__malloc_free_list%89
                0x2040c53c        0x4
 .bss.__malloc_free_list
                0x2040c53c        0x4 c:/program files/microchip/xc32/v3.01/bin/bin/../../lib/gcc/pic32c/8.3.1/../../../../pic32c/lib/thumb/v7e-m+dp/hard\libg_nano.a(lib_a-nano-mallocr.o)
                0x2040c53c                __malloc_free_list

.bss.__malloc_sbrk_start%90
                0x2040c540        0x4
 .bss.__malloc_sbrk_start
                0x2040c540        0x4 c:/program files/microchip/xc32/v3.01/bin/bin/../../lib/gcc/pic32c/8.3.1/../../../../pic32c/lib/thumb/v7e-m+dp/hard\libg_nano.a(lib_a-nano-mallocr.o)
                0x2040c540                __malloc_sbrk_start

.data._impure_ptr%91
                0x2040c544        0x4
 .data._impure_ptr
                0x2040c544        0x4 c:/program files/microchip/xc32/v3.01/bin/bin/../../lib/gcc/pic32c/8.3.1/../../../../pic32c/lib/thumb/v7e-m+dp/hard\libg_nano.a(lib_a-impure.o)
                0x2040c544                _impure_ptr

.bss%92         0x2040c548        0x4
 .bss           0x2040c548        0x4 c:/program files/microchip/xc32/v3.01/bin/bin/../../lib/gcc/pic32c/8.3.1/../../../../pic32c/lib/thumb/v7e-m+dp/hard\libpic32c.a(sbrk.o)

.bss.Fsid%93    0x2040c422        0x2
 .bss.Fsid      0x2040c422        0x2 build/sam_e70_xult/debug/_ext/1043829778/ff.o

.data.gSysTimeTokenCount%94
                0x2040c47e        0x2
 .data.gSysTimeTokenCount
                0x2040c47e        0x2 build/sam_e70_xult/debug/_ext/327803284/sys_time.o

.data.address%95
                0x2040c54c        0x2
 .data.address  0x2040c54c        0x2 build/sam_e70_xult/debug/_ext/1360937237/app_gps.o
                0x2040c54c                address

.data.numempty%96
                0x2040c54e        0x2
 .data.numempty
                0x2040c54e        0x2 c:/program files/microchip/xc32/v3.01/bin/bin/../../lib/gcc/pic32c/8.3.1/../../../../pic32c/lib/thumb/v7e-m+dp/hard\libg_nano.a(lib_a-lnumeric.o)

.data.cardAttached.9662%97
                0x2040c137        0x1
 .data.cardAttached.9662
                0x2040c137        0x1 build/sam_e70_xult/debug/_ext/1565510230/drv_sdmmc.o

.bss.CurrVol%98
                0x2040c18f        0x1
 .bss.CurrVol   0x2040c18f        0x1 build/sam_e70_xult/debug/_ext/1043829778/ff.o

.bss.startupflag%99
                0x2040c1e7        0x1
 .bss.startupflag
                0x2040c1e7        0x1 build/sam_e70_xult/debug/_ext/1305476372/sys_fs_fat_interface.o

.bss.sending%100
                0x2040c46b        0x1
 .bss.sending   0x2040c46b        0x1 build/sam_e70_xult/debug/_ext/1360937237/app_communication.o
                0x2040c46b                sending

.bss.calibrate%101
                0x2040c550        0x1
 .bss.calibrate
                0x2040c550        0x1 build/sam_e70_xult/debug/_ext/1360937237/app_mast_control.o
                0x2040c550                calibrate

.bss.ontheleft%102
                0x2040c551        0x1
 .bss.ontheleft
                0x2040c551        0x1 build/sam_e70_xult/debug/_ext/1360937237/app_mast_control.o
                0x2040c551                ontheleft

.bss.rudder_calibrated%103
                0x2040c552        0x1
 .bss.rudder_calibrated
                0x2040c552        0x1 build/sam_e70_xult/debug/_ext/1360937237/app_rudder_control.o
                0x2040c552                rudder_calibrated

.data.jitter%104
                0x2040c553        0x1
 .data.jitter   0x2040c553        0x1 build/sam_e70_xult/debug/_ext/1360937237/app_rudder_control.o
                0x2040c553                jitter

.bss.appInitialized%105
                0x2040c554        0x1
 .bss.appInitialized
                0x2040c554        0x1 build/sam_e70_xult/debug/_ext/1360937237/app_imu.o
                0x2040c554                appInitialized

.data.__fdlib_version%106
                0x2040c555        0x1
 .data.__fdlib_version
                0x2040c555        0x1 c:/program files/microchip/xc32/v3.01/bin/bin/../../lib/gcc/pic32c/8.3.1/../../../../pic32c/lib/thumb/v7e-m+dp/hard\libm_nano.a(lib_a-s_lib_ver.o)
                0x2040c555                __fdlib_version

.eh_frame%z1    0x00000000        0x0
 .eh_frame      0x00000000        0x0 c:/program files/microchip/xc32/v3.01/bin/bin/../../lib/gcc/pic32c/8.3.1/thumb/v7e-m+dp/hard/crtbegin.o

.text.DRV_SDMMC_Tasks%107
                0x00400190     0x19c4
 .text.DRV_SDMMC_Tasks
                0x00400190     0x19c4 build/sam_e70_xult/debug/_ext/1565510230/drv_sdmmc.o
                0x00400190                DRV_SDMMC_Tasks

.text._strtod_l%108
                0x00401b58      0xb8c
 .text._strtod_l
                0x00401b58      0xb8c c:/program files/microchip/xc32/v3.01/bin/bin/../../lib/gcc/pic32c/8.3.1/../../../../pic32c/lib/thumb/v7e-m+dp/hard\libg_nano.a(lib_a-strtod.o)
                0x00401b58                _strtod_l

.dinit%109      0x004026e4      0x850
 .dinit         0x004026e4      0x850 data_init

.text.f_mkfs%110
                0x00402f34      0x7b4
 .text.f_mkfs   0x00402f34      0x7b4 build/sam_e70_xult/debug/_ext/1043829778/ff.o
                0x00402f34                f_mkfs

.text.__kernel_rem_pio2%111
                0x004036e8      0x510
 .text.__kernel_rem_pio2
                0x004036e8      0x510 c:/program files/microchip/xc32/v3.01/bin/bin/../../lib/gcc/pic32c/8.3.1/../../../../pic32c/lib/thumb/v7e-m+dp/hard\libm_nano.a(lib_a-k_rem_pio2.o)
                0x004036e8                __kernel_rem_pio2

.text.__gethex%112
                0x00403bf8      0x448
 .text.__gethex
                0x00403bf8      0x448 c:/program files/microchip/xc32/v3.01/bin/bin/../../lib/gcc/pic32c/8.3.1/../../../../pic32c/lib/thumb/v7e-m+dp/hard\libg_nano.a(lib_a-gdtoa-gethex.o)
                0x00403bf8                __gethex

.text.SYS_FS_MEDIA_MANAGER_Tasks%113
                0x00404040      0x3fc
 .text.SYS_FS_MEDIA_MANAGER_Tasks
                0x00404040      0x3fc build/sam_e70_xult/debug/_ext/1305476372/sys_fs_media_manager.o
                0x00404040                SYS_FS_MEDIA_MANAGER_Tasks

.text.follow_path%114
                0x0040443c      0x3c8
 .text.follow_path
                0x0040443c      0x3c8 build/sam_e70_xult/debug/_ext/1043829778/ff.o

.text.mount_volume%115
                0x00404804      0x398
 .text.mount_volume
                0x00404804      0x398 build/sam_e70_xult/debug/_ext/1043829778/ff.o

.text%116       0x00404b9c      0x378
 .text          0x00404b9c      0x378 c:/program files/microchip/xc32/v3.01/bin/bin/../../lib/gcc/pic32c/8.3.1/thumb/v7e-m+dp/hard\libgcc.a(_arm_addsubdf3.o)
                0x00404b9c                __aeabi_drsub
                0x00404ba4                __aeabi_dsub
                0x00404ba4                __subdf3
                0x00404ba8                __aeabi_dadd
                0x00404ba8                __adddf3
                0x00404e20                __floatunsidf
                0x00404e20                __aeabi_ui2d
                0x00404e40                __floatsidf
                0x00404e40                __aeabi_i2d
                0x00404e64                __aeabi_f2d
                0x00404e64                __extendsfdf2
                0x00404ea8                __floatundidf
                0x00404ea8                __aeabi_ul2d
                0x00404eb8                __floatdidf
                0x00404eb8                __aeabi_l2d

.text.APP_COMMUNICATION_Tasks%117
                0x00404f14      0x32c
 .text.APP_COMMUNICATION_Tasks
                0x00404f14      0x32c build/sam_e70_xult/debug/_ext/1360937237/app_communication.o
                0x00404f14                APP_COMMUNICATION_Tasks

.text.f_printf%118
                0x00405240      0x2dc
 .text.f_printf
                0x00405240      0x2dc build/sam_e70_xult/debug/_ext/1043829778/ff.o
                0x00405240                f_printf

.text%119       0x0040551c      0x2d0
 .text          0x0040551c      0x2d0 c:/program files/microchip/xc32/v3.01/bin/bin/../../lib/gcc/pic32c/8.3.1/thumb/v7e-m+dp/hard\libgcc.a(_udivmoddi4.o)
                0x0040551c                __udivmoddi4

.text.dir_register%120
                0x004057ec      0x2b4
 .text.dir_register
                0x004057ec      0x2b4 build/sam_e70_xult/debug/_ext/1043829778/ff.o

.text.__ieee754_rem_pio2%121
                0x00405aa0      0x290
 .text.__ieee754_rem_pio2
                0x00405aa0      0x290 c:/program files/microchip/xc32/v3.01/bin/bin/../../lib/gcc/pic32c/8.3.1/../../../../pic32c/lib/thumb/v7e-m+dp/hard\libm_nano.a(lib_a-e_rem_pio2.o)
                0x00405aa0                __ieee754_rem_pio2

.text.f_open%122
                0x00405d30      0x264
 .text.f_open   0x00405d30      0x264 build/sam_e70_xult/debug/_ext/1043829778/ff.o
                0x00405d30                f_open

.text.APP_COURSE_ALGORITHM_Tasks%123
                0x00405f98      0x25c
 .text.APP_COURSE_ALGORITHM_Tasks
                0x00405f98      0x25c build/sam_e70_xult/debug/_ext/1360937237/app_course_algorithm.o
                0x00405f98                APP_COURSE_ALGORITHM_Tasks

.rodata.cvt1.8145%124
                0x004061f4      0x1f4
 .rodata.cvt1.8145
                0x004061f4      0x1f4 build/sam_e70_xult/debug/_ext/1043829778/ffunicode.o

.text.atan%125  0x004063e8      0x1f4
 .text.atan     0x004063e8      0x1f4 c:/program files/microchip/xc32/v3.01/bin/bin/../../lib/gcc/pic32c/8.3.1/../../../../pic32c/lib/thumb/v7e-m+dp/hard\libm_nano.a(lib_a-s_atan.o)
                0x004063e8                atan

.text.xTaskCreate%126
                0x004065dc      0x1e4
 .text.xTaskCreate
                0x004065dc      0x1e4 build/sam_e70_xult/debug/_ext/404212886/FreeRTOS_tasks.o
                0x004065dc                xTaskCreate

.text.dir_find%127
                0x004067c0      0x1d4
 .text.dir_find
                0x004067c0      0x1d4 build/sam_e70_xult/debug/_ext/1043829778/ff.o

.text.__ieee754_atan2%128
                0x00406998      0x1cc
 .text.__ieee754_atan2
                0x00406998      0x1cc c:/program files/microchip/xc32/v3.01/bin/bin/../../lib/gcc/pic32c/8.3.1/../../../../pic32c/lib/thumb/v7e-m+dp/hard\libm_nano.a(lib_a-e_atan2.o)
                0x00406998                __ieee754_atan2

.text.f_write%129
                0x00406b64      0x1c6
 .text.f_write  0x00406b64      0x1c6 build/sam_e70_xult/debug/_ext/1043829778/ff.o
                0x00406b64                f_write

.text.TWIHS0_InterruptHandler%130
                0x00406d2c      0x198
 .text.TWIHS0_InterruptHandler
                0x00406d2c      0x198 build/sam_e70_xult/debug/_ext/1539215101/plib_twihs0_master.o
                0x00406d2c                TWIHS0_InterruptHandler

.text.f_read%131
                0x00406ec4      0x198
 .text.f_read   0x00406ec4      0x198 build/sam_e70_xult/debug/_ext/1043829778/ff.o
                0x00406ec4                f_read

.text.Parse_IMU_Field%132
                0x00407060      0x198
 .text.Parse_IMU_Field
                0x00407060      0x198 build/sam_e70_xult/debug/_ext/1360937237/app_imu.o
                0x00407060                Parse_IMU_Field

.text.f_lseek%133
                0x004071f8      0x192
 .text.f_lseek  0x004071f8      0x192 build/sam_e70_xult/debug/_ext/1043829778/ff.o
                0x004071f8                f_lseek

.text.create_partition%134
                0x0040738c      0x190
 .text.create_partition
                0x0040738c      0x190 build/sam_e70_xult/debug/_ext/1043829778/ff.o

.text.SYS_FS_MEDIA_MANAGER_SectorWrite%135
                0x0040751c      0x184
 .text.SYS_FS_MEDIA_MANAGER_SectorWrite
                0x0040751c      0x184 build/sam_e70_xult/debug/_ext/1305476372/sys_fs_media_manager.o
                0x0040751c                SYS_FS_MEDIA_MANAGER_SectorWrite

.text.f_setlabel%136
                0x004076a0      0x17c
 .text.f_setlabel
                0x004076a0      0x17c build/sam_e70_xult/debug/_ext/1043829778/ff.o
                0x004076a0                f_setlabel

.text.Reset_Handler%137
                0x0040781c      0x178
 .text.Reset_Handler
                0x0040781c      0x178 build/sam_e70_xult/debug/_ext/1728594169/startup_xc32.o
                0x0040781c                Reset_Handler

.text.DRV_SDMMC_SetupXfer%138
                0x00407994      0x168
 .text.DRV_SDMMC_SetupXfer
                0x00407994      0x168 build/sam_e70_xult/debug/_ext/1565510230/drv_sdmmc.o
                0x00407994                DRV_SDMMC_SetupXfer

.text.get_fileinfo%139
                0x00407afc      0x158
 .text.get_fileinfo
                0x00407afc      0x158 build/sam_e70_xult/debug/_ext/1043829778/ff.o

.text.xQueueSemaphoreTake%140
                0x00407c54      0x158
 .text.xQueueSemaphoreTake
                0x00407c54      0x158 build/sam_e70_xult/debug/_ext/404212886/queue.o
                0x00407c54                xQueueSemaphoreTake

.text.PIO_Initialize%141
                0x00407dac      0x150
 .text.PIO_Initialize
                0x00407dac      0x150 build/sam_e70_xult/debug/_ext/1055488423/plib_pio.o
                0x00407dac                PIO_Initialize

.text.APP_RUDDER_CONTROL_Tasks%142
                0x00407efc      0x144
 .text.APP_RUDDER_CONTROL_Tasks
                0x00407efc      0x144 build/sam_e70_xult/debug/_ext/1360937237/app_rudder_control.o
                0x00407efc                APP_RUDDER_CONTROL_Tasks

.text.ParseField%143
                0x00408040      0x140
 .text.ParseField
                0x00408040      0x140 build/sam_e70_xult/debug/_ext/1360937237/app_anemometer.o
                0x00408040                ParseField

.text.f_getcwd%144
                0x00408180      0x138
 .text.f_getcwd
                0x00408180      0x138 build/sam_e70_xult/debug/_ext/1043829778/ff.o
                0x00408180                f_getcwd

.text.DRV_USART_Open%145
                0x004082b8      0x134
 .text.DRV_USART_Open
                0x004082b8      0x134 build/sam_e70_xult/debug/_ext/716655881/drv_usart.o
                0x004082b8                DRV_USART_Open

.text.dir_read%146
                0x004083ec      0x134
 .text.dir_read
                0x004083ec      0x134 build/sam_e70_xult/debug/_ext/1043829778/ff.o

.text.APP_ANEMOMETER_Tasks%147
                0x00408520      0x130
 .text.APP_ANEMOMETER_Tasks
                0x00408520      0x130 build/sam_e70_xult/debug/_ext/1360937237/app_anemometer.o
                0x00408520                APP_ANEMOMETER_Tasks

.text.__multiply%148
                0x00408650      0x130
 .text.__multiply
                0x00408650      0x130 c:/program files/microchip/xc32/v3.01/bin/bin/../../lib/gcc/pic32c/8.3.1/../../../../pic32c/lib/thumb/v7e-m+dp/hard\libg_nano.a(lib_a-mprec.o)
                0x00408650                __multiply

.text.USART1_InterruptHandler%149
                0x00408780      0x12c
 .text.USART1_InterruptHandler
                0x00408780      0x12c build/sam_e70_xult/debug/_ext/707186936/plib_usart1.o
                0x00408780                USART1_InterruptHandler

.text.USART0_InterruptHandler%150
                0x004088ac      0x12c
 .text.USART0_InterruptHandler
                0x004088ac      0x12c build/sam_e70_xult/debug/_ext/707186936/plib_usart0.o
                0x004088ac                USART0_InterruptHandler

.text.USART2_InterruptHandler%151
                0x004089d8      0x12c
 .text.USART2_InterruptHandler
                0x004089d8      0x12c build/sam_e70_xult/debug/_ext/707186936/plib_usart2.o
                0x004089d8                USART2_InterruptHandler

.text.put_fat%152
                0x00408b04      0x12c
 .text.put_fat  0x00408b04      0x12c build/sam_e70_xult/debug/_ext/1043829778/ff.o

.text._DRV_SDMMC_CommandSend%153
                0x00408c30      0x128
 .text._DRV_SDMMC_CommandSend
                0x00408c30      0x128 build/sam_e70_xult/debug/_ext/1565510230/drv_sdmmc.o

.text.xQueueGenericSend%154
                0x00408d58      0x128
 .text.xQueueGenericSend
                0x00408d58      0x128 build/sam_e70_xult/debug/_ext/404212886/queue.o
                0x00408d58                xQueueGenericSend

.text.f_rename%155
                0x00408e80      0x126
 .text.f_rename
                0x00408e80      0x126 build/sam_e70_xult/debug/_ext/1043829778/ff.o
                0x00408e80                f_rename

.text._DRV_I2C_WriteReadTransfer%156
                0x00408fa6      0x124
 .text._DRV_I2C_WriteReadTransfer
                0x00408fa6      0x124 build/sam_e70_xult/debug/_ext/957281314/drv_i2c.o

.text.HSMCI_InterruptHandler%157
                0x004090cc      0x120
 .text.HSMCI_InterruptHandler
                0x004090cc      0x120 build/sam_e70_xult/debug/_ext/719181653/plib_hsmci.o
                0x004090cc                HSMCI_InterruptHandler

.text.__hexnan%158
                0x004091ec      0x120
 .text.__hexnan
                0x004091ec      0x120 c:/program files/microchip/xc32/v3.01/bin/bin/../../lib/gcc/pic32c/8.3.1/../../../../pic32c/lib/thumb/v7e-m+dp/hard\libg_nano.a(lib_a-gdtoa-hexnan.o)
                0x004091ec                __hexnan

.text.SYS_Tasks%159
                0x0040930c      0x118
 .text.SYS_Tasks
                0x0040930c      0x118 build/sam_e70_xult/debug/_ext/1728594169/tasks.o
                0x0040930c                SYS_Tasks

.text.f_mkdir%160
                0x00409424      0x116
 .text.f_mkdir  0x00409424      0x116 build/sam_e70_xult/debug/_ext/1043829778/ff.o
                0x00409424                f_mkdir

.text.xTaskIncrementTick%161
                0x0040953c      0x114
 .text.xTaskIncrementTick
                0x0040953c      0x114 build/sam_e70_xult/debug/_ext/404212886/FreeRTOS_tasks.o
                0x0040953c                xTaskIncrementTick

.text.scalbn%162
                0x00409650      0x114
 .text.scalbn   0x00409650      0x114 c:/program files/microchip/xc32/v3.01/bin/bin/../../lib/gcc/pic32c/8.3.1/../../../../pic32c/lib/thumb/v7e-m+dp/hard\libm_nano.a(lib_a-s_scalbn.o)
                0x00409650                scalbn

.rodata.two_over_pi%163
                0x00409764      0x108
 .rodata.two_over_pi
                0x00409764      0x108 c:/program files/microchip/xc32/v3.01/bin/bin/../../lib/gcc/pic32c/8.3.1/../../../../pic32c/lib/thumb/v7e-m+dp/hard\libm_nano.a(lib_a-e_rem_pio2.o)

.text.create_chain%164
                0x0040986c      0x106
 .text.create_chain
                0x0040986c      0x106 build/sam_e70_xult/debug/_ext/1043829778/ff.o

.rodata._ctype_%165
                0x00409972      0x101
 .rodata._ctype_
                0x00409972      0x101 c:/program files/microchip/xc32/v3.01/bin/bin/../../lib/gcc/pic32c/8.3.1/../../../../pic32c/lib/thumb/v7e-m+dp/hard\libg_nano.a(lib_a-ctype_.o)
                0x00409972                _ctype_

.text.DRV_SDMMC_Initialize%166
                0x00409a74      0x100
 .text.DRV_SDMMC_Initialize
                0x00409a74      0x100 build/sam_e70_xult/debug/_ext/1565510230/drv_sdmmc.o
                0x00409a74                DRV_SDMMC_Initialize

.text.DRV_USART_Initialize%167
                0x00409b74      0x100
 .text.DRV_USART_Initialize
                0x00409b74      0x100 build/sam_e70_xult/debug/_ext/716655881/drv_usart.o
                0x00409b74                DRV_USART_Initialize

.rodata.uc437%168
                0x00409c74      0x100
 .rodata.uc437  0x00409c74      0x100 build/sam_e70_xult/debug/_ext/1043829778/ffunicode.o

.text.DRV_SDMMC_Open%169
                0x00409d74       0xfc
 .text.DRV_SDMMC_Open
                0x00409d74       0xfc build/sam_e70_xult/debug/_ext/1565510230/drv_sdmmc.o
                0x00409d74                DRV_SDMMC_Open

.text.check_fs%170
                0x00409e70       0xf8
 .text.check_fs
                0x00409e70       0xf8 build/sam_e70_xult/debug/_ext/1043829778/ff.o

.text.disk_write%171
                0x00409f68       0xf8
 .text.disk_write
                0x00409f68       0xf8 build/sam_e70_xult/debug/_ext/1893760823/diskio.o
                0x00409f68                disk_write

.text.APP_MAST_CONTROL_Tasks%172
                0x0040a060       0xf8
 .text.APP_MAST_CONTROL_Tasks
                0x0040a060       0xf8 build/sam_e70_xult/debug/_ext/1360937237/app_mast_control.o
                0x0040a060                APP_MAST_CONTROL_Tasks

.text.DRV_I2C_Open%173
                0x0040a158       0xf4
 .text.DRV_I2C_Open
                0x0040a158       0xf4 build/sam_e70_xult/debug/_ext/957281314/drv_i2c.o
                0x0040a158                DRV_I2C_Open

.text.HSMCI_CommandSend%174
                0x0040a24c       0xf4
 .text.HSMCI_CommandSend
                0x0040a24c       0xf4 build/sam_e70_xult/debug/_ext/719181653/plib_hsmci.o
                0x0040a24c                HSMCI_CommandSend

.text.floor%175
                0x0040a340       0xf0
 .text.floor    0x0040a340       0xf0 c:/program files/microchip/xc32/v3.01/bin/bin/../../lib/gcc/pic32c/8.3.1/../../../../pic32c/lib/thumb/v7e-m+dp/hard\libm_nano.a(lib_a-s_floor.o)
                0x0040a340                floor

.text._strtol_l.isra.0%176
                0x0040a430       0xec
 .text._strtol_l.isra.0
                0x0040a430       0xec c:/program files/microchip/xc32/v3.01/bin/bin/../../lib/gcc/pic32c/8.3.1/../../../../pic32c/lib/thumb/v7e-m+dp/hard\libg_nano.a(lib_a-strtol.o)

.text.distancetopt%177
                0x0040a520       0xe8
 .text.distancetopt
                0x0040a520       0xe8 build/sam_e70_xult/debug/_ext/1360937237/app_course_algorithm.o
                0x0040a520                distancetopt

.text.xTaskResumeAll%178
                0x0040a608       0xe4
 .text.xTaskResumeAll
                0x0040a608       0xe4 build/sam_e70_xult/debug/_ext/404212886/FreeRTOS_tasks.o
                0x0040a608                xTaskResumeAll

.text.f_getfree%179
                0x0040a6ec       0xd8
 .text.f_getfree
                0x0040a6ec       0xd8 build/sam_e70_xult/debug/_ext/1043829778/ff.o
                0x0040a6ec                f_getfree

.text.__kernel_cos%180
                0x0040a7c8       0xd8
 .text.__kernel_cos
                0x0040a7c8       0xd8 c:/program files/microchip/xc32/v3.01/bin/bin/../../lib/gcc/pic32c/8.3.1/../../../../pic32c/lib/thumb/v7e-m+dp/hard\libm_nano.a(lib_a-k_cos.o)
                0x0040a7c8                __kernel_cos

.text.SYS_TIME_PLIBCallback%181
                0x0040a8a0       0xd4
 .text.SYS_TIME_PLIBCallback
                0x0040a8a0       0xd4 build/sam_e70_xult/debug/_ext/327803284/sys_time.o

.text.get_fat%182
                0x0040a974       0xd0
 .text.get_fat  0x0040a974       0xd0 build/sam_e70_xult/debug/_ext/1043829778/ff.o

.text.f_unlink%183
                0x0040aa44       0xca
 .text.f_unlink
                0x0040aa44       0xca build/sam_e70_xult/debug/_ext/1043829778/ff.o
                0x0040aa44                f_unlink

.text.dir_next%184
                0x0040ab0e       0xc8
 .text.dir_next
                0x0040ab0e       0xc8 build/sam_e70_xult/debug/_ext/1043829778/ff.o

.text.GPS_Process%185
                0x0040abd8       0xc8
 .text.GPS_Process
                0x0040abd8       0xc8 build/sam_e70_xult/debug/_ext/1360937237/app_gps.o
                0x0040abd8                GPS_Process

.text.__mdiff%186
                0x0040aca0       0xc8
 .text.__mdiff  0x0040aca0       0xc8 c:/program files/microchip/xc32/v3.01/bin/bin/../../lib/gcc/pic32c/8.3.1/../../../../pic32c/lib/thumb/v7e-m+dp/hard\libg_nano.a(lib_a-mprec.o)
                0x0040aca0                __mdiff

.rodata.__mprec_tens%187
                0x0040ad68       0xc8
 .rodata.__mprec_tens
                0x0040ad68       0xc8 c:/program files/microchip/xc32/v3.01/bin/bin/../../lib/gcc/pic32c/8.3.1/../../../../pic32c/lib/thumb/v7e-m+dp/hard\libg_nano.a(lib_a-mprec.o)
                0x0040ad68                __mprec_tens

.text.SYS_Initialize%188
                0x0040ae30       0xc4
 .text.SYS_Initialize
                0x0040ae30       0xc4 build/sam_e70_xult/debug/_ext/1728594169/initialization.o
                0x0040ae30                SYS_Initialize

.rodata%189     0x0040aef4       0xc4
 .rodata        0x0040aef4       0xc4 build/sam_e70_xult/debug/_ext/1728594169/tasks.o

.text.processGGA%190
                0x0040afb8       0xc4
 .text.processGGA
                0x0040afb8       0xc4 build/sam_e70_xult/debug/_ext/1360937237/app_gps.o
                0x0040afb8                processGGA

.text.f_truncate%191
                0x0040b07c       0xc2
 .text.f_truncate
                0x0040b07c       0xc2 build/sam_e70_xult/debug/_ext/1043829778/ff.o
                0x0040b07c                f_truncate

.text.disk_read%192
                0x0040b140       0xc0
 .text.disk_read
                0x0040b140       0xc0 build/sam_e70_xult/debug/_ext/1893760823/diskio.o
                0x0040b140                disk_read

.rodata.cvt2.8146%193
                0x0040b200       0xbc
 .rodata.cvt2.8146
                0x0040b200       0xbc build/sam_e70_xult/debug/_ext/1043829778/ffunicode.o

.text.angletopt%194
                0x0040b2c0       0xb8
 .text.angletopt
                0x0040b2c0       0xb8 build/sam_e70_xult/debug/_ext/1360937237/app_course_algorithm.o
                0x0040b2c0                angletopt

.text.ff_wtoupper%195
                0x0040b378       0xb4
 .text.ff_wtoupper
                0x0040b378       0xb4 build/sam_e70_xult/debug/_ext/1043829778/ffunicode.o
                0x0040b378                ff_wtoupper

.text.SYS_TIME_HwTimerCompareUpdate%196
                0x0040b42c       0xb4
 .text.SYS_TIME_HwTimerCompareUpdate
                0x0040b42c       0xb4 build/sam_e70_xult/debug/_ext/327803284/sys_time.o

.text.processRMC%197
                0x0040b4e0       0xb4
 .text.processRMC
                0x0040b4e0       0xb4 build/sam_e70_xult/debug/_ext/1360937237/app_gps.o
                0x0040b4e0                processRMC

.text._malloc_r%198
                0x0040b594       0xb4
 .text._malloc_r
                0x0040b594       0xb4 c:/program files/microchip/xc32/v3.01/bin/bin/../../lib/gcc/pic32c/8.3.1/../../../../pic32c/lib/thumb/v7e-m+dp/hard\libg_nano.a(lib_a-nano-mallocr.o)
                0x0040b594                _malloc_r

.text.dir_sdi%199
                0x0040b648       0xb0
 .text.dir_sdi  0x0040b648       0xb0 build/sam_e70_xult/debug/_ext/1043829778/ff.o

.text.SYS_TIME_TimerObjectCreate%200
                0x0040b6f8       0xb0
 .text.SYS_TIME_TimerObjectCreate
                0x0040b6f8       0xb0 build/sam_e70_xult/debug/_ext/327803284/sys_time.o

.text.SYS_TIME_Initialize%201
                0x0040b7a8       0xb0
 .text.SYS_TIME_Initialize
                0x0040b7a8       0xb0 build/sam_e70_xult/debug/_ext/327803284/sys_time.o
                0x0040b7a8                SYS_TIME_Initialize

.text.__kernel_sin%202
                0x0040b858       0xb0
 .text.__kernel_sin
                0x0040b858       0xb0 c:/program files/microchip/xc32/v3.01/bin/bin/../../lib/gcc/pic32c/8.3.1/../../../../pic32c/lib/thumb/v7e-m+dp/hard\libm_nano.a(lib_a-k_sin.o)
                0x0040b858                __kernel_sin

.text.vTaskSwitchContext%203
                0x0040b908       0xa8
 .text.vTaskSwitchContext
                0x0040b908       0xa8 build/sam_e70_xult/debug/_ext/404212886/FreeRTOS_tasks.o
                0x0040b908                vTaskSwitchContext

.text.xTaskPriorityInherit%204
                0x0040b9b0       0xa8
 .text.xTaskPriorityInherit
                0x0040b9b0       0xa8 build/sam_e70_xult/debug/_ext/404212886/FreeRTOS_tasks.o
                0x0040b9b0                xTaskPriorityInherit

.text.__lshift%205
                0x0040ba58       0xa6
 .text.__lshift
                0x0040ba58       0xa6 c:/program files/microchip/xc32/v3.01/bin/bin/../../lib/gcc/pic32c/8.3.1/../../../../pic32c/lib/thumb/v7e-m+dp/hard\libg_nano.a(lib_a-mprec.o)
                0x0040ba58                __lshift

.text.f_getlabel%206
                0x0040bafe       0xa2
 .text.f_getlabel
                0x0040bafe       0xa2 build/sam_e70_xult/debug/_ext/1043829778/ff.o
                0x0040bafe                f_getlabel

.text.DRV_SDMMC_Close%207
                0x0040bba0       0xa0
 .text.DRV_SDMMC_Close
                0x0040bba0       0xa0 build/sam_e70_xult/debug/_ext/1565510230/drv_sdmmc.o
                0x0040bba0                DRV_SDMMC_Close

.text.TWIHS0_InitiateTransfer%208
                0x0040bc40       0xa0
 .text.TWIHS0_InitiateTransfer
                0x0040bc40       0xa0 build/sam_e70_xult/debug/_ext/1539215101/plib_twihs0_master.o

.text.__b2d%209
                0x0040bce0       0xa0
 .text.__b2d    0x0040bce0       0xa0 c:/program files/microchip/xc32/v3.01/bin/bin/../../lib/gcc/pic32c/8.3.1/../../../../pic32c/lib/thumb/v7e-m+dp/hard\libg_nano.a(lib_a-mprec.o)
                0x0040bce0                __b2d

.text.__d2b%210
                0x0040bd80       0x9e
 .text.__d2b    0x0040bd80       0x9e c:/program files/microchip/xc32/v3.01/bin/bin/../../lib/gcc/pic32c/8.3.1/../../../../pic32c/lib/thumb/v7e-m+dp/hard\libg_nano.a(lib_a-mprec.o)
                0x0040bd80                __d2b

.text.f_sync%211
                0x0040be1e       0x9c
 .text.f_sync   0x0040be1e       0x9c build/sam_e70_xult/debug/_ext/1043829778/ff.o
                0x0040be1e                f_sync

.text.FATFS_unmount%212
                0x0040bebc       0x9c
 .text.FATFS_unmount
                0x0040bebc       0x9c build/sam_e70_xult/debug/_ext/1305476372/sys_fs_fat_interface.o
                0x0040bebc                FATFS_unmount

.text.__pow5mult%213
                0x0040bf58       0x9c
 .text.__pow5mult
                0x0040bf58       0x9c c:/program files/microchip/xc32/v3.01/bin/bin/../../lib/gcc/pic32c/8.3.1/../../../../pic32c/lib/thumb/v7e-m+dp/hard\libg_nano.a(lib_a-mprec.o)
                0x0040bf58                __pow5mult

.text.NVIC_Initialize%214
                0x0040bff4       0x98
 .text.NVIC_Initialize
                0x0040bff4       0x98 build/sam_e70_xult/debug/_ext/1639550079/plib_nvic.o
                0x0040bff4                NVIC_Initialize

.text.DRV_I2C_Initialize%215
                0x0040c08c       0x94
 .text.DRV_I2C_Initialize
                0x0040c08c       0x94 build/sam_e70_xult/debug/_ext/957281314/drv_i2c.o
                0x0040c08c                DRV_I2C_Initialize

.text.remove_chain%216
                0x0040c120       0x94
 .text.remove_chain
                0x0040c120       0x94 build/sam_e70_xult/debug/_ext/1043829778/ff.o

.text.prvAddCurrentTaskToDelayedList%217
                0x0040c1b4       0x94
 .text.prvAddCurrentTaskToDelayedList
                0x0040c1b4       0x94 build/sam_e70_xult/debug/_ext/404212886/FreeRTOS_tasks.o

.text.f_opendir%218
                0x0040c248       0x92
 .text.f_opendir
                0x0040c248       0x92 build/sam_e70_xult/debug/_ext/1043829778/ff.o
                0x0040c248                f_opendir

.text.SYS_TIME_AddToList%219
                0x0040c2dc       0x90
 .text.SYS_TIME_AddToList
                0x0040c2dc       0x90 build/sam_e70_xult/debug/_ext/327803284/sys_time.o

.text.cos%220   0x0040c370       0x90
 .text.cos      0x0040c370       0x90 c:/program files/microchip/xc32/v3.01/bin/bin/../../lib/gcc/pic32c/8.3.1/../../../../pic32c/lib/thumb/v7e-m+dp/hard\libm_nano.a(lib_a-s_cos.o)
                0x0040c370                cos

.text.sin%221   0x0040c400       0x90
 .text.sin      0x0040c400       0x90 c:/program files/microchip/xc32/v3.01/bin/bin/../../lib/gcc/pic32c/8.3.1/../../../../pic32c/lib/thumb/v7e-m+dp/hard\libm_nano.a(lib_a-s_sin.o)
                0x0040c400                sin

.text.USART1_SerialSetup%222
                0x0040c490       0x8c
 .text.USART1_SerialSetup
                0x0040c490       0x8c build/sam_e70_xult/debug/_ext/707186936/plib_usart1.o
                0x0040c490                USART1_SerialSetup

.text.USART0_SerialSetup%223
                0x0040c51c       0x8c
 .text.USART0_SerialSetup
                0x0040c51c       0x8c build/sam_e70_xult/debug/_ext/707186936/plib_usart0.o
                0x0040c51c                USART0_SerialSetup

.text.USART2_SerialSetup%224
                0x0040c5a8       0x8c
 .text.USART2_SerialSetup
                0x0040c5a8       0x8c build/sam_e70_xult/debug/_ext/707186936/plib_usart2.o
                0x0040c5a8                USART2_SerialSetup

.text.sync_fs%225
                0x0040c634       0x8c
 .text.sync_fs  0x0040c634       0x8c build/sam_e70_xult/debug/_ext/1043829778/ff.o

.text.TWIHS0_TransferSetup%226
                0x0040c6c0       0x88
 .text.TWIHS0_TransferSetup
                0x0040c6c0       0x88 build/sam_e70_xult/debug/_ext/1539215101/plib_twihs0_master.o
                0x0040c6c0                TWIHS0_TransferSetup

.rodata.FatFsFunctions%227
                0x0040c748       0x88
 .rodata.FatFsFunctions
                0x0040c748       0x88 build/sam_e70_xult/debug/_ext/1728594169/initialization.o
                0x0040c748                FatFsFunctions

.text.__pic32c_data_initialization%228
                0x0040c7d0       0x88
 .text.__pic32c_data_initialization
                0x0040c7d0       0x88 c:/program files/microchip/xc32/v3.01/bin/bin/../../lib/gcc/pic32c/8.3.1/../../../../pic32c/lib/thumb/v7e-m+dp/hard\libpic32c.a(data_init.o)
                0x0040c7d0                __pic32c_data_initialization

.rodata.ExCvt%229
                0x0040c858       0x80
 .rodata.ExCvt  0x0040c858       0x80 build/sam_e70_xult/debug/_ext/1043829778/ff.o

.text.vTaskPriorityDisinheritAfterTimeout%230
                0x0040c8d8       0x80
 .text.vTaskPriorityDisinheritAfterTimeout
                0x0040c8d8       0x80 build/sam_e70_xult/debug/_ext/404212886/FreeRTOS_tasks.o
                0x0040c8d8                vTaskPriorityDisinheritAfterTimeout

.rodata.npio2_hw%231
                0x0040c958       0x80
 .rodata.npio2_hw
                0x0040c958       0x80 c:/program files/microchip/xc32/v3.01/bin/bin/../../lib/gcc/pic32c/8.3.1/../../../../pic32c/lib/thumb/v7e-m+dp/hard\libm_nano.a(lib_a-e_rem_pio2.o)

.text.prvUnlockQueue%232
                0x0040c9d8       0x7e
 .text.prvUnlockQueue
                0x0040c9d8       0x7e build/sam_e70_xult/debug/_ext/404212886/queue.o

.text.__multadd%233
                0x0040ca56       0x7e
 .text.__multadd
                0x0040ca56       0x7e c:/program files/microchip/xc32/v3.01/bin/bin/../../lib/gcc/pic32c/8.3.1/../../../../pic32c/lib/thumb/v7e-m+dp/hard\libg_nano.a(lib_a-mprec.o)
                0x0040ca56                __multadd

.text.FATFS_mount%234
                0x0040cad4       0x7c
 .text.FATFS_mount
                0x0040cad4       0x7c build/sam_e70_xult/debug/_ext/1305476372/sys_fs_fat_interface.o
                0x0040cad4                FATFS_mount

.text.xTaskPriorityDisinherit%235
                0x0040cb50       0x7c
 .text.xTaskPriorityDisinherit
                0x0040cb50       0x7c build/sam_e70_xult/debug/_ext/404212886/FreeRTOS_tasks.o
                0x0040cb50                xTaskPriorityDisinherit

.text.__s2b%236
                0x0040cbcc       0x7c
 .text.__s2b    0x0040cbcc       0x7c c:/program files/microchip/xc32/v3.01/bin/bin/../../lib/gcc/pic32c/8.3.1/../../../../pic32c/lib/thumb/v7e-m+dp/hard\libg_nano.a(lib_a-mprec.o)
                0x0040cbcc                __s2b

.text.xTaskRemoveFromEventList%237
                0x0040cc48       0x78
 .text.xTaskRemoveFromEventList
                0x0040cc48       0x78 build/sam_e70_xult/debug/_ext/404212886/FreeRTOS_tasks.o
                0x0040cc48                xTaskRemoveFromEventList

.text.parseDegreeMinute%238
                0x0040ccc0       0x78
 .text.parseDegreeMinute
                0x0040ccc0       0x78 build/sam_e70_xult/debug/_ext/1360937237/app_gps.o
                0x0040ccc0                parseDegreeMinute

.text.DRV_USART_WriteBuffer%239
                0x0040cd38       0x76
 .text.DRV_USART_WriteBuffer
                0x0040cd38       0x76 build/sam_e70_xult/debug/_ext/716655881/drv_usart.o
                0x0040cd38                DRV_USART_WriteBuffer

.text.DRV_USART_ReadBuffer%240
                0x0040cdae       0x76
 .text.DRV_USART_ReadBuffer
                0x0040cdae       0x76 build/sam_e70_xult/debug/_ext/716655881/drv_usart.o
                0x0040cdae                DRV_USART_ReadBuffer

.text.inc_lock%241
                0x0040ce24       0x74
 .text.inc_lock
                0x0040ce24       0x74 build/sam_e70_xult/debug/_ext/1043829778/ff.o

.text.rshift%242
                0x0040ce98       0x74
 .text.rshift   0x0040ce98       0x74 c:/program files/microchip/xc32/v3.01/bin/bin/../../lib/gcc/pic32c/8.3.1/../../../../pic32c/lib/thumb/v7e-m+dp/hard\libg_nano.a(lib_a-gdtoa-gethex.o)

.text.prvCopyDataToQueue%243
                0x0040cf0c       0x72
 .text.prvCopyDataToQueue
                0x0040cf0c       0x72 build/sam_e70_xult/debug/_ext/404212886/queue.o

.text.CLOCK_Initialize%244
                0x0040cf80       0x70
 .text.CLOCK_Initialize
                0x0040cf80       0x70 build/sam_e70_xult/debug/_ext/1055500827/plib_clk.o
                0x0040cf80                CLOCK_Initialize

.text.USART1_Write%245
                0x0040cff0       0x70
 .text.USART1_Write
                0x0040cff0       0x70 build/sam_e70_xult/debug/_ext/707186936/plib_usart1.o
                0x0040cff0                USART1_Write

.text.USART0_Write%246
                0x0040d060       0x70
 .text.USART0_Write
                0x0040d060       0x70 build/sam_e70_xult/debug/_ext/707186936/plib_usart0.o
                0x0040d060                USART0_Write

.text.USART2_Write%247
                0x0040d0d0       0x70
 .text.USART2_Write
                0x0040d0d0       0x70 build/sam_e70_xult/debug/_ext/707186936/plib_usart2.o
                0x0040d0d0                USART2_Write

.text.SYS_FS_Initialize%248
                0x0040d140       0x70
 .text.SYS_FS_Initialize
                0x0040d140       0x70 build/sam_e70_xult/debug/_ext/1305476372/sys_fs.o
                0x0040d140                SYS_FS_Initialize

.text.xQueueGenericReset%249
                0x0040d1b0       0x70
 .text.xQueueGenericReset
                0x0040d1b0       0x70 build/sam_e70_xult/debug/_ext/404212886/queue.o
                0x0040d1b0                xQueueGenericReset

.text.prvIdleTask%250
                0x0040d220       0x70
 .text.prvIdleTask
                0x0040d220       0x70 build/sam_e70_xult/debug/_ext/404212886/FreeRTOS_tasks.o

.text.APP_GPS_Tasks%251
                0x0040d290       0x70
 .text.APP_GPS_Tasks
                0x0040d290       0x70 build/sam_e70_xult/debug/_ext/1360937237/app_gps.o
                0x0040d290                APP_GPS_Tasks

.text.XDMAC_InterruptHandler%252
                0x0040d300       0x6c
 .text.XDMAC_InterruptHandler
                0x0040d300       0x6c build/sam_e70_xult/debug/_ext/704852250/plib_xdmac.o
                0x0040d300                XDMAC_InterruptHandler

.text.pvPortMalloc%253
                0x0040d36c       0x6c
 .text.pvPortMalloc
                0x0040d36c       0x6c build/sam_e70_xult/debug/_ext/1665200909/heap_1.o
                0x0040d36c                pvPortMalloc

.text.__utoa%254
                0x0040d3d8       0x6c
 .text.__utoa   0x0040d3d8       0x6c c:/program files/microchip/xc32/v3.01/bin/bin/../../lib/gcc/pic32c/8.3.1/../../../../pic32c/lib/thumb/v7e-m+dp/hard\libg_nano.a(lib_a-utoa.o)
                0x0040d3d8                __utoa

.text.PIO_PinInterruptCallbackRegister%255
                0x0040d444       0x68
 .text.PIO_PinInterruptCallbackRegister
                0x0040d444       0x68 build/sam_e70_xult/debug/_ext/1055488423/plib_pio.o
                0x0040d444                PIO_PinInterruptCallbackRegister

.text._PIO_Interrupt_Handler%256
                0x0040d4ac       0x68
 .text._PIO_Interrupt_Handler
                0x0040d4ac       0x68 build/sam_e70_xult/debug/_ext/1055488423/plib_pio.o
                0x0040d4ac                _PIO_Interrupt_Handler

.text.vTaskStartScheduler%257
                0x0040d514       0x68
 .text.vTaskStartScheduler
                0x0040d514       0x68 build/sam_e70_xult/debug/_ext/404212886/FreeRTOS_tasks.o
                0x0040d514                vTaskStartScheduler

.text.APP_IMU_Tasks%258
                0x0040d57c       0x68
 .text.APP_IMU_Tasks
                0x0040d57c       0x68 build/sam_e70_xult/debug/_ext/1360937237/app_imu.o
                0x0040d57c                APP_IMU_Tasks

.text._Balloc%259
                0x0040d5e4       0x68
 .text._Balloc  0x0040d5e4       0x68 c:/program files/microchip/xc32/v3.01/bin/bin/../../lib/gcc/pic32c/8.3.1/../../../../pic32c/lib/thumb/v7e-m+dp/hard\libg_nano.a(lib_a-mprec.o)
                0x0040d5e4                _Balloc

.text._DRV_SDMMC_DriverHandleValidate%260
                0x0040d64c       0x64
 .text._DRV_SDMMC_DriverHandleValidate
                0x0040d64c       0x64 build/sam_e70_xult/debug/_ext/1565510230/drv_sdmmc.o

.text.f_mount%261
                0x0040d6b0       0x64
 .text.f_mount  0x0040d6b0       0x64 build/sam_e70_xult/debug/_ext/1043829778/ff.o
                0x0040d6b0                f_mount

.text.xPortPendSVHandler%262
                0x0040d720       0x64
 .text.xPortPendSVHandler
                0x0040d720       0x64 build/sam_e70_xult/debug/_ext/977623654/port.o
                0x0040d720                xPortPendSVHandler

.text.xQueueGiveFromISR%263
                0x0040d784       0x64
 .text.xQueueGiveFromISR
                0x0040d784       0x64 build/sam_e70_xult/debug/_ext/404212886/queue.o
                0x0040d784                xQueueGiveFromISR

.text.parseTime%264
                0x0040d7e8       0x64
 .text.parseTime
                0x0040d7e8       0x64 build/sam_e70_xult/debug/_ext/1360937237/app_gps.o
                0x0040d7e8                parseTime

.text.__ratio%265
                0x0040d84c       0x64
 .text.__ratio  0x0040d84c       0x64 c:/program files/microchip/xc32/v3.01/bin/bin/../../lib/gcc/pic32c/8.3.1/../../../../pic32c/lib/thumb/v7e-m+dp/hard\libg_nano.a(lib_a-mprec.o)
                0x0040d84c                __ratio

.text._DRV_SDMMC_PlibCallbackHandler%266
                0x0040d8b0       0x60
 .text._DRV_SDMMC_PlibCallbackHandler
                0x0040d8b0       0x60 build/sam_e70_xult/debug/_ext/1565510230/drv_sdmmc.o

.text._DRV_SDMMC_InitCardContext%267
                0x0040d910       0x60
 .text._DRV_SDMMC_InitCardContext
                0x0040d910       0x60 build/sam_e70_xult/debug/_ext/1565510230/drv_sdmmc.o

.text.PWM0_Initialize%268
                0x0040d970       0x60
 .text.PWM0_Initialize
                0x0040d970       0x60 build/sam_e70_xult/debug/_ext/1055487991/plib_pwm0.o
                0x0040d970                PWM0_Initialize

.text.get_ldnumber%269
                0x0040d9d0       0x60
 .text.get_ldnumber
                0x0040d9d0       0x60 build/sam_e70_xult/debug/_ext/1043829778/ff.o

.text.f_chdir%270
                0x0040da30       0x60
 .text.f_chdir  0x0040da30       0x60 build/sam_e70_xult/debug/_ext/1043829778/ff.o
                0x0040da30                f_chdir

.text.FATFS_open%271
                0x0040da90       0x60
 .text.FATFS_open
                0x0040da90       0x60 build/sam_e70_xult/debug/_ext/1305476372/sys_fs_fat_interface.o
                0x0040da90                FATFS_open

.text.APP_RUDDER_CONTROL_Initialize%272
                0x0040daf0       0x60
 .text.APP_RUDDER_CONTROL_Initialize
                0x0040daf0       0x60 build/sam_e70_xult/debug/_ext/1360937237/app_rudder_control.o
                0x0040daf0                APP_RUDDER_CONTROL_Initialize

.text.__lo0bits%273
                0x0040db50       0x60
 .text.__lo0bits
                0x0040db50       0x60 c:/program files/microchip/xc32/v3.01/bin/bin/../../lib/gcc/pic32c/8.3.1/../../../../pic32c/lib/thumb/v7e-m+dp/hard\libg_nano.a(lib_a-mprec.o)
                0x0040db50                __lo0bits

.text.dir_clear%274
                0x0040dbb0       0x5e
 .text.dir_clear
                0x0040dbb0       0x5e build/sam_e70_xult/debug/_ext/1043829778/ff.o

.text.f_chmod%275
                0x0040dc0e       0x5e
 .text.f_chmod  0x0040dc0e       0x5e build/sam_e70_xult/debug/_ext/1043829778/ff.o
                0x0040dc0e                f_chmod

.text._DRV_USART_DriverHandleValidate%276
                0x0040dc6c       0x5c
 .text._DRV_USART_DriverHandleValidate
                0x0040dc6c       0x5c build/sam_e70_xult/debug/_ext/716655881/drv_usart.o

.text.HSMCI_ModuleInit%277
                0x0040dcc8       0x5c
 .text.HSMCI_ModuleInit
                0x0040dcc8       0x5c build/sam_e70_xult/debug/_ext/719181653/plib_hsmci.o
                0x0040dcc8                HSMCI_ModuleInit

.text.XDMAC_ChannelTransfer%278
                0x0040dd24       0x5c
 .text.XDMAC_ChannelTransfer
                0x0040dd24       0x5c build/sam_e70_xult/debug/_ext/704852250/plib_xdmac.o
                0x0040dd24                XDMAC_ChannelTransfer

.text.dir_remove%279
                0x0040dd80       0x5c
 .text.dir_remove
                0x0040dd80       0x5c build/sam_e70_xult/debug/_ext/1043829778/ff.o

.text.f_utime%280
                0x0040dddc       0x5c
 .text.f_utime  0x0040dddc       0x5c build/sam_e70_xult/debug/_ext/1043829778/ff.o
                0x0040dddc                f_utime

.text.xTaskCheckForTimeOut%281
                0x0040de38       0x5c
 .text.xTaskCheckForTimeOut
                0x0040de38       0x5c build/sam_e70_xult/debug/_ext/404212886/FreeRTOS_tasks.o
                0x0040de38                xTaskCheckForTimeOut

.text.HSMCI_ResponseRead%282
                0x0040de94       0x5a
 .text.HSMCI_ResponseRead
                0x0040de94       0x5a build/sam_e70_xult/debug/_ext/719181653/plib_hsmci.o
                0x0040de94                HSMCI_ResponseRead

.text.f_gets%283
                0x0040deee       0x5a
 .text.f_gets   0x0040deee       0x5a build/sam_e70_xult/debug/_ext/1043829778/ff.o
                0x0040deee                f_gets

.text.IMU_Process%284
                0x0040df48       0x5a
 .text.IMU_Process
                0x0040df48       0x5a build/sam_e70_xult/debug/_ext/1360937237/app_imu.o
                0x0040df48                IMU_Process

.text.OSAL_SEM_Create%285
                0x0040dfa2       0x58
 .text.OSAL_SEM_Create
                0x0040dfa2       0x58 build/sam_e70_xult/debug/_ext/1613695899/osal_freertos.o
                0x0040dfa2                OSAL_SEM_Create

.text.chk_lock%286
                0x0040dffc       0x58
 .text.chk_lock
                0x0040dffc       0x58 build/sam_e70_xult/debug/_ext/1043829778/ff.o

.text.SYS_TIME_TimerStart%287
                0x0040e054       0x58
 .text.SYS_TIME_TimerStart
                0x0040e054       0x58 build/sam_e70_xult/debug/_ext/327803284/sys_time.o
                0x0040e054                SYS_TIME_TimerStart

.text.APP_MAST_CONTROL_Initialize%288
                0x0040e0ac       0x58
 .text.APP_MAST_CONTROL_Initialize
                0x0040e0ac       0x58 build/sam_e70_xult/debug/_ext/1360937237/app_mast_control.o
                0x0040e0ac                APP_MAST_CONTROL_Initialize

.text.DRV_SDMMC_CommandStatus%289
                0x0040e104       0x54
 .text.DRV_SDMMC_CommandStatus
                0x0040e104       0x54 build/sam_e70_xult/debug/_ext/1565510230/drv_sdmmc.o
                0x0040e104                DRV_SDMMC_CommandStatus

.text.HSMCI_DmaSetup%290
                0x0040e158       0x54
 .text.HSMCI_DmaSetup
                0x0040e158       0x54 build/sam_e70_xult/debug/_ext/719181653/plib_hsmci.o
                0x0040e158                HSMCI_DmaSetup

.text.dir_alloc%291
                0x0040e1ac       0x54
 .text.dir_alloc
                0x0040e1ac       0x54 build/sam_e70_xult/debug/_ext/1043829778/ff.o

.rodata%292     0x0040e200       0x54
 .rodata        0x0040e200       0x54 build/sam_e70_xult/debug/_ext/1043829778/ff.o

.text.SYS_FS_MEDIA_MANAGER_SectorRead%293
                0x0040e254       0x54
 .text.SYS_FS_MEDIA_MANAGER_SectorRead
                0x0040e254       0x54 build/sam_e70_xult/debug/_ext/1305476372/sys_fs_media_manager.o
                0x0040e254                SYS_FS_MEDIA_MANAGER_SectorRead

.text.SYS_TIME_RemoveFromList%294
                0x0040e2a8       0x54
 .text.SYS_TIME_RemoveFromList
                0x0040e2a8       0x54 build/sam_e70_xult/debug/_ext/327803284/sys_time.o

.text.SYS_TIME_CallbackRegisterMS%295
                0x0040e2fc       0x54
 .text.SYS_TIME_CallbackRegisterMS
                0x0040e2fc       0x54 build/sam_e70_xult/debug/_ext/327803284/sys_time.o
                0x0040e2fc                SYS_TIME_CallbackRegisterMS

.text.parseDate%296
                0x0040e350       0x54
 .text.parseDate
                0x0040e350       0x54 build/sam_e70_xult/debug/_ext/1360937237/app_gps.o
                0x0040e350                parseDate

.text.sqrt%297  0x0040e3a8       0x54
 .text.sqrt     0x0040e3a8       0x54 c:/program files/microchip/xc32/v3.01/bin/bin/../../lib/gcc/pic32c/8.3.1/../../../../pic32c/lib/thumb/v7e-m+dp/hard\libm_nano.a(lib_a-w_sqrt.o)
                0x0040e3a8                sqrt

.text.disk_checkCommandStatus%298
                0x0040e3fc       0x50
 .text.disk_checkCommandStatus
                0x0040e3fc       0x50 build/sam_e70_xult/debug/_ext/1893760823/diskio.o

.text.SYS_TIME_DelayMS%299
                0x0040e44c       0x50
 .text.SYS_TIME_DelayMS
                0x0040e44c       0x50 build/sam_e70_xult/debug/_ext/327803284/sys_time.o
                0x0040e44c                SYS_TIME_DelayMS

.text._DRV_USART_RX_PLIB_CallbackHandler%300
                0x0040e49c       0x4e
 .text._DRV_USART_RX_PLIB_CallbackHandler
                0x0040e49c       0x4e build/sam_e70_xult/debug/_ext/716655881/drv_usart.o

.text.f_readdir%301
                0x0040e4ea       0x4e
 .text.f_readdir
                0x0040e4ea       0x4e build/sam_e70_xult/debug/_ext/1043829778/ff.o
                0x0040e4ea                f_readdir

.text.Anem_Process%302
                0x0040e538       0x4c
 .text.Anem_Process
                0x0040e538       0x4c build/sam_e70_xult/debug/_ext/1360937237/app_anemometer.o
                0x0040e538                Anem_Process

.text.__ulp%303
                0x0040e584       0x4c
 .text.__ulp    0x0040e584       0x4c c:/program files/microchip/xc32/v3.01/bin/bin/../../lib/gcc/pic32c/8.3.1/../../../../pic32c/lib/thumb/v7e-m+dp/hard\libg_nano.a(lib_a-mprec.o)
                0x0040e584                __ulp

.text._DRV_I2C_DriverHandleValidate%304
                0x0040e5d0       0x48
 .text._DRV_I2C_DriverHandleValidate
                0x0040e5d0       0x48 build/sam_e70_xult/debug/_ext/957281314/drv_i2c.o

.text.sync_window%305
                0x0040e618       0x48
 .text.sync_window
                0x0040e618       0x48 build/sam_e70_xult/debug/_ext/1043829778/ff.o

.rodata.drvSDMMC0PlibAPI%306
                0x0040e660       0x48
 .rodata.drvSDMMC0PlibAPI
                0x0040e660       0x48 build/sam_e70_xult/debug/_ext/1728594169/initialization.o
                0x0040e660                drvSDMMC0PlibAPI

.text.xPortStartScheduler%307
                0x0040e6a8       0x48
 .text.xPortStartScheduler
                0x0040e6a8       0x48 build/sam_e70_xult/debug/_ext/977623654/port.o
                0x0040e6a8                xPortStartScheduler

.text.__libc_init_array%308
                0x0040e6f0       0x48
 .text.__libc_init_array
                0x0040e6f0       0x48 c:/program files/microchip/xc32/v3.01/bin/bin/../../lib/gcc/pic32c/8.3.1/../../../../pic32c/lib/thumb/v7e-m+dp/hard\libg_nano.a(lib_a-init.o)
                0x0040e6f0                __libc_init_array

.text.validate%309
                0x0040e738       0x46
 .text.validate
                0x0040e738       0x46 build/sam_e70_xult/debug/_ext/1043829778/ff.o

.text.f_stat%310
                0x0040e77e       0x44
 .text.f_stat   0x0040e77e       0x44 build/sam_e70_xult/debug/_ext/1043829778/ff.o
                0x0040e77e                f_stat

.text.SYS_INT_SourceDisable%311
                0x0040e7c4       0x44
 .text.SYS_INT_SourceDisable
                0x0040e7c4       0x44 build/sam_e70_xult/debug/_ext/766002106/sys_int.o
                0x0040e7c4                SYS_INT_SourceDisable

.text.__any_on%312
                0x0040e808       0x42
 .text.__any_on
                0x0040e808       0x42 c:/program files/microchip/xc32/v3.01/bin/bin/../../lib/gcc/pic32c/8.3.1/../../../../pic32c/lib/thumb/v7e-m+dp/hard\libg_nano.a(lib_a-mprec.o)
                0x0040e808                __any_on

.text%313       0x0040e84c       0x40
 .text          0x0040e84c       0x40 c:/program files/microchip/xc32/v3.01/bin/bin/../../lib/gcc/pic32c/8.3.1/thumb/v7e-m+dp/hard/crtbegin.o

.text.DRV_SDMMC_EventHandlerSet%314
                0x0040e88c       0x40
 .text.DRV_SDMMC_EventHandlerSet
                0x0040e88c       0x40 build/sam_e70_xult/debug/_ext/1565510230/drv_sdmmc.o
                0x0040e88c                DRV_SDMMC_EventHandlerSet

.rodata.TRAN_SPEED_MULT_TABLE.9508%315
                0x0040e8cc       0x40
 .rodata.TRAN_SPEED_MULT_TABLE.9508
                0x0040e8cc       0x40 build/sam_e70_xult/debug/_ext/1565510230/drv_sdmmc.o

.text.HSMCI_ClockSet%316
                0x0040e90c       0x40
 .text.HSMCI_ClockSet
                0x0040e90c       0x40 build/sam_e70_xult/debug/_ext/719181653/plib_hsmci.o
                0x0040e90c                HSMCI_ClockSet

.text.USART1_Initialize%317
                0x0040e94c       0x40
 .text.USART1_Initialize
                0x0040e94c       0x40 build/sam_e70_xult/debug/_ext/707186936/plib_usart1.o
                0x0040e94c                USART1_Initialize

.text.USART1_Read%318
                0x0040e98c       0x40
 .text.USART1_Read
                0x0040e98c       0x40 build/sam_e70_xult/debug/_ext/707186936/plib_usart1.o
                0x0040e98c                USART1_Read

.text.USART0_Initialize%319
                0x0040e9cc       0x40
 .text.USART0_Initialize
                0x0040e9cc       0x40 build/sam_e70_xult/debug/_ext/707186936/plib_usart0.o
                0x0040e9cc                USART0_Initialize

.text.USART0_Read%320
                0x0040ea0c       0x40
 .text.USART0_Read
                0x0040ea0c       0x40 build/sam_e70_xult/debug/_ext/707186936/plib_usart0.o
                0x0040ea0c                USART0_Read

.text.USART2_Initialize%321
                0x0040ea4c       0x40
 .text.USART2_Initialize
                0x0040ea4c       0x40 build/sam_e70_xult/debug/_ext/707186936/plib_usart2.o
                0x0040ea4c                USART2_Initialize

.text.USART2_Read%322
                0x0040ea8c       0x40
 .text.USART2_Read
                0x0040ea8c       0x40 build/sam_e70_xult/debug/_ext/707186936/plib_usart2.o
                0x0040ea8c                USART2_Read

.text.ff_uni2oem%323
                0x0040eacc       0x40
 .text.ff_uni2oem
                0x0040eacc       0x40 build/sam_e70_xult/debug/_ext/1043829778/ffunicode.o
                0x0040eacc                ff_uni2oem

.text.SYS_FS_MEDIA_MANAGER_Register%324
                0x0040eb0c       0x40
 .text.SYS_FS_MEDIA_MANAGER_Register
                0x0040eb0c       0x40 build/sam_e70_xult/debug/_ext/1305476372/sys_fs_media_manager.o
                0x0040eb0c                SYS_FS_MEDIA_MANAGER_Register

.text.SYS_TIME_TimerAdd%325
                0x0040eb4c       0x40
 .text.SYS_TIME_TimerAdd
                0x0040eb4c       0x40 build/sam_e70_xult/debug/_ext/327803284/sys_time.o

.text.rudder_encoder%326
                0x0040eb90       0x40
 .text.rudder_encoder
                0x0040eb90       0x40 build/sam_e70_xult/debug/_ext/1360937237/app_rudder_control.o
                0x0040eb90                rudder_encoder

.text.__hi0bits%327
                0x0040ebd0       0x40
 .text.__hi0bits
                0x0040ebd0       0x40 c:/program files/microchip/xc32/v3.01/bin/bin/../../lib/gcc/pic32c/8.3.1/../../../../pic32c/lib/thumb/v7e-m+dp/hard\libg_nano.a(lib_a-mprec.o)
                0x0040ebd0                __hi0bits

.rodata.PIo2%328
                0x0040ec10       0x40
 .rodata.PIo2   0x0040ec10       0x40 c:/program files/microchip/xc32/v3.01/bin/bin/../../lib/gcc/pic32c/8.3.1/../../../../pic32c/lib/thumb/v7e-m+dp/hard\libm_nano.a(lib_a-k_rem_pio2.o)

.text%329       0x0040ec50       0x40
 .text          0x0040ec50       0x40 c:/program files/microchip/xc32/v3.01/bin/bin/../../lib/gcc/pic32c/8.3.1/thumb/v7e-m+dp/hard\libgcc.a(_fixunsdfdi.o)
                0x0040ec50                __fixunsdfdi
                0x0040ec50                __aeabi_d2ulz

.text.putc_bfd%330
                0x0040ec90       0x3e
 .text.putc_bfd
                0x0040ec90       0x3e build/sam_e70_xult/debug/_ext/1043829778/ff.o

.text.FATFS_getclusters%331
                0x0040ecce       0x3e
 .text.FATFS_getclusters
                0x0040ecce       0x3e build/sam_e70_xult/debug/_ext/1305476372/sys_fs_fat_interface.o
                0x0040ecce                FATFS_getclusters

.text.OSAL_SEM_PostISR%332
                0x0040ed0c       0x3c
 .text.OSAL_SEM_PostISR
                0x0040ed0c       0x3c build/sam_e70_xult/debug/_ext/1613695899/osal_freertos.o
                0x0040ed0c                OSAL_SEM_PostISR

.text.TWIHS0_Initialize%333
                0x0040ed48       0x3c
 .text.TWIHS0_Initialize
                0x0040ed48       0x3c build/sam_e70_xult/debug/_ext/1539215101/plib_twihs0_master.o
                0x0040ed48                TWIHS0_Initialize

.text.SYS_TIME_GetTimerObject%334
                0x0040ed84       0x3c
 .text.SYS_TIME_GetTimerObject
                0x0040ed84       0x3c build/sam_e70_xult/debug/_ext/327803284/sys_time.o

.text.SYS_TIME_ResourceUnlock%335
                0x0040edc0       0x3c
 .text.SYS_TIME_ResourceUnlock
                0x0040edc0       0x3c build/sam_e70_xult/debug/_ext/327803284/sys_time.o

.text.SYS_TIME_TimerDestroy%336
                0x0040edfc       0x3c
 .text.SYS_TIME_TimerDestroy
                0x0040edfc       0x3c build/sam_e70_xult/debug/_ext/327803284/sys_time.o
                0x0040edfc                SYS_TIME_TimerDestroy

.text.putc_flush%337
                0x0040ee38       0x3a
 .text.putc_flush
                0x0040ee38       0x3a build/sam_e70_xult/debug/_ext/1043829778/ff.o

.text.disk_ioctl%338
                0x0040ee72       0x3a
 .text.disk_ioctl
                0x0040ee72       0x3a build/sam_e70_xult/debug/_ext/1893760823/diskio.o
                0x0040ee72                disk_ioctl

.text.SYS_CACHE_InvalidateDCache_by_Addr%339
                0x0040eeac       0x38
 .text.SYS_CACHE_InvalidateDCache_by_Addr
                0x0040eeac       0x38 build/sam_e70_xult/debug/_ext/876653320/sys_cache.o
                0x0040eeac                SYS_CACHE_InvalidateDCache_by_Addr

.text.SYS_CACHE_CleanDCache_by_Addr%340
                0x0040eee4       0x38
 .text.SYS_CACHE_CleanDCache_by_Addr
                0x0040eee4       0x38 build/sam_e70_xult/debug/_ext/876653320/sys_cache.o
                0x0040eee4                SYS_CACHE_CleanDCache_by_Addr

.text.move_window%341
                0x0040ef1c       0x38
 .text.move_window
                0x0040ef1c       0x38 build/sam_e70_xult/debug/_ext/1043829778/ff.o

.text.disk_read_aligned%342
                0x0040ef54       0x38
 .text.disk_read_aligned
                0x0040ef54       0x38 build/sam_e70_xult/debug/_ext/1893760823/diskio.o

.text.SYS_TIME_ResourceLock%343
                0x0040ef8c       0x38
 .text.SYS_TIME_ResourceLock
                0x0040ef8c       0x38 build/sam_e70_xult/debug/_ext/327803284/sys_time.o

.text.parseFloat%344
                0x0040efc8       0x38
 .text.parseFloat
                0x0040efc8       0x38 build/sam_e70_xult/debug/_ext/1360937237/app_gps.o
                0x0040efc8                parseFloat

.text.TWIHS0_InitiateRead%345
                0x0040f000       0x34
 .text.TWIHS0_InitiateRead
                0x0040f000       0x34 build/sam_e70_xult/debug/_ext/1539215101/plib_twihs0_master.o

.text.dec_lock%346
                0x0040f034       0x34
 .text.dec_lock
                0x0040f034       0x34 build/sam_e70_xult/debug/_ext/1043829778/ff.o

.text.f_close%347
                0x0040f068       0x34
 .text.f_close  0x0040f068       0x34 build/sam_e70_xult/debug/_ext/1043829778/ff.o
                0x0040f068                f_close

.text.f_fdisk%348
                0x0040f09c       0x34
 .text.f_fdisk  0x0040f09c       0x34 build/sam_e70_xult/debug/_ext/1043829778/ff.o
                0x0040f09c                f_fdisk

.text.vListInsert%349
                0x0040f0d0       0x34
 .text.vListInsert
                0x0040f0d0       0x34 build/sam_e70_xult/debug/_ext/404212886/list.o
                0x0040f0d0                vListInsert

.text.vTaskDelay%350
                0x0040f104       0x34
 .text.vTaskDelay
                0x0040f104       0x34 build/sam_e70_xult/debug/_ext/404212886/FreeRTOS_tasks.o
                0x0040f104                vTaskDelay

.text.memmove%351
                0x0040f138       0x34
 .text.memmove  0x0040f138       0x34 c:/program files/microchip/xc32/v3.01/bin/bin/../../lib/gcc/pic32c/8.3.1/../../../../pic32c/lib/thumb/v7e-m+dp/hard\libg_nano.a(lib_a-memmove.o)
                0x0040f138                memmove

.text.sulp%352  0x0040f16c       0x34
 .text.sulp     0x0040f16c       0x34 c:/program files/microchip/xc32/v3.01/bin/bin/../../lib/gcc/pic32c/8.3.1/../../../../pic32c/lib/thumb/v7e-m+dp/hard\libg_nano.a(lib_a-strtod.o)

.text.__mcmp%353
                0x0040f1a0       0x34
 .text.__mcmp   0x0040f1a0       0x34 c:/program files/microchip/xc32/v3.01/bin/bin/../../lib/gcc/pic32c/8.3.1/../../../../pic32c/lib/thumb/v7e-m+dp/hard\libg_nano.a(lib_a-mprec.o)
                0x0040f1a0                __mcmp

.text.__copybits%354
                0x0040f1d4       0x34
 .text.__copybits
                0x0040f1d4       0x34 c:/program files/microchip/xc32/v3.01/bin/bin/../../lib/gcc/pic32c/8.3.1/../../../../pic32c/lib/thumb/v7e-m+dp/hard\libg_nano.a(lib_a-mprec.o)
                0x0040f1d4                __copybits

.rodata.sdmmcMediaFunctions%355
                0x0040f208       0x30
 .rodata.sdmmcMediaFunctions
                0x0040f208       0x30 build/sam_e70_xult/debug/_ext/1565510230/drv_sdmmc_file_system.o
                0x0040f208                sdmmcMediaFunctions

.text.f_puts%356
                0x0040f238       0x30
 .text.f_puts   0x0040f238       0x30 build/sam_e70_xult/debug/_ext/1043829778/ff.o
                0x0040f238                f_puts

.text.diskEventHandler%357
                0x0040f268       0x30
 .text.diskEventHandler
                0x0040f268       0x30 build/sam_e70_xult/debug/_ext/1893760823/diskio.o
                0x0040f268                diskEventHandler

.text.SYS_FS_MEDIA_MANAGER_EventHandler%358
                0x0040f298       0x30
 .text.SYS_FS_MEDIA_MANAGER_EventHandler
                0x0040f298       0x30 build/sam_e70_xult/debug/_ext/1305476372/sys_fs_media_manager.o
                0x0040f298                SYS_FS_MEDIA_MANAGER_EventHandler

.text.SYS_TIME_UpdateTimerList%359
                0x0040f2c8       0x30
 .text.SYS_TIME_UpdateTimerList
                0x0040f2c8       0x30 build/sam_e70_xult/debug/_ext/327803284/sys_time.o

.text.xPortSysTickHandler%360
                0x0040f2f8       0x30
 .text.xPortSysTickHandler
                0x0040f2f8       0x30 build/sam_e70_xult/debug/_ext/977623654/port.o
                0x0040f2f8                xPortSysTickHandler

.text.xQueueGenericCreate%361
                0x0040f328       0x30
 .text.xQueueGenericCreate
                0x0040f328       0x30 build/sam_e70_xult/debug/_ext/404212886/queue.o
                0x0040f328                xQueueGenericCreate

.text.find_char%362
                0x0040f358       0x30
 .text.find_char
                0x0040f358       0x30 build/sam_e70_xult/debug/_ext/1360937237/app_communication.o
                0x0040f358                find_char

.text%363       0x0040f388       0x30
 .text          0x0040f388       0x30 c:/program files/microchip/xc32/v3.01/bin/bin/../../lib/gcc/pic32c/8.3.1/thumb/v7e-m+dp/hard\libgcc.a(_aeabi_uldivmod.o)
                0x0040f388                __aeabi_uldivmod

.text.__itoa%364
                0x0040f3b8       0x30
 .text.__itoa   0x0040f3b8       0x30 c:/program files/microchip/xc32/v3.01/bin/bin/../../lib/gcc/pic32c/8.3.1/../../../../pic32c/lib/thumb/v7e-m+dp/hard\libg_nano.a(lib_a-itoa.o)
                0x0040f3b8                __itoa

.text._Bfree%365
                0x0040f3e8       0x2e
 .text._Bfree   0x0040f3e8       0x2e c:/program files/microchip/xc32/v3.01/bin/bin/../../lib/gcc/pic32c/8.3.1/../../../../pic32c/lib/thumb/v7e-m+dp/hard\libg_nano.a(lib_a-mprec.o)
                0x0040f3e8                _Bfree

.text.DRV_SDMMC_IsAttached%366
                0x0040f418       0x2c
 .text.DRV_SDMMC_IsAttached
                0x0040f418       0x2c build/sam_e70_xult/debug/_ext/1565510230/drv_sdmmc.o
                0x0040f418                DRV_SDMMC_IsAttached

.text.TWIHS0_Read%367
                0x0040f444       0x2c
 .text.TWIHS0_Read
                0x0040f444       0x2c build/sam_e70_xult/debug/_ext/1539215101/plib_twihs0_master.o
                0x0040f444                TWIHS0_Read

.text.TWIHS0_Write%368
                0x0040f470       0x2c
 .text.TWIHS0_Write
                0x0040f470       0x2c build/sam_e70_xult/debug/_ext/1539215101/plib_twihs0_master.o
                0x0040f470                TWIHS0_Write

.text.TWIHS0_WriteRead%369
                0x0040f49c       0x2c
 .text.TWIHS0_WriteRead
                0x0040f49c       0x2c build/sam_e70_xult/debug/_ext/1539215101/plib_twihs0_master.o
                0x0040f49c                TWIHS0_WriteRead

.text.USART1_ErrorClear%370
                0x0040f4c8       0x2c
 .text.USART1_ErrorClear
                0x0040f4c8       0x2c build/sam_e70_xult/debug/_ext/707186936/plib_usart1.o

.text.USART0_ErrorClear%371
                0x0040f4f4       0x2c
 .text.USART0_ErrorClear
                0x0040f4f4       0x2c build/sam_e70_xult/debug/_ext/707186936/plib_usart0.o

.text.USART2_ErrorClear%372
                0x0040f520       0x2c
 .text.USART2_ErrorClear
                0x0040f520       0x2c build/sam_e70_xult/debug/_ext/707186936/plib_usart2.o

.text.FATFS_opendir%373
                0x0040f54c       0x2c
 .text.FATFS_opendir
                0x0040f54c       0x2c build/sam_e70_xult/debug/_ext/1305476372/sys_fs_fat_interface.o
                0x0040f54c                FATFS_opendir

.rodata.drvUsart0PlibAPI%374
                0x0040f578       0x2c
 .rodata.drvUsart0PlibAPI
                0x0040f578       0x2c build/sam_e70_xult/debug/_ext/1728594169/initialization.o
                0x0040f578                drvUsart0PlibAPI

.rodata.drvUsart1PlibAPI%375
                0x0040f5a4       0x2c
 .rodata.drvUsart1PlibAPI
                0x0040f5a4       0x2c build/sam_e70_xult/debug/_ext/1728594169/initialization.o
                0x0040f5a4                drvUsart1PlibAPI

.rodata.drvUsart2PlibAPI%376
                0x0040f5d0       0x2c
 .rodata.drvUsart2PlibAPI
                0x0040f5d0       0x2c build/sam_e70_xult/debug/_ext/1728594169/initialization.o
                0x0040f5d0                drvUsart2PlibAPI

.text.pxPortInitialiseStack%377
                0x0040f5fc       0x2c
 .text.pxPortInitialiseStack
                0x0040f5fc       0x2c build/sam_e70_xult/debug/_ext/977623654/port.o
                0x0040f5fc                pxPortInitialiseStack

.text.prvResetNextTaskUnblockTime%378
                0x0040f628       0x2c
 .text.prvResetNextTaskUnblockTime
                0x0040f628       0x2c build/sam_e70_xult/debug/_ext/404212886/FreeRTOS_tasks.o

.text._sbrk%379
                0x0040f654       0x2c
 .text._sbrk    0x0040f654       0x2c c:/program files/microchip/xc32/v3.01/bin/bin/../../lib/gcc/pic32c/8.3.1/../../../../pic32c/lib/thumb/v7e-m+dp/hard\libpic32c.a(sbrk.o)
                0x0040f654                _sbrk

.text.f_closedir%380
                0x0040f680       0x2a
 .text.f_closedir
                0x0040f680       0x2a build/sam_e70_xult/debug/_ext/1043829778/ff.o
                0x0040f680                f_closedir

.text.__hexdig_fun%381
                0x0040f6aa       0x2a
 .text.__hexdig_fun
                0x0040f6aa       0x2a c:/program files/microchip/xc32/v3.01/bin/bin/../../lib/gcc/pic32c/8.3.1/../../../../pic32c/lib/thumb/v7e-m+dp/hard\libg_nano.a(lib_a-gdtoa-gethex.o)
                0x0040f6aa                __hexdig_fun

.text._DRV_I2C_PLibCallbackHandler%382
                0x0040f6d4       0x28
 .text._DRV_I2C_PLibCallbackHandler
                0x0040f6d4       0x28 build/sam_e70_xult/debug/_ext/957281314/drv_i2c.o

.text.USART1_ReadAbort%383
                0x0040f6fc       0x28
 .text.USART1_ReadAbort
                0x0040f6fc       0x28 build/sam_e70_xult/debug/_ext/707186936/plib_usart1.o
                0x0040f6fc                USART1_ReadAbort

.text.USART0_ReadAbort%384
                0x0040f724       0x28
 .text.USART0_ReadAbort
                0x0040f724       0x28 build/sam_e70_xult/debug/_ext/707186936/plib_usart0.o
                0x0040f724                USART0_ReadAbort

.text.USART2_ReadAbort%385
                0x0040f74c       0x28
 .text.USART2_ReadAbort
                0x0040f74c       0x28 build/sam_e70_xult/debug/_ext/707186936/plib_usart2.o
                0x0040f74c                USART2_ReadAbort

.text.XDMAC_Initialize%386
                0x0040f774       0x28
 .text.XDMAC_Initialize
                0x0040f774       0x28 build/sam_e70_xult/debug/_ext/704852250/plib_xdmac.o
                0x0040f774                XDMAC_Initialize

.text.tchar2uni%387
                0x0040f79c       0x28
 .text.tchar2uni
                0x0040f79c       0x28 build/sam_e70_xult/debug/_ext/1043829778/ff.o

.text.ff_oem2uni%388
                0x0040f7c4       0x28
 .text.ff_oem2uni
                0x0040f7c4       0x28 build/sam_e70_xult/debug/_ext/1043829778/ffunicode.o
                0x0040f7c4                ff_oem2uni

.text.FATFS_mkfs%389
                0x0040f7ec       0x28
 .text.FATFS_mkfs
                0x0040f7ec       0x28 build/sam_e70_xult/debug/_ext/1305476372/sys_fs_fat_interface.o
                0x0040f7ec                FATFS_mkfs

.text.SYS_TIME_TimerPeriodHasExpired%390
                0x0040f814       0x28
 .text.SYS_TIME_TimerPeriodHasExpired
                0x0040f814       0x28 build/sam_e70_xult/debug/_ext/327803284/sys_time.o
                0x0040f814                SYS_TIME_TimerPeriodHasExpired

.text.prvPortStartFirstTask%391
                0x0040f83c       0x28
 .text.prvPortStartFirstTask
                0x0040f83c       0x28 build/sam_e70_xult/debug/_ext/977623654/port.o

.text.vPortSetupTimerInterrupt%392
                0x0040f864       0x28
 .text.vPortSetupTimerInterrupt
                0x0040f864       0x28 build/sam_e70_xult/debug/_ext/977623654/port.o
                0x0040f864                vPortSetupTimerInterrupt

.rodata.tinytens%393
                0x0040f890       0x28
 .rodata.tinytens
                0x0040f890       0x28 c:/program files/microchip/xc32/v3.01/bin/bin/../../lib/gcc/pic32c/8.3.1/../../../../pic32c/lib/thumb/v7e-m+dp/hard\libg_nano.a(lib_a-strtod.o)

.text.__match%394
                0x0040f8b8       0x28
 .text.__match  0x0040f8b8       0x28 c:/program files/microchip/xc32/v3.01/bin/bin/../../lib/gcc/pic32c/8.3.1/../../../../pic32c/lib/thumb/v7e-m+dp/hard\libg_nano.a(lib_a-gdtoa-hexnan.o)
                0x0040f8b8                __match

.rodata.__mprec_bigtens%395
                0x0040f8e0       0x28
 .rodata.__mprec_bigtens
                0x0040f8e0       0x28 c:/program files/microchip/xc32/v3.01/bin/bin/../../lib/gcc/pic32c/8.3.1/../../../../pic32c/lib/thumb/v7e-m+dp/hard\libg_nano.a(lib_a-mprec.o)
                0x0040f8e0                __mprec_bigtens

.text.f_putc%396
                0x0040f908       0x26
 .text.f_putc   0x0040f908       0x26 build/sam_e70_xult/debug/_ext/1043829778/ff.o
                0x0040f908                f_putc

.text.get_fattime%397
                0x0040f92e       0x26
 .text.get_fattime
                0x0040f92e       0x26 build/sam_e70_xult/debug/_ext/1893760823/diskio.o
                0x0040f92e                get_fattime

.text.uxListRemove%398
                0x0040f954       0x26
 .text.uxListRemove
                0x0040f954       0x26 build/sam_e70_xult/debug/_ext/404212886/list.o
                0x0040f954                uxListRemove

.text.strncpy%399
                0x0040f97a       0x26
 .text.strncpy  0x0040f97a       0x26 c:/program files/microchip/xc32/v3.01/bin/bin/../../lib/gcc/pic32c/8.3.1/../../../../pic32c/lib/thumb/v7e-m+dp/hard\libg_nano.a(lib_a-strncpy.o)
                0x0040f97a                strncpy

.rodata%400     0x0040f9a0       0x25
 .rodata        0x0040f9a0       0x25 c:/program files/microchip/xc32/v3.01/bin/bin/../../lib/gcc/pic32c/8.3.1/../../../../pic32c/lib/thumb/v7e-m+dp/hard\libg_nano.a(lib_a-utoa.o)

.text.DRV_SDMMC_GeometryGet%401
                0x0040f9c8       0x24
 .text.DRV_SDMMC_GeometryGet
                0x0040f9c8       0x24 build/sam_e70_xult/debug/_ext/1565510230/drv_sdmmc.o
                0x0040f9c8                DRV_SDMMC_GeometryGet

.text.TC3_CH0_TimerInitialize%402
                0x0040f9ec       0x24
 .text.TC3_CH0_TimerInitialize
                0x0040f9ec       0x24 build/sam_e70_xult/debug/_ext/865331892/plib_tc3.o
                0x0040f9ec                TC3_CH0_TimerInitialize

.text.TC3_CH0_InterruptHandler%403
                0x0040fa10       0x24
 .text.TC3_CH0_InterruptHandler
                0x0040fa10       0x24 build/sam_e70_xult/debug/_ext/865331892/plib_tc3.o
                0x0040fa10                TC3_CH0_InterruptHandler

.text.f_chdrive%404
                0x0040fa34       0x24
 .text.f_chdrive
                0x0040fa34       0x24 build/sam_e70_xult/debug/_ext/1043829778/ff.o
                0x0040fa34                f_chdrive

.rodata.drvSDMMC0InitData%405
                0x0040fa58       0x24
 .rodata.drvSDMMC0InitData
                0x0040fa58       0x24 build/sam_e70_xult/debug/_ext/1728594169/initialization.o
                0x0040fa58                drvSDMMC0InitData

.text.prvTaskExitError%406
                0x0040fa7c       0x24
 .text.prvTaskExitError
                0x0040fa7c       0x24 build/sam_e70_xult/debug/_ext/977623654/port.o

.text.vPortSVCHandler%407
                0x0040faa0       0x24
 .text.vPortSVCHandler
                0x0040faa0       0x24 build/sam_e70_xult/debug/_ext/977623654/port.o
                0x0040faa0                vPortSVCHandler

.text.vPortEnterCritical%408
                0x0040fac4       0x24
 .text.vPortEnterCritical
                0x0040fac4       0x24 build/sam_e70_xult/debug/_ext/977623654/port.o
                0x0040fac4                vPortEnterCritical

.text.xQueueCreateMutex%409
                0x0040fae8       0x24
 .text.xQueueCreateMutex
                0x0040fae8       0x24 build/sam_e70_xult/debug/_ext/404212886/queue.o
                0x0040fae8                xQueueCreateMutex

.text.strncmp%410
                0x0040fb0c       0x24
 .text.strncmp  0x0040fb0c       0x24 c:/program files/microchip/xc32/v3.01/bin/bin/../../lib/gcc/pic32c/8.3.1/../../../../pic32c/lib/thumb/v7e-m+dp/hard\libg_nano.a(lib_a-strncmp.o)
                0x0040fb0c                strncmp

.text.L_shift%411
                0x0040fb30       0x24
 .text.L_shift  0x0040fb30       0x24 c:/program files/microchip/xc32/v3.01/bin/bin/../../lib/gcc/pic32c/8.3.1/../../../../pic32c/lib/thumb/v7e-m+dp/hard\libg_nano.a(lib_a-gdtoa-hexnan.o)

.text.__ascii_mbtowc%412
                0x0040fb54       0x24
 .text.__ascii_mbtowc
                0x0040fb54       0x24 c:/program files/microchip/xc32/v3.01/bin/bin/../../lib/gcc/pic32c/8.3.1/../../../../pic32c/lib/thumb/v7e-m+dp/hard\libg_nano.a(lib_a-mbtowc_r.o)
                0x0040fb54                __ascii_mbtowc

.text%413       0x0040fb78       0x24
 .text          0x0040fb78       0x24 c:/program files/microchip/xc32/v3.01/bin/bin/../../lib/gcc/pic32c/8.3.1/thumb/v7e-m+dp/hard\libgcc.a(_fixdfdi.o)
                0x0040fb78                __fixdfdi
                0x0040fb78                __aeabi_d2lz

.text.SYS_FS_MEDIA_MANAGER_IsFSFat%414
                0x0040fb9c       0x22
 .text.SYS_FS_MEDIA_MANAGER_IsFSFat
                0x0040fb9c       0x22 build/sam_e70_xult/debug/_ext/1305476372/sys_fs_media_manager.o

.text.FATFS_readdir%415
                0x0040fbbe       0x22
 .text.FATFS_readdir
                0x0040fbbe       0x22 build/sam_e70_xult/debug/_ext/1305476372/sys_fs_fat_interface.o
                0x0040fbbe                FATFS_readdir

.text.FATFS_chdrive%416
                0x0040fbe0       0x22
 .text.FATFS_chdrive
                0x0040fbe0       0x22 build/sam_e70_xult/debug/_ext/1305476372/sys_fs_fat_interface.o
                0x0040fbe0                FATFS_chdrive

.text.Radio_Encode%417
                0x0040fc02       0x22
 .text.Radio_Encode
                0x0040fc02       0x22 build/sam_e70_xult/debug/_ext/1360937237/app_communication.o
                0x0040fc02                Radio_Encode

.rodata.TRAN_SPEED_UNIT_TABLE.9507%418
                0x0040fc24       0x20
 .rodata.TRAN_SPEED_UNIT_TABLE.9507
                0x0040fc24       0x20 build/sam_e70_xult/debug/_ext/1565510230/drv_sdmmc.o

.text.HSMCI_IsDatLineBusy%419
                0x0040fc44       0x20
 .text.HSMCI_IsDatLineBusy
                0x0040fc44       0x20 build/sam_e70_xult/debug/_ext/719181653/plib_hsmci.o
                0x0040fc44                HSMCI_IsDatLineBusy

.text.XDMAC_ChannelSettingsSet%420
                0x0040fc64       0x20
 .text.XDMAC_ChannelSettingsSet
                0x0040fc64       0x20 build/sam_e70_xult/debug/_ext/704852250/plib_xdmac.o
                0x0040fc64                XDMAC_ChannelSettingsSet

.text.ld_clust%421
                0x0040fc84       0x20
 .text.ld_clust
                0x0040fc84       0x20 build/sam_e70_xult/debug/_ext/1043829778/ff.o

.text.SYS_FS_MEDIA_MANAGER_TransferTask%422
                0x0040fca4       0x20
 .text.SYS_FS_MEDIA_MANAGER_TransferTask
                0x0040fca4       0x20 build/sam_e70_xult/debug/_ext/1305476372/sys_fs_media_manager.o
                0x0040fca4                SYS_FS_MEDIA_MANAGER_TransferTask

.rodata%423     0x0040fcc4       0x20
 .rodata        0x0040fcc4       0x20 build/sam_e70_xult/debug/_ext/1305476372/sys_fs_media_manager.o

.text.FATFS_stat%424
                0x0040fce4       0x20
 .text.FATFS_stat
                0x0040fce4       0x20 build/sam_e70_xult/debug/_ext/1305476372/sys_fs_fat_interface.o
                0x0040fce4                FATFS_stat

.text.SYS_TIME_GetElapsedCount%425
                0x0040fd04       0x20
 .text.SYS_TIME_GetElapsedCount
                0x0040fd04       0x20 build/sam_e70_xult/debug/_ext/327803284/sys_time.o

.rodata.drvUsart0InitData%426
                0x0040fd24       0x20
 .rodata.drvUsart0InitData
                0x0040fd24       0x20 build/sam_e70_xult/debug/_ext/1728594169/initialization.o
                0x0040fd24                drvUsart0InitData

.rodata.drvUsart1InitData%427
                0x0040fd44       0x20
 .rodata.drvUsart1InitData
                0x0040fd44       0x20 build/sam_e70_xult/debug/_ext/1728594169/initialization.o
                0x0040fd44                drvUsart1InitData

.rodata.drvUsart2InitData%428
                0x0040fd64       0x20
 .rodata.drvUsart2InitData
                0x0040fd64       0x20 build/sam_e70_xult/debug/_ext/1728594169/initialization.o
                0x0040fd64                drvUsart2InitData

.text.mast_encoder%429
                0x0040fd84       0x20
 .text.mast_encoder
                0x0040fd84       0x20 build/sam_e70_xult/debug/_ext/1360937237/app_mast_control.o
                0x0040fd84                mast_encoder

.text._sbrk_r%430
                0x0040fda4       0x20
 .text._sbrk_r  0x0040fda4       0x20 c:/program files/microchip/xc32/v3.01/bin/bin/../../lib/gcc/pic32c/8.3.1/../../../../pic32c/lib/thumb/v7e-m+dp/hard\libg_nano.a(lib_a-sbrkr.o)
                0x0040fda4                _sbrk_r

.rodata.atanhi%431
                0x0040fdc8       0x20
 .rodata.atanhi
                0x0040fdc8       0x20 c:/program files/microchip/xc32/v3.01/bin/bin/../../lib/gcc/pic32c/8.3.1/../../../../pic32c/lib/thumb/v7e-m+dp/hard\libm_nano.a(lib_a-s_atan.o)

.rodata.atanlo%432
                0x0040fde8       0x20
 .rodata.atanlo
                0x0040fde8       0x20 c:/program files/microchip/xc32/v3.01/bin/bin/../../lib/gcc/pic32c/8.3.1/../../../../pic32c/lib/thumb/v7e-m+dp/hard\libm_nano.a(lib_a-s_atan.o)

.text.OSAL_SEM_Pend%433
                0x0040fe08       0x1e
 .text.OSAL_SEM_Pend
                0x0040fe08       0x1e build/sam_e70_xult/debug/_ext/1613695899/osal_freertos.o
                0x0040fe08                OSAL_SEM_Pend

.text.OSAL_MUTEX_Lock%434
                0x0040fe26       0x1e
 .text.OSAL_MUTEX_Lock
                0x0040fe26       0x1e build/sam_e70_xult/debug/_ext/1613695899/osal_freertos.o
                0x0040fe26                OSAL_MUTEX_Lock

.text.sum_sfn%435
                0x0040fe44       0x1e
 .text.sum_sfn  0x0040fe44       0x1e build/sam_e70_xult/debug/_ext/1043829778/ff.o

.text.FATFS_close%436
                0x0040fe62       0x1e
 .text.FATFS_close
                0x0040fe62       0x1e build/sam_e70_xult/debug/_ext/1305476372/sys_fs_fat_interface.o
                0x0040fe62                FATFS_close

.text.FATFS_closedir%437
                0x0040fe80       0x1e
 .text.FATFS_closedir
                0x0040fe80       0x1e build/sam_e70_xult/debug/_ext/1305476372/sys_fs_fat_interface.o
                0x0040fe80                FATFS_closedir

.text.DRV_I2C_TransferSetup%438
                0x0040fe9e       0x1c
 .text.DRV_I2C_TransferSetup
                0x0040fe9e       0x1c build/sam_e70_xult/debug/_ext/957281314/drv_i2c.o
                0x0040fe9e                DRV_I2C_TransferSetup

.text.HSMCI_BlockSizeSet%439
                0x0040febc       0x1c
 .text.HSMCI_BlockSizeSet
                0x0040febc       0x1c build/sam_e70_xult/debug/_ext/719181653/plib_hsmci.o
                0x0040febc                HSMCI_BlockSizeSet

.text.PWM0_InterruptHandler%440
                0x0040fed8       0x1c
 .text.PWM0_InterruptHandler
                0x0040fed8       0x1c build/sam_e70_xult/debug/_ext/1055487991/plib_pwm0.o
                0x0040fed8                PWM0_InterruptHandler

.text.XDMAC_ChannelDisable%441
                0x0040fef4       0x1c
 .text.XDMAC_ChannelDisable
                0x0040fef4       0x1c build/sam_e70_xult/debug/_ext/704852250/plib_xdmac.o
                0x0040fef4                XDMAC_ChannelDisable

.text._SYS_FS_MEDIA_MANAGER_HandleMediaDetach%442
                0x0040ff10       0x1c
 .text._SYS_FS_MEDIA_MANAGER_HandleMediaDetach
                0x0040ff10       0x1c build/sam_e70_xult/debug/_ext/1305476372/sys_fs_media_manager.o

.text.SYS_FS_MEDIA_MANAGER_GetMediaGeometry%443
                0x0040ff2c       0x1c
 .text.SYS_FS_MEDIA_MANAGER_GetMediaGeometry
                0x0040ff2c       0x1c build/sam_e70_xult/debug/_ext/1305476372/sys_fs_media_manager.o
                0x0040ff2c                SYS_FS_MEDIA_MANAGER_GetMediaGeometry

.text.SYS_TIME_Counter64Update%444
                0x0040ff48       0x1c
 .text.SYS_TIME_Counter64Update
                0x0040ff48       0x1c build/sam_e70_xult/debug/_ext/327803284/sys_time.o

.rodata.sysTimePlibAPI%445
                0x0040ff64       0x1c
 .rodata.sysTimePlibAPI
                0x0040ff64       0x1c build/sam_e70_xult/debug/_ext/1728594169/initialization.o
                0x0040ff64                sysTimePlibAPI

.text.vTaskPlaceOnEventList%446
                0x0040ff80       0x1c
 .text.vTaskPlaceOnEventList
                0x0040ff80       0x1c build/sam_e70_xult/debug/_ext/404212886/FreeRTOS_tasks.o
                0x0040ff80                vTaskPlaceOnEventList

.text.pvTaskIncrementMutexHeldCount%447
                0x0040ff9c       0x1c
 .text.pvTaskIncrementMutexHeldCount
                0x0040ff9c       0x1c build/sam_e70_xult/debug/_ext/404212886/FreeRTOS_tasks.o
                0x0040ff9c                pvTaskIncrementMutexHeldCount

.rodata%448     0x0040ffb8       0x1c
 .rodata        0x0040ffb8       0x1c build/sam_e70_xult/debug/_ext/1360937237/app_communication.o

.text.memcpy%449
                0x0040ffd4       0x1c
 .text.memcpy   0x0040ffd4       0x1c c:/program files/microchip/xc32/v3.01/bin/bin/../../lib/gcc/pic32c/8.3.1/../../../../pic32c/lib/thumb/v7e-m+dp/hard\libg_nano.a(lib_a-memcpy-stub.o)
                0x0040ffd4                memcpy

.text._calloc_r%450
                0x0040fff0       0x1c
 .text._calloc_r
                0x0040fff0       0x1c c:/program files/microchip/xc32/v3.01/bin/bin/../../lib/gcc/pic32c/8.3.1/../../../../pic32c/lib/thumb/v7e-m+dp/hard\libg_nano.a(lib_a-nano-callocr.o)
                0x0040fff0                _calloc_r

.text.HSMCI_BusWidthSet%451
                0x0041000c       0x1a
 .text.HSMCI_BusWidthSet
                0x0041000c       0x1a build/sam_e70_xult/debug/_ext/719181653/plib_hsmci.o
                0x0041000c                HSMCI_BusWidthSet

.text.st_clust%452
                0x00410026       0x1a
 .text.st_clust
                0x00410026       0x1a build/sam_e70_xult/debug/_ext/1043829778/ff.o

.text.Radio_Decode%453
                0x00410040       0x1a
 .text.Radio_Decode
                0x00410040       0x1a build/sam_e70_xult/debug/_ext/1360937237/app_communication.o
                0x00410040                Radio_Decode

.text.strchr%454
                0x0041005a       0x1a
 .text.strchr   0x0041005a       0x1a c:/program files/microchip/xc32/v3.01/bin/bin/../../lib/gcc/pic32c/8.3.1/../../../../pic32c/lib/thumb/v7e-m+dp/hard\libg_nano.a(lib_a-strchr.o)
                0x0041005a                strchr

.text.__ascii_wctomb%455
                0x00410074       0x1a
 .text.__ascii_wctomb
                0x00410074       0x1a c:/program files/microchip/xc32/v3.01/bin/bin/../../lib/gcc/pic32c/8.3.1/../../../../pic32c/lib/thumb/v7e-m+dp/hard\libg_nano.a(lib_a-wctomb_r.o)
                0x00410074                __ascii_wctomb

.text.DRV_I2C_ReadTransfer%456
                0x0041008e       0x18
 .text.DRV_I2C_ReadTransfer
                0x0041008e       0x18 build/sam_e70_xult/debug/_ext/957281314/drv_i2c.o
                0x0041008e                DRV_I2C_ReadTransfer

.text.OSAL_MUTEX_Create%457
                0x004100a6       0x18
 .text.OSAL_MUTEX_Create
                0x004100a6       0x18 build/sam_e70_xult/debug/_ext/1613695899/osal_freertos.o
                0x004100a6                OSAL_MUTEX_Create

.text.OSAL_MUTEX_Unlock%458
                0x004100be       0x18
 .text.OSAL_MUTEX_Unlock
                0x004100be       0x18 build/sam_e70_xult/debug/_ext/1613695899/osal_freertos.o
                0x004100be                OSAL_MUTEX_Unlock

.text.HSMCI_BlockCountSet%459
                0x004100d8       0x18
 .text.HSMCI_BlockCountSet
                0x004100d8       0x18 build/sam_e70_xult/debug/_ext/719181653/plib_hsmci.o
                0x004100d8                HSMCI_BlockCountSet

.text.HSMCI_Initialize%460
                0x004100f0       0x18
 .text.HSMCI_Initialize
                0x004100f0       0x18 build/sam_e70_xult/debug/_ext/719181653/plib_hsmci.o
                0x004100f0                HSMCI_Initialize

.text.clst2sect%461
                0x00410108       0x18
 .text.clst2sect
                0x00410108       0x18 build/sam_e70_xult/debug/_ext/1043829778/ff.o

.text.SYS_TIME_DelayIsComplete%462
                0x00410120       0x18
 .text.SYS_TIME_DelayIsComplete
                0x00410120       0x18 build/sam_e70_xult/debug/_ext/327803284/sys_time.o
                0x00410120                SYS_TIME_DelayIsComplete

.rodata.drvI2C0PLibAPI%463
                0x00410138       0x18
 .rodata.drvI2C0PLibAPI
                0x00410138       0x18 build/sam_e70_xult/debug/_ext/1728594169/initialization.o
                0x00410138                drvI2C0PLibAPI

.rodata.drvUsart0remapParity%464
                0x00410150       0x18
 .rodata.drvUsart0remapParity
                0x00410150       0x18 build/sam_e70_xult/debug/_ext/1728594169/initialization.o
                0x00410150                drvUsart0remapParity

.rodata.drvUsart1remapParity%465
                0x00410168       0x18
 .rodata.drvUsart1remapParity
                0x00410168       0x18 build/sam_e70_xult/debug/_ext/1728594169/initialization.o
                0x00410168                drvUsart1remapParity

.rodata.drvUsart2remapParity%466
                0x00410180       0x18
 .rodata.drvUsart2remapParity
                0x00410180       0x18 build/sam_e70_xult/debug/_ext/1728594169/initialization.o
                0x00410180                drvUsart2remapParity

.text._DRV_SDMMC0_Tasks%467
                0x00410198       0x18
 .text._DRV_SDMMC0_Tasks
                0x00410198       0x18 build/sam_e70_xult/debug/_ext/1728594169/tasks.o
                0x00410198                _DRV_SDMMC0_Tasks

.text.vTaskInternalSetTimeOutState%468
                0x004101b0       0x18
 .text.vTaskInternalSetTimeOutState
                0x004101b0       0x18 build/sam_e70_xult/debug/_ext/404212886/FreeRTOS_tasks.o
                0x004101b0                vTaskInternalSetTimeOutState

.text.mast_reset%469
                0x004101c8       0x18
 .text.mast_reset
                0x004101c8       0x18 build/sam_e70_xult/debug/_ext/1360937237/app_mast_control.o
                0x004101c8                mast_reset

.text.rudder_reset%470
                0x004101e0       0x18
 .text.rudder_reset
                0x004101e0       0x18 build/sam_e70_xult/debug/_ext/1360937237/app_rudder_control.o
                0x004101e0                rudder_reset

.text.strtod%471
                0x004101f8       0x18
 .text.strtod   0x004101f8       0x18 c:/program files/microchip/xc32/v3.01/bin/bin/../../lib/gcc/pic32c/8.3.1/../../../../pic32c/lib/thumb/v7e-m+dp/hard\libg_nano.a(lib_a-strtod.o)
                0x004101f8                strtod

.text.HSMCI_SpeedModeSet%472
                0x00410210       0x16
 .text.HSMCI_SpeedModeSet
                0x00410210       0x16 build/sam_e70_xult/debug/_ext/719181653/plib_hsmci.o
                0x00410210                HSMCI_SpeedModeSet

.text.ld_dword%473
                0x00410226       0x16
 .text.ld_dword
                0x00410226       0x16 build/sam_e70_xult/debug/_ext/1043829778/ff.o

.text.vApplicationStackOverflowHook%474
                0x0041023c       0x16
 .text.vApplicationStackOverflowHook
                0x0041023c       0x16 build/sam_e70_xult/debug/_ext/1728594169/freertos_hooks.o
                0x0041023c                vApplicationStackOverflowHook

.text.vApplicationMallocFailedHook%475
                0x00410252       0x16
 .text.vApplicationMallocFailedHook
                0x00410252       0x16 build/sam_e70_xult/debug/_ext/1728594169/freertos_hooks.o
                0x00410252                vApplicationMallocFailedHook

.text.vListInitialise%476
                0x00410268       0x16
 .text.vListInitialise
                0x00410268       0x16 build/sam_e70_xult/debug/_ext/404212886/list.o
                0x00410268                vListInitialise

.text.vListInsertEnd%477
                0x0041027e       0x16
 .text.vListInsertEnd
                0x0041027e       0x16 build/sam_e70_xult/debug/_ext/404212886/list.o
                0x0041027e                vListInsertEnd

.text.prvIsQueueEmpty%478
                0x00410294       0x16
 .text.prvIsQueueEmpty
                0x00410294       0x16 build/sam_e70_xult/debug/_ext/404212886/queue.o

.text.xQueueCreateCountingSemaphore%479
                0x004102aa       0x16
 .text.xQueueCreateCountingSemaphore
                0x004102aa       0x16 build/sam_e70_xult/debug/_ext/404212886/queue.o
                0x004102aa                xQueueCreateCountingSemaphore

.text.DRV_SDMMC_RegisterWithSysFs%480
                0x004102c0       0x14
 .text.DRV_SDMMC_RegisterWithSysFs
                0x004102c0       0x14 build/sam_e70_xult/debug/_ext/1565510230/drv_sdmmc_file_system.o
                0x004102c0                DRV_SDMMC_RegisterWithSysFs

.text.DRV_SDMMC_AsyncRead%481
                0x004102d4       0x14
 .text.DRV_SDMMC_AsyncRead
                0x004102d4       0x14 build/sam_e70_xult/debug/_ext/1565510230/drv_sdmmc.o
                0x004102d4                DRV_SDMMC_AsyncRead

.text.DRV_SDMMC_AsyncWrite%482
                0x004102e8       0x14
 .text.DRV_SDMMC_AsyncWrite
                0x004102e8       0x14 build/sam_e70_xult/debug/_ext/1565510230/drv_sdmmc.o
                0x004102e8                DRV_SDMMC_AsyncWrite

.text.USART1_ErrorGet%483
                0x004102fc       0x14
 .text.USART1_ErrorGet
                0x004102fc       0x14 build/sam_e70_xult/debug/_ext/707186936/plib_usart1.o
                0x004102fc                USART1_ErrorGet

.text.USART0_ErrorGet%484
                0x00410310       0x14
 .text.USART0_ErrorGet
                0x00410310       0x14 build/sam_e70_xult/debug/_ext/707186936/plib_usart0.o
                0x00410310                USART0_ErrorGet

.text.USART2_ErrorGet%485
                0x00410324       0x14
 .text.USART2_ErrorGet
                0x00410324       0x14 build/sam_e70_xult/debug/_ext/707186936/plib_usart2.o
                0x00410324                USART2_ErrorGet

.text.mem_cpy%486
                0x00410338       0x14
 .text.mem_cpy  0x00410338       0x14 build/sam_e70_xult/debug/_ext/1043829778/ff.o

.rodata.badchr.8851%487
                0x0041034c       0x14
 .rodata.badchr.8851
                0x0041034c       0x14 build/sam_e70_xult/debug/_ext/1043829778/ff.o

.rodata.drvUsart0remapDataWidth%488
                0x00410360       0x14
 .rodata.drvUsart0remapDataWidth
                0x00410360       0x14 build/sam_e70_xult/debug/_ext/1728594169/initialization.o
                0x00410360                drvUsart0remapDataWidth

.rodata.drvUsart1remapDataWidth%489
                0x00410374       0x14
 .rodata.drvUsart1remapDataWidth
                0x00410374       0x14 build/sam_e70_xult/debug/_ext/1728594169/initialization.o
                0x00410374                drvUsart1remapDataWidth

.rodata.drvUsart2remapDataWidth%490
                0x00410388       0x14
 .rodata.drvUsart2remapDataWidth
                0x00410388       0x14 build/sam_e70_xult/debug/_ext/1728594169/initialization.o
                0x00410388                drvUsart2remapDataWidth

.text.vPortEnableVFP%491
                0x0041039c       0x14
 .text.vPortEnableVFP
                0x0041039c       0x14 build/sam_e70_xult/debug/_ext/977623654/port.o

.text.vPortExitCritical%492
                0x004103b0       0x14
 .text.vPortExitCritical
                0x004103b0       0x14 build/sam_e70_xult/debug/_ext/977623654/port.o
                0x004103b0                vPortExitCritical

.rodata.fpi.7531%493
                0x004103c4       0x14
 .rodata.fpi.7531
                0x004103c4       0x14 c:/program files/microchip/xc32/v3.01/bin/bin/../../lib/gcc/pic32c/8.3.1/../../../../pic32c/lib/thumb/v7e-m+dp/hard\libg_nano.a(lib_a-strtod.o)

.rodata.fpinan.7567%494
                0x004103d8       0x14
 .rodata.fpinan.7567
                0x004103d8       0x14 c:/program files/microchip/xc32/v3.01/bin/bin/../../lib/gcc/pic32c/8.3.1/../../../../pic32c/lib/thumb/v7e-m+dp/hard\libg_nano.a(lib_a-strtod.o)

.text.strtol%495
                0x004103ec       0x14
 .text.strtol   0x004103ec       0x14 c:/program files/microchip/xc32/v3.01/bin/bin/../../lib/gcc/pic32c/8.3.1/../../../../pic32c/lib/thumb/v7e-m+dp/hard\libg_nano.a(lib_a-strtol.o)
                0x004103ec                strtol

.text.NVIC_INT_Disable%496
                0x00410400       0x12
 .text.NVIC_INT_Disable
                0x00410400       0x12 build/sam_e70_xult/debug/_ext/1639550079/plib_nvic.o
                0x00410400                NVIC_INT_Disable

.text.NVIC_INT_Restore%497
                0x00410412       0x12
 .text.NVIC_INT_Restore
                0x00410412       0x12 build/sam_e70_xult/debug/_ext/1639550079/plib_nvic.o
                0x00410412                NVIC_INT_Restore

.text.__i2b%498
                0x00410424       0x12
 .text.__i2b    0x00410424       0x12 c:/program files/microchip/xc32/v3.01/bin/bin/../../lib/gcc/pic32c/8.3.1/../../../../pic32c/lib/thumb/v7e-m+dp/hard\libg_nano.a(lib_a-mprec.o)
                0x00410424                __i2b

.text.fabs%499  0x00410436       0x12
 .text.fabs     0x00410436       0x12 c:/program files/microchip/xc32/v3.01/bin/bin/../../lib/gcc/pic32c/8.3.1/../../../../pic32c/lib/thumb/v7e-m+dp/hard\libm_nano.a(lib_a-s_fabs.o)
                0x00410436                fabs

.text._DRV_USART_TX_PLIB_CallbackHandler%500
                0x00410448       0x10
 .text._DRV_USART_TX_PLIB_CallbackHandler
                0x00410448       0x10 build/sam_e70_xult/debug/_ext/716655881/drv_usart.o

.text.EFC_Initialize%501
                0x00410458       0x10
 .text.EFC_Initialize
                0x00410458       0x10 build/sam_e70_xult/debug/_ext/1055499099/plib_efc.o
                0x00410458                EFC_Initialize

.text.HSMCI_CommandErrorGet%502
                0x00410468       0x10
 .text.HSMCI_CommandErrorGet
                0x00410468       0x10 build/sam_e70_xult/debug/_ext/719181653/plib_hsmci.o
                0x00410468                HSMCI_CommandErrorGet

.text.HSMCI_DataErrorGet%503
                0x00410478       0x10
 .text.HSMCI_DataErrorGet
                0x00410478       0x10 build/sam_e70_xult/debug/_ext/719181653/plib_hsmci.o
                0x00410478                HSMCI_DataErrorGet

.text.HSMCI_IsCmdLineBusy%504
                0x00410488       0x10
 .text.HSMCI_IsCmdLineBusy
                0x00410488       0x10 build/sam_e70_xult/debug/_ext/719181653/plib_hsmci.o
                0x00410488                HSMCI_IsCmdLineBusy

.text.HSMCI_CallbackRegister%505
                0x00410498       0x10
 .text.HSMCI_CallbackRegister
                0x00410498       0x10 build/sam_e70_xult/debug/_ext/719181653/plib_hsmci.o
                0x00410498                HSMCI_CallbackRegister

.text.PIOA_InterruptHandler%506
                0x004104a8       0x10
 .text.PIOA_InterruptHandler
                0x004104a8       0x10 build/sam_e70_xult/debug/_ext/1055488423/plib_pio.o
                0x004104a8                PIOA_InterruptHandler

.text.PIOB_InterruptHandler%507
                0x004104b8       0x10
 .text.PIOB_InterruptHandler
                0x004104b8       0x10 build/sam_e70_xult/debug/_ext/1055488423/plib_pio.o
                0x004104b8                PIOB_InterruptHandler

.text.PIOD_InterruptHandler%508
                0x004104c8       0x10
 .text.PIOD_InterruptHandler
                0x004104c8       0x10 build/sam_e70_xult/debug/_ext/1055488423/plib_pio.o
                0x004104c8                PIOD_InterruptHandler

.text.TWIHS0_CallbackRegister%509
                0x004104d8       0x10
 .text.TWIHS0_CallbackRegister
                0x004104d8       0x10 build/sam_e70_xult/debug/_ext/1539215101/plib_twihs0_master.o
                0x004104d8                TWIHS0_CallbackRegister

.text.TWIHS0_ErrorGet%510
                0x004104e8       0x10
 .text.TWIHS0_ErrorGet
                0x004104e8       0x10 build/sam_e70_xult/debug/_ext/1539215101/plib_twihs0_master.o
                0x004104e8                TWIHS0_ErrorGet

.text.st_dword%511
                0x004104f8       0x10
 .text.st_dword
                0x004104f8       0x10 build/sam_e70_xult/debug/_ext/1043829778/ff.o

.rodata.LfnOfs%512
                0x00410508       0x10
 .rodata.LfnOfs
                0x00410508       0x10 build/sam_e70_xult/debug/_ext/1043829778/ff.o

.rodata.cst.8888%513
                0x00410518       0x10
 .rodata.cst.8888
                0x00410518       0x10 build/sam_e70_xult/debug/_ext/1043829778/ff.o

.rodata.cst32.8889%514
                0x00410528       0x10
 .rodata.cst32.8889
                0x00410528       0x10 build/sam_e70_xult/debug/_ext/1043829778/ff.o

.rodata.defopt.8890%515
                0x00410538       0x10
 .rodata.defopt.8890
                0x00410538       0x10 build/sam_e70_xult/debug/_ext/1043829778/ff.o

.text.disk_initialize%516
                0x00410548       0x10
 .text.disk_initialize
                0x00410548       0x10 build/sam_e70_xult/debug/_ext/1893760823/diskio.o
                0x00410548                disk_initialize

.rodata.drvI2C0InitData%517
                0x00410558       0x10
 .rodata.drvI2C0InitData
                0x00410558       0x10 build/sam_e70_xult/debug/_ext/1728594169/initialization.o
                0x00410558                drvI2C0InitData

.text._SYS_FS_Tasks%518
                0x00410568       0x10
 .text._SYS_FS_Tasks
                0x00410568       0x10 build/sam_e70_xult/debug/_ext/1728594169/tasks.o
                0x00410568                _SYS_FS_Tasks

.text.vTaskSuspendAll%519
                0x00410578       0x10
 .text.vTaskSuspendAll
                0x00410578       0x10 build/sam_e70_xult/debug/_ext/404212886/FreeRTOS_tasks.o
                0x00410578                vTaskSuspendAll

.text.malloc%520
                0x00410588       0x10
 .text.malloc   0x00410588       0x10 c:/program files/microchip/xc32/v3.01/bin/bin/../../lib/gcc/pic32c/8.3.1/../../../../pic32c/lib/thumb/v7e-m+dp/hard\libg_nano.a(lib_a-malloc.o)
                0x00410588                malloc

.text.memset%521
                0x00410598       0x10
 .text.memset   0x00410598       0x10 c:/program files/microchip/xc32/v3.01/bin/bin/../../lib/gcc/pic32c/8.3.1/../../../../pic32c/lib/thumb/v7e-m+dp/hard\libg_nano.a(lib_a-memset.o)
                0x00410598                memset

.text.strcpy%522
                0x004105a8       0x10
 .text.strcpy   0x004105a8       0x10 c:/program files/microchip/xc32/v3.01/bin/bin/../../lib/gcc/pic32c/8.3.1/../../../../pic32c/lib/thumb/v7e-m+dp/hard\libg_nano.a(lib_a-strcpy.o)
                0x004105a8                strcpy

.text%523       0x004105b8       0x10
 .text          0x004105b8       0x10 c:/program files/microchip/xc32/v3.01/bin/bin/../../lib/gcc/pic32c/8.3.1/../../../../pic32c/lib/thumb/v7e-m+dp/hard\libg_nano.a(lib_a-strlen.o)
                0x004105b8                strlen

.text.nan%524   0x004105c8       0x10
 .text.nan      0x004105c8       0x10 c:/program files/microchip/xc32/v3.01/bin/bin/../../lib/gcc/pic32c/8.3.1/../../../../pic32c/lib/thumb/v7e-m+dp/hard\libg_nano.a(lib_a-s_nan.o)
                0x004105c8                nan

.rodata.init_jk%525
                0x004105d8       0x10
 .rodata.init_jk
                0x004105d8       0x10 c:/program files/microchip/xc32/v3.01/bin/bin/../../lib/gcc/pic32c/8.3.1/../../../../pic32c/lib/thumb/v7e-m+dp/hard\libm_nano.a(lib_a-k_rem_pio2.o)

.text.FATFS_eof%526
                0x004105e8        0xe
 .text.FATFS_eof
                0x004105e8        0xe build/sam_e70_xult/debug/_ext/1305476372/sys_fs_fat_interface.o
                0x004105e8                FATFS_eof

.text.main%527  0x004105f6        0xe
 .text.main     0x004105f6        0xe build/sam_e70_xult/debug/_ext/1360937237/main.o
                0x004105f6                main

.rodata%528     0x00410604        0xd
 .rodata        0x00410604        0xd c:/program files/microchip/xc32/v3.01/bin/bin/../../lib/gcc/pic32c/8.3.1/../../../../pic32c/lib/thumb/v7e-m+dp/hard\libg_nano.a(lib_a-strtod.o)

.text.PWM0_ChannelsStart%529
                0x0040d714        0xc
 .text.PWM0_ChannelsStart
                0x0040d714        0xc build/sam_e70_xult/debug/_ext/1055487991/plib_pwm0.o
                0x0040d714                PWM0_ChannelsStart

.text.TC3_CH0_TimerStart%530
                0x00410614        0xc
 .text.TC3_CH0_TimerStart
                0x00410614        0xc build/sam_e70_xult/debug/_ext/865331892/plib_tc3.o
                0x00410614                TC3_CH0_TimerStart

.text.TC3_CH0_TimerStop%531
                0x00410620        0xc
 .text.TC3_CH0_TimerStop
                0x00410620        0xc build/sam_e70_xult/debug/_ext/865331892/plib_tc3.o
                0x00410620                TC3_CH0_TimerStop

.text.TC3_CH0_TimerPeriodSet%532
                0x0041062c        0xc
 .text.TC3_CH0_TimerPeriodSet
                0x0041062c        0xc build/sam_e70_xult/debug/_ext/865331892/plib_tc3.o
                0x0041062c                TC3_CH0_TimerPeriodSet

.text.TC3_CH0_TimerCompareSet%533
                0x00410638        0xc
 .text.TC3_CH0_TimerCompareSet
                0x00410638        0xc build/sam_e70_xult/debug/_ext/865331892/plib_tc3.o
                0x00410638                TC3_CH0_TimerCompareSet

.text.TC3_CH0_TimerCounterGet%534
                0x00410644        0xc
 .text.TC3_CH0_TimerCounterGet
                0x00410644        0xc build/sam_e70_xult/debug/_ext/865331892/plib_tc3.o
                0x00410644                TC3_CH0_TimerCounterGet

.text.TC3_CH0_TimerCallbackRegister%535
                0x00410650        0xc
 .text.TC3_CH0_TimerCallbackRegister
                0x00410650        0xc build/sam_e70_xult/debug/_ext/865331892/plib_tc3.o
                0x00410650                TC3_CH0_TimerCallbackRegister

.text.USART1_WriteCallbackRegister%536
                0x0041065c        0xc
 .text.USART1_WriteCallbackRegister
                0x0041065c        0xc build/sam_e70_xult/debug/_ext/707186936/plib_usart1.o
                0x0041065c                USART1_WriteCallbackRegister

.text.USART1_ReadCallbackRegister%537
                0x00410668        0xc
 .text.USART1_ReadCallbackRegister
                0x00410668        0xc build/sam_e70_xult/debug/_ext/707186936/plib_usart1.o
                0x00410668                USART1_ReadCallbackRegister

.text.USART1_WriteIsBusy%538
                0x00410674        0xc
 .text.USART1_WriteIsBusy
                0x00410674        0xc build/sam_e70_xult/debug/_ext/707186936/plib_usart1.o
                0x00410674                USART1_WriteIsBusy

.text.USART1_ReadIsBusy%539
                0x00410680        0xc
 .text.USART1_ReadIsBusy
                0x00410680        0xc build/sam_e70_xult/debug/_ext/707186936/plib_usart1.o
                0x00410680                USART1_ReadIsBusy

.text.USART1_WriteCountGet%540
                0x0041068c        0xc
 .text.USART1_WriteCountGet
                0x0041068c        0xc build/sam_e70_xult/debug/_ext/707186936/plib_usart1.o
                0x0041068c                USART1_WriteCountGet

.text.USART1_ReadCountGet%541
                0x00410698        0xc
 .text.USART1_ReadCountGet
                0x00410698        0xc build/sam_e70_xult/debug/_ext/707186936/plib_usart1.o
                0x00410698                USART1_ReadCountGet

.text.USART0_WriteCallbackRegister%542
                0x004106a4        0xc
 .text.USART0_WriteCallbackRegister
                0x004106a4        0xc build/sam_e70_xult/debug/_ext/707186936/plib_usart0.o
                0x004106a4                USART0_WriteCallbackRegister

.text.USART0_ReadCallbackRegister%543
                0x004106b0        0xc
 .text.USART0_ReadCallbackRegister
                0x004106b0        0xc build/sam_e70_xult/debug/_ext/707186936/plib_usart0.o
                0x004106b0                USART0_ReadCallbackRegister

.text.USART0_WriteIsBusy%544
                0x004106bc        0xc
 .text.USART0_WriteIsBusy
                0x004106bc        0xc build/sam_e70_xult/debug/_ext/707186936/plib_usart0.o
                0x004106bc                USART0_WriteIsBusy

.text.USART0_ReadIsBusy%545
                0x004106c8        0xc
 .text.USART0_ReadIsBusy
                0x004106c8        0xc build/sam_e70_xult/debug/_ext/707186936/plib_usart0.o
                0x004106c8                USART0_ReadIsBusy

.text.USART0_WriteCountGet%546
                0x004106d4        0xc
 .text.USART0_WriteCountGet
                0x004106d4        0xc build/sam_e70_xult/debug/_ext/707186936/plib_usart0.o
                0x004106d4                USART0_WriteCountGet

.text.USART0_ReadCountGet%547
                0x004106e0        0xc
 .text.USART0_ReadCountGet
                0x004106e0        0xc build/sam_e70_xult/debug/_ext/707186936/plib_usart0.o
                0x004106e0                USART0_ReadCountGet

.text.USART2_WriteCallbackRegister%548
                0x004106ec        0xc
 .text.USART2_WriteCallbackRegister
                0x004106ec        0xc build/sam_e70_xult/debug/_ext/707186936/plib_usart2.o
                0x004106ec                USART2_WriteCallbackRegister

.text.USART2_ReadCallbackRegister%549
                0x004106f8        0xc
 .text.USART2_ReadCallbackRegister
                0x004106f8        0xc build/sam_e70_xult/debug/_ext/707186936/plib_usart2.o
                0x004106f8                USART2_ReadCallbackRegister

.text.USART2_WriteIsBusy%550
                0x00410704        0xc
 .text.USART2_WriteIsBusy
                0x00410704        0xc build/sam_e70_xult/debug/_ext/707186936/plib_usart2.o
                0x00410704                USART2_WriteIsBusy

.text.USART2_ReadIsBusy%551
                0x00410710        0xc
 .text.USART2_ReadIsBusy
                0x00410710        0xc build/sam_e70_xult/debug/_ext/707186936/plib_usart2.o
                0x00410710                USART2_ReadIsBusy

.text.USART2_WriteCountGet%552
                0x0041071c        0xc
 .text.USART2_WriteCountGet
                0x0041071c        0xc build/sam_e70_xult/debug/_ext/707186936/plib_usart2.o
                0x0041071c                USART2_WriteCountGet

.text.USART2_ReadCountGet%553
                0x00410728        0xc
 .text.USART2_ReadCountGet
                0x00410728        0xc build/sam_e70_xult/debug/_ext/707186936/plib_usart2.o
                0x00410728                USART2_ReadCountGet

.text.mem_set%554
                0x00410734        0xc
 .text.mem_set  0x00410734        0xc build/sam_e70_xult/debug/_ext/1043829778/ff.o

.text.SYS_FS_MEDIA_MANAGER_RegisterTransferHandler%555
                0x00410740        0xc
 .text.SYS_FS_MEDIA_MANAGER_RegisterTransferHandler
                0x00410740        0xc build/sam_e70_xult/debug/_ext/1305476372/sys_fs_media_manager.o
                0x00410740                SYS_FS_MEDIA_MANAGER_RegisterTransferHandler

.text.FATFS_error%556
                0x0041074c        0xc
 .text.FATFS_error
                0x0041074c        0xc build/sam_e70_xult/debug/_ext/1305476372/sys_fs_fat_interface.o
                0x0041074c                FATFS_error

.rodata.drvUsart0remapError%557
                0x00410758        0xc
 .rodata.drvUsart0remapError
                0x00410758        0xc build/sam_e70_xult/debug/_ext/1728594169/initialization.o
                0x00410758                drvUsart0remapError

.rodata.drvUsart0remapStopBits%558
                0x00410764        0xc
 .rodata.drvUsart0remapStopBits
                0x00410764        0xc build/sam_e70_xult/debug/_ext/1728594169/initialization.o
                0x00410764                drvUsart0remapStopBits

.rodata.drvUsart1remapError%559
                0x00410770        0xc
 .rodata.drvUsart1remapError
                0x00410770        0xc build/sam_e70_xult/debug/_ext/1728594169/initialization.o
                0x00410770                drvUsart1remapError

.rodata.drvUsart1remapStopBits%560
                0x0041077c        0xc
 .rodata.drvUsart1remapStopBits
                0x0041077c        0xc build/sam_e70_xult/debug/_ext/1728594169/initialization.o
                0x0041077c                drvUsart1remapStopBits

.rodata.drvUsart2remapError%561
                0x00410788        0xc
 .rodata.drvUsart2remapError
                0x00410788        0xc build/sam_e70_xult/debug/_ext/1728594169/initialization.o
                0x00410788                drvUsart2remapError

.rodata.drvUsart2remapStopBits%562
                0x00410794        0xc
 .rodata.drvUsart2remapStopBits
                0x00410794        0xc build/sam_e70_xult/debug/_ext/1728594169/initialization.o
                0x00410794                drvUsart2remapStopBits

.text.vTaskMissedYield%563
                0x004107a0        0xc
 .text.vTaskMissedYield
                0x004107a0        0xc build/sam_e70_xult/debug/_ext/404212886/FreeRTOS_tasks.o
                0x004107a0                vTaskMissedYield

.text.APP_COMMUNICATION_Initialize%564
                0x004107ac        0xc
 .text.APP_COMMUNICATION_Initialize
                0x004107ac        0xc build/sam_e70_xult/debug/_ext/1360937237/app_communication.o
                0x004107ac                APP_COMMUNICATION_Initialize

.text.APP_COURSE_ALGORITHM_Initialize%565
                0x004107b8        0xc
 .text.APP_COURSE_ALGORITHM_Initialize
                0x004107b8        0xc build/sam_e70_xult/debug/_ext/1360937237/app_course_algorithm.o
                0x004107b8                APP_COURSE_ALGORITHM_Initialize

.text.APP_ANEMOMETER_Initialize%566
                0x004107c4        0xc
 .text.APP_ANEMOMETER_Initialize
                0x004107c4        0xc build/sam_e70_xult/debug/_ext/1360937237/app_anemometer.o
                0x004107c4                APP_ANEMOMETER_Initialize

.text.APP_GPS_Initialize%567
                0x004107d0        0xc
 .text.APP_GPS_Initialize
                0x004107d0        0xc build/sam_e70_xult/debug/_ext/1360937237/app_gps.o
                0x004107d0                APP_GPS_Initialize

.text.APP_IMU_Initialize%568
                0x004107dc        0xc
 .text.APP_IMU_Initialize
                0x004107dc        0xc build/sam_e70_xult/debug/_ext/1360937237/app_imu.o
                0x004107dc                APP_IMU_Initialize

.rodata._C_numeric_locale%569
                0x004107e8        0xc
 .rodata._C_numeric_locale
                0x004107e8        0xc c:/program files/microchip/xc32/v3.01/bin/bin/../../lib/gcc/pic32c/8.3.1/../../../../pic32c/lib/thumb/v7e-m+dp/hard\libg_nano.a(lib_a-lnumeric.o)
                0x004107e8                _C_numeric_locale

.rodata.p05.7453%570
                0x004107f4        0xc
 .rodata.p05.7453
                0x004107f4        0xc c:/program files/microchip/xc32/v3.01/bin/bin/../../lib/gcc/pic32c/8.3.1/../../../../pic32c/lib/thumb/v7e-m+dp/hard\libg_nano.a(lib_a-mprec.o)

.text.__errno%571
                0x00410800        0xc
 .text.__errno  0x00410800        0xc c:/program files/microchip/xc32/v3.01/bin/bin/../../lib/gcc/pic32c/8.3.1/../../../../pic32c/lib/thumb/v7e-m+dp/hard\libc_nano.a(lib_a-errno.o)
                0x00410800                __errno

.rodata%572     0x0041080c        0xb
 .rodata        0x0041080c        0xb c:/program files/microchip/xc32/v3.01/bin/bin/../../lib/gcc/pic32c/8.3.1/../../../../pic32c/lib/thumb/v7e-m+dp/hard\libg_nano.a(lib_a-locale.o)

.text.FATFS_read%573
                0x00410818        0xa
 .text.FATFS_read
                0x00410818        0xa build/sam_e70_xult/debug/_ext/1305476372/sys_fs_fat_interface.o
                0x00410818                FATFS_read

.text.FATFS_lseek%574
                0x00410822        0xa
 .text.FATFS_lseek
                0x00410822        0xa build/sam_e70_xult/debug/_ext/1305476372/sys_fs_fat_interface.o
                0x00410822                FATFS_lseek

.text.FATFS_gets%575
                0x0041082c        0xa
 .text.FATFS_gets
                0x0041082c        0xa build/sam_e70_xult/debug/_ext/1305476372/sys_fs_fat_interface.o
                0x0041082c                FATFS_gets

.text.FATFS_write%576
                0x00410836        0xa
 .text.FATFS_write
                0x00410836        0xa build/sam_e70_xult/debug/_ext/1305476372/sys_fs_fat_interface.o
                0x00410836                FATFS_write

.text.FATFS_truncate%577
                0x00410840        0xa
 .text.FATFS_truncate
                0x00410840        0xa build/sam_e70_xult/debug/_ext/1305476372/sys_fs_fat_interface.o
                0x00410840                FATFS_truncate

.text.FATFS_sync%578
                0x0041084a        0xa
 .text.FATFS_sync
                0x0041084a        0xa build/sam_e70_xult/debug/_ext/1305476372/sys_fs_fat_interface.o
                0x0041084a                FATFS_sync

.text.FATFS_putc%579
                0x00410854        0xa
 .text.FATFS_putc
                0x00410854        0xa build/sam_e70_xult/debug/_ext/1305476372/sys_fs_fat_interface.o
                0x00410854                FATFS_putc

.text.FATFS_puts%580
                0x0041085e        0xa
 .text.FATFS_puts
                0x0041085e        0xa build/sam_e70_xult/debug/_ext/1305476372/sys_fs_fat_interface.o
                0x0041085e                FATFS_puts

.text.FATFS_printf%581
                0x00410868        0xa
 .text.FATFS_printf
                0x00410868        0xa build/sam_e70_xult/debug/_ext/1305476372/sys_fs_fat_interface.o
                0x00410868                FATFS_printf

.text.TC3_CH0_TimerFrequencyGet%582
                0x00410874        0x8
 .text.TC3_CH0_TimerFrequencyGet
                0x00410874        0x8 build/sam_e70_xult/debug/_ext/865331892/plib_tc3.o
                0x00410874                TC3_CH0_TimerFrequencyGet

.text.SYS_FS_Tasks%583
                0x0041087c        0x8
 .text.SYS_FS_Tasks
                0x0041087c        0x8 build/sam_e70_xult/debug/_ext/1305476372/sys_fs.o
                0x0041087c                SYS_FS_Tasks

.rodata.gPartitionTypeOffset%584
                0x00410884        0x8
 .rodata.gPartitionTypeOffset
                0x00410884        0x8 build/sam_e70_xult/debug/_ext/1305476372/sys_fs_media_manager.o
                0x00410884                gPartitionTypeOffset

.text.FATFS_getlabel%585
                0x0041088c        0x8
 .text.FATFS_getlabel
                0x0041088c        0x8 build/sam_e70_xult/debug/_ext/1305476372/sys_fs_fat_interface.o
                0x0041088c                FATFS_getlabel

.text.FATFS_getcwd%586
                0x00410894        0x8
 .text.FATFS_getcwd
                0x00410894        0x8 build/sam_e70_xult/debug/_ext/1305476372/sys_fs_fat_interface.o
                0x00410894                FATFS_getcwd

.text.FATFS_chdir%587
                0x0041089c        0x8
 .text.FATFS_chdir
                0x0041089c        0x8 build/sam_e70_xult/debug/_ext/1305476372/sys_fs_fat_interface.o
                0x0041089c                FATFS_chdir

.text.FATFS_mkdir%588
                0x004108a4        0x8
 .text.FATFS_mkdir
                0x004108a4        0x8 build/sam_e70_xult/debug/_ext/1305476372/sys_fs_fat_interface.o
                0x004108a4                FATFS_mkdir

.text.FATFS_unlink%589
                0x004108ac        0x8
 .text.FATFS_unlink
                0x004108ac        0x8 build/sam_e70_xult/debug/_ext/1305476372/sys_fs_fat_interface.o
                0x004108ac                FATFS_unlink

.text.FATFS_setlabel%590
                0x004108b4        0x8
 .text.FATFS_setlabel
                0x004108b4        0x8 build/sam_e70_xult/debug/_ext/1305476372/sys_fs_fat_interface.o
                0x004108b4                FATFS_setlabel

.text.FATFS_chmod%591
                0x004108bc        0x8
 .text.FATFS_chmod
                0x004108bc        0x8 build/sam_e70_xult/debug/_ext/1305476372/sys_fs_fat_interface.o
                0x004108bc                FATFS_chmod

.text.FATFS_utime%592
                0x004108c4        0x8
 .text.FATFS_utime
                0x004108c4        0x8 build/sam_e70_xult/debug/_ext/1305476372/sys_fs_fat_interface.o
                0x004108c4                FATFS_utime

.text.FATFS_rename%593
                0x004108cc        0x8
 .text.FATFS_rename
                0x004108cc        0x8 build/sam_e70_xult/debug/_ext/1305476372/sys_fs_fat_interface.o
                0x004108cc                FATFS_rename

.text.FATFS_fdisk%594
                0x004108d4        0x8
 .text.FATFS_fdisk
                0x004108d4        0x8 build/sam_e70_xult/debug/_ext/1305476372/sys_fs_fat_interface.o
                0x004108d4                FATFS_fdisk

.text.SYS_INT_Disable%595
                0x004108dc        0x8
 .text.SYS_INT_Disable
                0x004108dc        0x8 build/sam_e70_xult/debug/_ext/766002106/sys_int.o
                0x004108dc                SYS_INT_Disable

.text.SYS_INT_Restore%596
                0x004108e4        0x8
 .text.SYS_INT_Restore
                0x004108e4        0x8 build/sam_e70_xult/debug/_ext/766002106/sys_int.o
                0x004108e4                SYS_INT_Restore

.rodata.sysFSInit%597
                0x004108ec        0x8
 .rodata.sysFSInit
                0x004108ec        0x8 build/sam_e70_xult/debug/_ext/1728594169/initialization.o
                0x004108ec                sysFSInit

.rodata.sysTimeInitData%598
                0x004108f4        0x8
 .rodata.sysTimeInitData
                0x004108f4        0x8 build/sam_e70_xult/debug/_ext/1728594169/initialization.o
                0x004108f4                sysTimeInitData

.text._APP_ANEMOMETER_Tasks%599
                0x004108fc        0x8
 .text._APP_ANEMOMETER_Tasks
                0x004108fc        0x8 build/sam_e70_xult/debug/_ext/1728594169/tasks.o
                0x004108fc                _APP_ANEMOMETER_Tasks

.text._APP_COMMUNICATION_Tasks%600
                0x00410904        0x8
 .text._APP_COMMUNICATION_Tasks
                0x00410904        0x8 build/sam_e70_xult/debug/_ext/1728594169/tasks.o
                0x00410904                _APP_COMMUNICATION_Tasks

.text._APP_MAST_CONTROL_Tasks%601
                0x0041090c        0x8
 .text._APP_MAST_CONTROL_Tasks
                0x0041090c        0x8 build/sam_e70_xult/debug/_ext/1728594169/tasks.o
                0x0041090c                _APP_MAST_CONTROL_Tasks

.text._APP_COURSE_ALGORITHM_Tasks%602
                0x00410914        0x8
 .text._APP_COURSE_ALGORITHM_Tasks
                0x00410914        0x8 build/sam_e70_xult/debug/_ext/1728594169/tasks.o
                0x00410914                _APP_COURSE_ALGORITHM_Tasks

.text._APP_RUDDER_CONTROL_Tasks%603
                0x0041091c        0x8
 .text._APP_RUDDER_CONTROL_Tasks
                0x0041091c        0x8 build/sam_e70_xult/debug/_ext/1728594169/tasks.o
                0x0041091c                _APP_RUDDER_CONTROL_Tasks

.text._APP_GPS_Tasks%604
                0x00410924        0x8
 .text._APP_GPS_Tasks
                0x00410924        0x8 build/sam_e70_xult/debug/_ext/1728594169/tasks.o
                0x00410924                _APP_GPS_Tasks

.text._APP_IMU_Tasks%605
                0x0041092c        0x8
 .text._APP_IMU_Tasks
                0x0041092c        0x8 build/sam_e70_xult/debug/_ext/1728594169/tasks.o
                0x0041092c                _APP_IMU_Tasks

.rodata%606     0x00410934       0x18
 .rodata        0x00410934        0x8 build/sam_e70_xult/debug/_ext/404212886/FreeRTOS_tasks.o
 .rodata        0x0041093c        0x8 build/sam_e70_xult/debug/_ext/1360937237/app_anemometer.o
 .rodata        0x00410944        0x8 build/sam_e70_xult/debug/_ext/1360937237/app_gps.o

.text.atoi%609  0x0041094c        0x8
 .text.atoi     0x0041094c        0x8 c:/program files/microchip/xc32/v3.01/bin/bin/../../lib/gcc/pic32c/8.3.1/../../../../pic32c/lib/thumb/v7e-m+dp/hard\libg_nano.a(lib_a-atoi.o)
                0x0041094c                atoi

.text._DRV_SDMMC_TimerCallback%610
                0x00410954        0x6
 .text._DRV_SDMMC_TimerCallback
                0x00410954        0x6 build/sam_e70_xult/debug/_ext/1565510230/drv_sdmmc.o

.text.vListInitialiseItem%611
                0x0041095a        0x6
 .text.vListInitialiseItem
                0x0041095a        0x6 build/sam_e70_xult/debug/_ext/404212886/list.o
                0x0041095a                vListInitialiseItem

.text.atof%612  0x00410960        0x6
 .text.atof     0x00410960        0x6 c:/program files/microchip/xc32/v3.01/bin/bin/../../lib/gcc/pic32c/8.3.1/../../../../pic32c/lib/thumb/v7e-m+dp/hard\libg_nano.a(lib_a-atof.o)
                0x00410960                atof

.text.__ieee754_sqrt%613
                0x00410966        0x6
 .text.__ieee754_sqrt
                0x00410966        0x6 c:/program files/microchip/xc32/v3.01/bin/bin/../../lib/gcc/pic32c/8.3.1/../../../../pic32c/lib/thumb/v7e-m+dp/hard\libm_nano.a(lib_a-e_sqrt.o)
                0x00410966                __ieee754_sqrt

.text.PIO_PortInterruptEnable%614
                0x00401b54        0x4
 .text.PIO_PortInterruptEnable
                0x00401b54        0x4 build/sam_e70_xult/debug/_ext/1055488423/plib_pio.o
                0x00401b54                PIO_PortInterruptEnable

.text.disk_status%615
                0x00405f94        0x4
 .text.disk_status
                0x00405f94        0x4 build/sam_e70_xult/debug/_ext/1893760823/diskio.o
                0x00405f94                disk_status

.text.FATFS_tell%616
                0x00406994        0x4
 .text.FATFS_tell
                0x00406994        0x4 build/sam_e70_xult/debug/_ext/1305476372/sys_fs_fat_interface.o
                0x00406994                FATFS_tell

.text.FATFS_size%617
                0x0040705c        0x4
 .text.FATFS_size
                0x0040705c        0x4 build/sam_e70_xult/debug/_ext/1305476372/sys_fs_fat_interface.o
                0x0040705c                FATFS_size

.text.Dummy_Handler%618
                0x0040a51c        0x4
 .text.Dummy_Handler
                0x0040a51c        0x4 build/sam_e70_xult/debug/_ext/1728594169/interrupts.o
                0x0040a51c                DACC_Handler
                0x0040a51c                TC0_CH2_Handler
                0x0040a51c                TC3_CH1_Handler
                0x0040a51c                UART3_Handler
                0x0040a51c                UART2_Handler
                0x0040a51c                TRNG_Handler
                0x0040a51c                AFEC1_Handler
                0x0040a51c                TC0_CH1_Handler
                0x0040a51c                QSPI_Handler
                0x0040a51c                ISI_Handler
                0x0040a51c                MCAN0_INT0_Handler
                0x0040a51c                RSWDT_Handler
                0x0040a51c                TC1_CH2_Handler
                0x0040a51c                RTT_Handler
                0x0040a51c                USBHS_Handler
                0x0040a51c                IXC_Handler
                0x0040a51c                CCF_Handler
                0x0040a51c                RTC_Handler
                0x0040a51c                WDT_Handler
                0x0040a51c                MCAN1_INT1_Handler
                0x0040a51c                UART1_Handler
                0x0040a51c                Dummy_Handler
                0x0040a51c                TWIHS1_Handler
                0x0040a51c                TC3_CH2_Handler
                0x0040a51c                UART4_Handler
                0x0040a51c                TC2_CH0_Handler
                0x0040a51c                PWM1_Handler
                0x0040a51c                AFEC0_Handler
                0x0040a51c                CCW_Handler
                0x0040a51c                SSC_Handler
                0x0040a51c                TC1_CH0_Handler
                0x0040a51c                ACC_Handler
                0x0040a51c                PMC_Handler
                0x0040a51c                GMAC_Handler
                0x0040a51c                TC2_CH2_Handler
                0x0040a51c                MCAN0_INT1_Handler
                0x0040a51c                GMAC_Q5_Handler
                0x0040a51c                SUPC_Handler
                0x0040a51c                TC2_CH1_Handler
                0x0040a51c                MCAN1_INT0_Handler
                0x0040a51c                EFC_Handler
                0x0040a51c                GMAC_Q1_Handler
                0x0040a51c                SDRAMC_Handler
                0x0040a51c                GMAC_Q2_Handler
                0x0040a51c                PIOE_Handler
                0x0040a51c                SPI1_Handler
                0x0040a51c                TC1_CH1_Handler
                0x0040a51c                GMAC_Q3_Handler
                0x0040a51c                TWIHS2_Handler
                0x0040a51c                I2SC0_Handler
                0x0040a51c                UART0_Handler
                0x0040a51c                I2SC1_Handler
                0x0040a51c                TC0_CH0_Handler
                0x0040a51c                PIOC_Handler
                0x0040a51c                GMAC_Q4_Handler
                0x0040a51c                FPU_Handler
                0x0040a51c                RSTC_Handler
                0x0040a51c                ICM_Handler
                0x0040a51c                AES_Handler
                0x0040a51c                SPI0_Handler

.text.NonMaskableInt_Handler%619
                0x0040a7c4        0x4
 .text.NonMaskableInt_Handler
                0x0040a7c4        0x4 build/sam_e70_xult/debug/_ext/1728594169/exceptions.o
                0x0040a7c4                NonMaskableInt_Handler

.text.HardFault_Handler%620
                0x0040b2bc        0x4
 .text.HardFault_Handler
                0x0040b2bc        0x4 build/sam_e70_xult/debug/_ext/1728594169/exceptions.o
                0x0040b2bc                HardFault_Handler

.text.DebugMonitor_Handler%621
                0x0040c36c        0x4
 .text.DebugMonitor_Handler
                0x0040c36c        0x4 build/sam_e70_xult/debug/_ext/1728594169/exceptions.o
                0x0040c36c                DebugMonitor_Handler

.text.MemoryManagement_Handler%622
                0x0040e3a4        0x4
 .text.MemoryManagement_Handler
                0x0040e3a4        0x4 build/sam_e70_xult/debug/_ext/1728594169/exceptions.o
                0x0040e3a4                MemoryManagement_Handler

.text.BusFault_Handler%623
                0x0040eb8c        0x4
 .text.BusFault_Handler
                0x0040eb8c        0x4 build/sam_e70_xult/debug/_ext/1728594169/exceptions.o
                0x0040eb8c                BusFault_Handler

.text.UsageFault_Handler%624
                0x0040efc4        0x4
 .text.UsageFault_Handler
                0x0040efc4        0x4 build/sam_e70_xult/debug/_ext/1728594169/exceptions.o
                0x0040efc4                UsageFault_Handler

.text%625       0x0040f88c        0x4
 .text          0x0040f88c        0x4 c:/program files/microchip/xc32/v3.01/bin/bin/../../lib/gcc/pic32c/8.3.1/thumb/v7e-m+dp/hard\libgcc.a(_dvmd_tls.o)
                0x0040f88c                __aeabi_idiv0
                0x0040f88c                __aeabi_ldiv0

.text.itoa%626  0x0040fdc4        0x4
 .text.itoa     0x0040fdc4        0x4 c:/program files/microchip/xc32/v3.01/bin/bin/../../lib/gcc/pic32c/8.3.1/../../../../pic32c/lib/thumb/v7e-m+dp/hard\libg_nano.a(lib_a-itoa.o)
                0x0040fdc4                itoa

.text.atan2%627
                0x0041096c        0x4
 .text.atan2    0x0041096c        0x4 c:/program files/microchip/xc32/v3.01/bin/bin/../../lib/gcc/pic32c/8.3.1/../../../../pic32c/lib/thumb/v7e-m+dp/hard\libm_nano.a(lib_a-w_atan2.o)
                0x0041096c                atan2

.rodata%628     0x0040f9c5        0x3
 .rodata        0x0040f9c5        0x3 c:/program files/microchip/xc32/v3.01/bin/bin/../../lib/gcc/pic32c/8.3.1/../../../../pic32c/lib/thumb/v7e-m+dp/hard\libg_nano.a(lib_a-lnumeric.o)

.text.Dummy_App_Func%629
                0x00406d2a        0x2
 .text.Dummy_App_Func
                0x00406d2a        0x2 build/sam_e70_xult/debug/_ext/1728594169/startup_xc32.o
                0x00406d2a                _on_reset
                0x00406d2a                _on_bootstrap
                0x00406d2a                __xc32_on_reset
                0x00406d2a                Dummy_App_Func
                0x00406d2a                __xc32_on_bootstrap

.text.vPortFree%630
                0x0040738a        0x2
 .text.vPortFree
                0x0040738a        0x2 build/sam_e70_xult/debug/_ext/1665200909/heap_1.o
                0x0040738a                vPortFree

.text.__malloc_lock%631
                0x004090ca        0x2
 .text.__malloc_lock
                0x004090ca        0x2 c:/program files/microchip/xc32/v3.01/bin/bin/../../lib/gcc/pic32c/8.3.1/../../../../pic32c/lib/thumb/v7e-m+dp/hard\libg_nano.a(lib_a-mlock.o)
                0x004090ca                __malloc_lock

.text.__malloc_unlock%632
                0x0040953a        0x2
 .text.__malloc_unlock
                0x0040953a        0x2 c:/program files/microchip/xc32/v3.01/bin/bin/../../lib/gcc/pic32c/8.3.1/../../../../pic32c/lib/thumb/v7e-m+dp/hard\libg_nano.a(lib_a-mlock.o)
                0x0040953a                __malloc_unlock
