Archive member included to satisfy reference by file (symbol)

c:/program files/microchip/xc32/v2.50/bin/bin/../../lib/gcc/pic32c/6.2.1/../../../../pic32c/lib/v7e-m/fpv5/hard\libpic32c.a(data_init.o)
                              build/sam_e70_xult/debug/_ext/1728594169/startup_xc32.o (__pic32c_data_initialization)
c:/program files/microchip/xc32/v2.50/bin/bin/../../lib/gcc/pic32c/6.2.1/v7e-m/fpv5/hard\libgcc.a(_aeabi_uldivmod.o)
                              build/sam_e70_xult/debug/_ext/327803284/sys_time.o (__aeabi_uldivmod)
c:/program files/microchip/xc32/v2.50/bin/bin/../../lib/gcc/pic32c/6.2.1/v7e-m/fpv5/hard\libgcc.a(_udivmoddi4.o)
                              c:/program files/microchip/xc32/v2.50/bin/bin/../../lib/gcc/pic32c/6.2.1/v7e-m/fpv5/hard\libgcc.a(_aeabi_uldivmod.o) (__udivmoddi4)
c:/program files/microchip/xc32/v2.50/bin/bin/../../lib/gcc/pic32c/6.2.1/v7e-m/fpv5/hard\libgcc.a(_dvmd_tls.o)
                              c:/program files/microchip/xc32/v2.50/bin/bin/../../lib/gcc/pic32c/6.2.1/v7e-m/fpv5/hard\libgcc.a(_aeabi_uldivmod.o) (__aeabi_ldiv0)
c:/program files/microchip/xc32/v2.50/bin/bin/../../lib/gcc/pic32c/6.2.1/../../../../pic32c/lib/v7e-m/fpv5/hard\libg_nano.a(lib_a-atof.o)
                              build/sam_e70_xult/debug/_ext/1360937237/app_gps.o (atof)
c:/program files/microchip/xc32/v2.50/bin/bin/../../lib/gcc/pic32c/6.2.1/../../../../pic32c/lib/v7e-m/fpv5/hard\libg_nano.a(lib_a-atoi.o)
                              build/sam_e70_xult/debug/_ext/1360937237/app_gps.o (atoi)
c:/program files/microchip/xc32/v2.50/bin/bin/../../lib/gcc/pic32c/6.2.1/../../../../pic32c/lib/v7e-m/fpv5/hard\libg_nano.a(lib_a-init.o)
                              build/sam_e70_xult/debug/_ext/1728594169/startup_xc32.o (__libc_init_array)
c:/program files/microchip/xc32/v2.50/bin/bin/../../lib/gcc/pic32c/6.2.1/../../../../pic32c/lib/v7e-m/fpv5/hard\libg_nano.a(lib_a-itoa.o)
                              build/sam_e70_xult/debug/_ext/1360937237/app_rudder_control.o (itoa)
c:/program files/microchip/xc32/v2.50/bin/bin/../../lib/gcc/pic32c/6.2.1/../../../../pic32c/lib/v7e-m/fpv5/hard\libg_nano.a(lib_a-locale.o)
                              build/sam_e70_xult/debug/_ext/1360937237/app_anemometer.o (__locale_ctype_ptr)
c:/program files/microchip/xc32/v2.50/bin/bin/../../lib/gcc/pic32c/6.2.1/../../../../pic32c/lib/v7e-m/fpv5/hard\libg_nano.a(lib_a-malloc.o)
                              build/sam_e70_xult/debug/_ext/1360937237/app_gps.o (malloc)
c:/program files/microchip/xc32/v2.50/bin/bin/../../lib/gcc/pic32c/6.2.1/../../../../pic32c/lib/v7e-m/fpv5/hard\libg_nano.a(lib_a-mbtowc_r.o)
                              c:/program files/microchip/xc32/v2.50/bin/bin/../../lib/gcc/pic32c/6.2.1/../../../../pic32c/lib/v7e-m/fpv5/hard\libg_nano.a(lib_a-locale.o) (__ascii_mbtowc)
c:/program files/microchip/xc32/v2.50/bin/bin/../../lib/gcc/pic32c/6.2.1/../../../../pic32c/lib/v7e-m/fpv5/hard\libg_nano.a(lib_a-memcpy-stub.o)
                              build/sam_e70_xult/debug/_ext/1055499099/plib_efc.o (memcpy)
c:/program files/microchip/xc32/v2.50/bin/bin/../../lib/gcc/pic32c/6.2.1/../../../../pic32c/lib/v7e-m/fpv5/hard\libg_nano.a(lib_a-memset.o)
                              build/sam_e70_xult/debug/_ext/1565510230/drv_sdmmc.o (memset)
c:/program files/microchip/xc32/v2.50/bin/bin/../../lib/gcc/pic32c/6.2.1/../../../../pic32c/lib/v7e-m/fpv5/hard\libg_nano.a(lib_a-nano-freer.o)
                              c:/program files/microchip/xc32/v2.50/bin/bin/../../lib/gcc/pic32c/6.2.1/../../../../pic32c/lib/v7e-m/fpv5/hard\libg_nano.a(lib_a-malloc.o) (_free_r)
c:/program files/microchip/xc32/v2.50/bin/bin/../../lib/gcc/pic32c/6.2.1/../../../../pic32c/lib/v7e-m/fpv5/hard\libg_nano.a(lib_a-nano-mallocr.o)
                              c:/program files/microchip/xc32/v2.50/bin/bin/../../lib/gcc/pic32c/6.2.1/../../../../pic32c/lib/v7e-m/fpv5/hard\libg_nano.a(lib_a-malloc.o) (_malloc_r)
c:/program files/microchip/xc32/v2.50/bin/bin/../../lib/gcc/pic32c/6.2.1/../../../../pic32c/lib/v7e-m/fpv5/hard\libg_nano.a(lib_a-sbrkr.o)
                              c:/program files/microchip/xc32/v2.50/bin/bin/../../lib/gcc/pic32c/6.2.1/../../../../pic32c/lib/v7e-m/fpv5/hard\libg_nano.a(lib_a-nano-mallocr.o) (_sbrk_r)
c:/program files/microchip/xc32/v2.50/bin/bin/../../lib/gcc/pic32c/6.2.1/../../../../pic32c/lib/v7e-m/fpv5/hard\libg_nano.a(lib_a-strchr.o)
                              build/sam_e70_xult/debug/_ext/1360937237/app_gps.o (strchr)
c:/program files/microchip/xc32/v2.50/bin/bin/../../lib/gcc/pic32c/6.2.1/../../../../pic32c/lib/v7e-m/fpv5/hard\libg_nano.a(lib_a-strcmp.o)
                              build/sam_e70_xult/debug/_ext/1305476372/sys_fs_media_manager.o (strcmp)
c:/program files/microchip/xc32/v2.50/bin/bin/../../lib/gcc/pic32c/6.2.1/../../../../pic32c/lib/v7e-m/fpv5/hard\libg_nano.a(lib_a-strcpy.o)
                              build/sam_e70_xult/debug/_ext/1305476372/sys_fs.o (strcpy)
c:/program files/microchip/xc32/v2.50/bin/bin/../../lib/gcc/pic32c/6.2.1/../../../../pic32c/lib/v7e-m/fpv5/hard\libg_nano.a(lib_a-strlen.o)
                              build/sam_e70_xult/debug/_ext/1305476372/sys_fs.o (strlen)
c:/program files/microchip/xc32/v2.50/bin/bin/../../lib/gcc/pic32c/6.2.1/../../../../pic32c/lib/v7e-m/fpv5/hard\libg_nano.a(lib_a-strncmp.o)
                              build/sam_e70_xult/debug/_ext/1305476372/sys_fs.o (strncmp)
c:/program files/microchip/xc32/v2.50/bin/bin/../../lib/gcc/pic32c/6.2.1/../../../../pic32c/lib/v7e-m/fpv5/hard\libg_nano.a(lib_a-strncpy.o)
                              build/sam_e70_xult/debug/_ext/1305476372/sys_fs.o (strncpy)
c:/program files/microchip/xc32/v2.50/bin/bin/../../lib/gcc/pic32c/6.2.1/../../../../pic32c/lib/v7e-m/fpv5/hard\libg_nano.a(lib_a-strtod.o)
                              build/sam_e70_xult/debug/_ext/1360937237/app_anemometer.o (strtod)
c:/program files/microchip/xc32/v2.50/bin/bin/../../lib/gcc/pic32c/6.2.1/../../../../pic32c/lib/v7e-m/fpv5/hard\libg_nano.a(lib_a-strtol.o)
                              c:/program files/microchip/xc32/v2.50/bin/bin/../../lib/gcc/pic32c/6.2.1/../../../../pic32c/lib/v7e-m/fpv5/hard\libg_nano.a(lib_a-atoi.o) (_strtol_r)
c:/program files/microchip/xc32/v2.50/bin/bin/../../lib/gcc/pic32c/6.2.1/../../../../pic32c/lib/v7e-m/fpv5/hard\libg_nano.a(lib_a-utoa.o)
                              c:/program files/microchip/xc32/v2.50/bin/bin/../../lib/gcc/pic32c/6.2.1/../../../../pic32c/lib/v7e-m/fpv5/hard\libg_nano.a(lib_a-itoa.o) (__utoa)
c:/program files/microchip/xc32/v2.50/bin/bin/../../lib/gcc/pic32c/6.2.1/../../../../pic32c/lib/v7e-m/fpv5/hard\libg_nano.a(lib_a-wctomb_r.o)
                              c:/program files/microchip/xc32/v2.50/bin/bin/../../lib/gcc/pic32c/6.2.1/../../../../pic32c/lib/v7e-m/fpv5/hard\libg_nano.a(lib_a-locale.o) (__ascii_wctomb)
c:/program files/microchip/xc32/v2.50/bin/bin/../../lib/gcc/pic32c/6.2.1/../../../../pic32c/lib/v7e-m/fpv5/hard\libg_nano.a(lib_a-ctype_.o)
                              c:/program files/microchip/xc32/v2.50/bin/bin/../../lib/gcc/pic32c/6.2.1/../../../../pic32c/lib/v7e-m/fpv5/hard\libg_nano.a(lib_a-locale.o) (_ctype_)
c:/program files/microchip/xc32/v2.50/bin/bin/../../lib/gcc/pic32c/6.2.1/../../../../pic32c/lib/v7e-m/fpv5/hard\libg_nano.a(lib_a-gdtoa-gethex.o)
                              c:/program files/microchip/xc32/v2.50/bin/bin/../../lib/gcc/pic32c/6.2.1/../../../../pic32c/lib/v7e-m/fpv5/hard\libg_nano.a(lib_a-strtod.o) (__gethex)
c:/program files/microchip/xc32/v2.50/bin/bin/../../lib/gcc/pic32c/6.2.1/../../../../pic32c/lib/v7e-m/fpv5/hard\libg_nano.a(lib_a-gdtoa-hexnan.o)
                              c:/program files/microchip/xc32/v2.50/bin/bin/../../lib/gcc/pic32c/6.2.1/../../../../pic32c/lib/v7e-m/fpv5/hard\libg_nano.a(lib_a-strtod.o) (__match)
c:/program files/microchip/xc32/v2.50/bin/bin/../../lib/gcc/pic32c/6.2.1/../../../../pic32c/lib/v7e-m/fpv5/hard\libg_nano.a(lib_a-impure.o)
                              c:/program files/microchip/xc32/v2.50/bin/bin/../../lib/gcc/pic32c/6.2.1/../../../../pic32c/lib/v7e-m/fpv5/hard\libg_nano.a(lib_a-locale.o) (_impure_ptr)
c:/program files/microchip/xc32/v2.50/bin/bin/../../lib/gcc/pic32c/6.2.1/../../../../pic32c/lib/v7e-m/fpv5/hard\libg_nano.a(lib_a-localeconv.o)
                              c:/program files/microchip/xc32/v2.50/bin/bin/../../lib/gcc/pic32c/6.2.1/../../../../pic32c/lib/v7e-m/fpv5/hard\libg_nano.a(lib_a-strtod.o) (__localeconv_l)
c:/program files/microchip/xc32/v2.50/bin/bin/../../lib/gcc/pic32c/6.2.1/../../../../pic32c/lib/v7e-m/fpv5/hard\libg_nano.a(lib_a-mlock.o)
                              c:/program files/microchip/xc32/v2.50/bin/bin/../../lib/gcc/pic32c/6.2.1/../../../../pic32c/lib/v7e-m/fpv5/hard\libg_nano.a(lib_a-nano-freer.o) (__malloc_lock)
c:/program files/microchip/xc32/v2.50/bin/bin/../../lib/gcc/pic32c/6.2.1/../../../../pic32c/lib/v7e-m/fpv5/hard\libg_nano.a(lib_a-mprec.o)
                              c:/program files/microchip/xc32/v2.50/bin/bin/../../lib/gcc/pic32c/6.2.1/../../../../pic32c/lib/v7e-m/fpv5/hard\libg_nano.a(lib_a-strtod.o) (_Balloc)
c:/program files/microchip/xc32/v2.50/bin/bin/../../lib/gcc/pic32c/6.2.1/../../../../pic32c/lib/v7e-m/fpv5/hard\libg_nano.a(lib_a-nano-callocr.o)
                              c:/program files/microchip/xc32/v2.50/bin/bin/../../lib/gcc/pic32c/6.2.1/../../../../pic32c/lib/v7e-m/fpv5/hard\libg_nano.a(lib_a-mprec.o) (_calloc_r)
c:/program files/microchip/xc32/v2.50/bin/bin/../../lib/gcc/pic32c/6.2.1/../../../../pic32c/lib/v7e-m/fpv5/hard\libg_nano.a(lib_a-reent.o)
                              c:/program files/microchip/xc32/v2.50/bin/bin/../../lib/gcc/pic32c/6.2.1/../../../../pic32c/lib/v7e-m/fpv5/hard\libg_nano.a(lib_a-sbrkr.o) (errno)
c:/program files/microchip/xc32/v2.50/bin/bin/../../lib/gcc/pic32c/6.2.1/../../../../pic32c/lib/v7e-m/fpv5/hard\libg_nano.a(lib_a-sf_nan.o)
                              c:/program files/microchip/xc32/v2.50/bin/bin/../../lib/gcc/pic32c/6.2.1/../../../../pic32c/lib/v7e-m/fpv5/hard\libg_nano.a(lib_a-strtod.o) (nanf)
c:/program files/microchip/xc32/v2.50/bin/bin/../../lib/gcc/pic32c/6.2.1/../../../../pic32c/lib/v7e-m/fpv5/hard\libm_nano.a(lib_a-s_cos.o)
                              build/sam_e70_xult/debug/_ext/1360937237/app_course_algorithm.o (cos)
c:/program files/microchip/xc32/v2.50/bin/bin/../../lib/gcc/pic32c/6.2.1/../../../../pic32c/lib/v7e-m/fpv5/hard\libm_nano.a(lib_a-s_sin.o)
                              build/sam_e70_xult/debug/_ext/1360937237/app_course_algorithm.o (sin)
c:/program files/microchip/xc32/v2.50/bin/bin/../../lib/gcc/pic32c/6.2.1/../../../../pic32c/lib/v7e-m/fpv5/hard\libm_nano.a(lib_a-w_atan2.o)
                              build/sam_e70_xult/debug/_ext/1360937237/app_course_algorithm.o (atan2)
c:/program files/microchip/xc32/v2.50/bin/bin/../../lib/gcc/pic32c/6.2.1/../../../../pic32c/lib/v7e-m/fpv5/hard\libm_nano.a(lib_a-w_sqrt.o)
                              build/sam_e70_xult/debug/_ext/1360937237/app_course_algorithm.o (sqrt)
c:/program files/microchip/xc32/v2.50/bin/bin/../../lib/gcc/pic32c/6.2.1/../../../../pic32c/lib/v7e-m/fpv5/hard\libm_nano.a(lib_a-e_atan2.o)
                              c:/program files/microchip/xc32/v2.50/bin/bin/../../lib/gcc/pic32c/6.2.1/../../../../pic32c/lib/v7e-m/fpv5/hard\libm_nano.a(lib_a-w_atan2.o) (__ieee754_atan2)
c:/program files/microchip/xc32/v2.50/bin/bin/../../lib/gcc/pic32c/6.2.1/../../../../pic32c/lib/v7e-m/fpv5/hard\libm_nano.a(lib_a-e_rem_pio2.o)
                              c:/program files/microchip/xc32/v2.50/bin/bin/../../lib/gcc/pic32c/6.2.1/../../../../pic32c/lib/v7e-m/fpv5/hard\libm_nano.a(lib_a-s_cos.o) (__ieee754_rem_pio2)
c:/program files/microchip/xc32/v2.50/bin/bin/../../lib/gcc/pic32c/6.2.1/../../../../pic32c/lib/v7e-m/fpv5/hard\libm_nano.a(lib_a-e_sqrt.o)
                              c:/program files/microchip/xc32/v2.50/bin/bin/../../lib/gcc/pic32c/6.2.1/../../../../pic32c/lib/v7e-m/fpv5/hard\libm_nano.a(lib_a-w_sqrt.o) (__ieee754_sqrt)
c:/program files/microchip/xc32/v2.50/bin/bin/../../lib/gcc/pic32c/6.2.1/../../../../pic32c/lib/v7e-m/fpv5/hard\libm_nano.a(lib_a-k_cos.o)
                              c:/program files/microchip/xc32/v2.50/bin/bin/../../lib/gcc/pic32c/6.2.1/../../../../pic32c/lib/v7e-m/fpv5/hard\libm_nano.a(lib_a-s_cos.o) (__kernel_cos)
c:/program files/microchip/xc32/v2.50/bin/bin/../../lib/gcc/pic32c/6.2.1/../../../../pic32c/lib/v7e-m/fpv5/hard\libm_nano.a(lib_a-k_rem_pio2.o)
                              c:/program files/microchip/xc32/v2.50/bin/bin/../../lib/gcc/pic32c/6.2.1/../../../../pic32c/lib/v7e-m/fpv5/hard\libm_nano.a(lib_a-e_rem_pio2.o) (__kernel_rem_pio2)
c:/program files/microchip/xc32/v2.50/bin/bin/../../lib/gcc/pic32c/6.2.1/../../../../pic32c/lib/v7e-m/fpv5/hard\libm_nano.a(lib_a-k_sin.o)
                              c:/program files/microchip/xc32/v2.50/bin/bin/../../lib/gcc/pic32c/6.2.1/../../../../pic32c/lib/v7e-m/fpv5/hard\libm_nano.a(lib_a-s_cos.o) (__kernel_sin)
c:/program files/microchip/xc32/v2.50/bin/bin/../../lib/gcc/pic32c/6.2.1/../../../../pic32c/lib/v7e-m/fpv5/hard\libm_nano.a(lib_a-s_atan.o)
                              c:/program files/microchip/xc32/v2.50/bin/bin/../../lib/gcc/pic32c/6.2.1/../../../../pic32c/lib/v7e-m/fpv5/hard\libm_nano.a(lib_a-e_atan2.o) (atan)
c:/program files/microchip/xc32/v2.50/bin/bin/../../lib/gcc/pic32c/6.2.1/../../../../pic32c/lib/v7e-m/fpv5/hard\libm_nano.a(lib_a-s_fabs.o)
                              c:/program files/microchip/xc32/v2.50/bin/bin/../../lib/gcc/pic32c/6.2.1/../../../../pic32c/lib/v7e-m/fpv5/hard\libm_nano.a(lib_a-e_atan2.o) (fabs)
c:/program files/microchip/xc32/v2.50/bin/bin/../../lib/gcc/pic32c/6.2.1/../../../../pic32c/lib/v7e-m/fpv5/hard\libm_nano.a(lib_a-s_floor.o)
                              c:/program files/microchip/xc32/v2.50/bin/bin/../../lib/gcc/pic32c/6.2.1/../../../../pic32c/lib/v7e-m/fpv5/hard\libm_nano.a(lib_a-k_rem_pio2.o) (floor)
c:/program files/microchip/xc32/v2.50/bin/bin/../../lib/gcc/pic32c/6.2.1/../../../../pic32c/lib/v7e-m/fpv5/hard\libm_nano.a(lib_a-s_lib_ver.o)
                              c:/program files/microchip/xc32/v2.50/bin/bin/../../lib/gcc/pic32c/6.2.1/../../../../pic32c/lib/v7e-m/fpv5/hard\libm_nano.a(lib_a-w_sqrt.o) (__fdlib_version)
c:/program files/microchip/xc32/v2.50/bin/bin/../../lib/gcc/pic32c/6.2.1/../../../../pic32c/lib/v7e-m/fpv5/hard\libm_nano.a(lib_a-s_matherr.o)
                              c:/program files/microchip/xc32/v2.50/bin/bin/../../lib/gcc/pic32c/6.2.1/../../../../pic32c/lib/v7e-m/fpv5/hard\libm_nano.a(lib_a-w_sqrt.o) (matherr)
c:/program files/microchip/xc32/v2.50/bin/bin/../../lib/gcc/pic32c/6.2.1/../../../../pic32c/lib/v7e-m/fpv5/hard\libm_nano.a(lib_a-s_scalbn.o)
                              c:/program files/microchip/xc32/v2.50/bin/bin/../../lib/gcc/pic32c/6.2.1/../../../../pic32c/lib/v7e-m/fpv5/hard\libm_nano.a(lib_a-k_rem_pio2.o) (scalbn)
c:/program files/microchip/xc32/v2.50/bin/bin/../../lib/gcc/pic32c/6.2.1/../../../../pic32c/lib/v7e-m/fpv5/hard\libm_nano.a(lib_a-s_copysign.o)
                              c:/program files/microchip/xc32/v2.50/bin/bin/../../lib/gcc/pic32c/6.2.1/../../../../pic32c/lib/v7e-m/fpv5/hard\libm_nano.a(lib_a-s_scalbn.o) (copysign)
c:/program files/microchip/xc32/v2.50/bin/bin/../../lib/gcc/pic32c/6.2.1/../../../../pic32c/lib/v7e-m/fpv5/hard\libc_nano.a(lib_a-errno.o)
                              c:/program files/microchip/xc32/v2.50/bin/bin/../../lib/gcc/pic32c/6.2.1/../../../../pic32c/lib/v7e-m/fpv5/hard\libm_nano.a(lib_a-w_sqrt.o) (__errno)
c:/program files/microchip/xc32/v2.50/bin/bin/../../lib/gcc/pic32c/6.2.1/../../../../pic32c/lib/v7e-m/fpv5/hard\libpic32c.a(sbrk.o)
                              c:/program files/microchip/xc32/v2.50/bin/bin/../../lib/gcc/pic32c/6.2.1/../../../../pic32c/lib/v7e-m/fpv5/hard\libg_nano.a(lib_a-sbrkr.o) (_sbrk)

Allocating common symbols
Common symbol       size              file

IMU_info            0x4               build/sam_e70_xult/debug/_ext/1360937237/app_course_algorithm.o
usart2Obj           0x30              build/sam_e70_xult/debug/_ext/707186936/plib_usart2.o
errno               0x4               c:/program files/microchip/xc32/v2.50/bin/bin/../../lib/gcc/pic32c/6.2.1/../../../../pic32c/lib/v7e-m/fpv5/hard\libg_nano.a(lib_a-reent.o)
gSysFsMutex         0x4               build/sam_e70_xult/debug/_ext/1305476372/sys_fs.o
xAPP_RUDDER_CONTROL_Tasks
                    0x4               build/sam_e70_xult/debug/_ext/1728594169/tasks.o
message_ptr         0x4               build/sam_e70_xult/debug/_ext/1360937237/app_communication.o
xAPP_COURSE_ALGORITHM_Tasks
                    0x4               build/sam_e70_xult/debug/_ext/1728594169/tasks.o
destination         0x14              build/sam_e70_xult/debug/_ext/1360937237/app_communication.o
xAPP_ANEMOMETER_Tasks
                    0x4               build/sam_e70_xult/debug/_ext/1728594169/tasks.o
app_communicationData
                    0x38              build/sam_e70_xult/debug/_ext/1360937237/app_communication.o
angles              0x6               build/sam_e70_xult/debug/_ext/1360937237/app_rudder_control.o
gSYSFSMediaObject   0x28              build/sam_e70_xult/debug/_ext/1305476372/sys_fs_media_manager.o
xdmacChannelObj     0x10              build/sam_e70_xult/debug/_ext/704852250/plib_xdmac.o
IMU_values          0x80              build/sam_e70_xult/debug/_ext/1360937237/app_imu.o
xAPP_MAST_CONTROL_Tasks
                    0x4               build/sam_e70_xult/debug/_ext/1728594169/tasks.o
app_mast_controlData
                    0x1               build/sam_e70_xult/debug/_ext/1360937237/app_mast_control.o
VolToPart           0x2               build/sam_e70_xult/debug/_ext/1305476372/sys_fs_media_manager.o
gSYSFSMediaBuffer   0x200             build/sam_e70_xult/debug/_ext/1305476372/sys_fs_media_manager.o
GPS_info            0x4               build/sam_e70_xult/debug/_ext/1360937237/app_course_algorithm.o
usart0Obj           0x30              build/sam_e70_xult/debug/_ext/707186936/plib_usart0.o
TC3_CH0_CallbackObj
                    0x8               build/sam_e70_xult/debug/_ext/865331892/plib_tc3.o
xAPP_COMMUNICATION_Tasks
                    0x4               build/sam_e70_xult/debug/_ext/1728594169/tasks.o
xAPP_GPS_Tasks      0x4               build/sam_e70_xult/debug/_ext/1728594169/tasks.o
gSYSFSFileObj       0x120             build/sam_e70_xult/debug/_ext/1305476372/sys_fs.o
app_rudder_controlData
                    0x34              build/sam_e70_xult/debug/_ext/1360937237/app_rudder_control.o
gSYSFSDirObj        0x10              build/sam_e70_xult/debug/_ext/1305476372/sys_fs.o
gSYSFSCurrentMountPoint
                    0x8               build/sam_e70_xult/debug/_ext/1305476372/sys_fs.o
sysObj              0x18              build/sam_e70_xult/debug/_ext/1728594169/initialization.o
sdir                0x7               build/sam_e70_xult/debug/_ext/1360937237/app_anemometer.o
Anemometer_values   0x80              build/sam_e70_xult/debug/_ext/1360937237/app_anemometer.o
Anemometer_info     0x4               build/sam_e70_xult/debug/_ext/1360937237/app_course_algorithm.o
app_gpsData         0x38              build/sam_e70_xult/debug/_ext/1360937237/app_gps.o
portPinCbObj        0x30              build/sam_e70_xult/debug/_ext/1055488423/plib_pio.o
PWM0_CallbackObj    0x8               build/sam_e70_xult/debug/_ext/1055487991/plib_pwm0.o
usart1Obj           0x30              build/sam_e70_xult/debug/_ext/707186936/plib_usart1.o
gSYSFSObj           0x8               build/sam_e70_xult/debug/_ext/1305476372/sys_fs.o
gSYSFSVolumeObject  0x1c              build/sam_e70_xult/debug/_ext/1305476372/sys_fs_media_manager.o
buf                 0x80              build/sam_e70_xult/debug/_ext/1360937237/app_gps.o
errorValue          0x1               build/sam_e70_xult/debug/_ext/1305476372/sys_fs.o
app_course_algorithmData
                    0xc4              build/sam_e70_xult/debug/_ext/1360937237/app_course_algorithm.o
app_anemometerData  0x38              build/sam_e70_xult/debug/_ext/1360937237/app_anemometer.o
gSYSFSMountPoint    0x14              build/sam_e70_xult/debug/_ext/1305476372/sys_fs.o
sheading            0x5               build/sam_e70_xult/debug/_ext/1360937237/app_imu.o
xAPP_IMU_Tasks      0x4               build/sam_e70_xult/debug/_ext/1728594169/tasks.o
app_imuData         0x38              build/sam_e70_xult/debug/_ext/1360937237/app_imu.o

Microchip PIC32 Memory-Usage Report

ROM Program-Memory Usage
section                    address  length [bytes]      (dec)  Description
-------                 ----------  -------------------------  -----------
.vectors                  0x400000          0x168         360   
.text                     0x400168           0x20          32  App's exec code 
.ARM.exidx                0x400188            0x8           8   
.text.DRV_SDMMC_Tasks     0x400190         0x19c4        6596   
.text.PIO_PortInterrupt   0x401b54            0x4           4   
.text._strtod_l           0x401b58          0xbb0        2992   
.dinit                    0x402708          0x840        2112   
.text.f_mkfs              0x402f48          0x748        1864   
.text.__kernel_rem_pio2   0x403690          0x4e8        1256   
.text.__gethex            0x403b78          0x43c        1084   
.text.SYS_FS_MEDIA_MANA   0x403fb4          0x3bc         956   
.text.follow_path         0x404370          0x3a0         928   
.text.mount_volume        0x404710          0x35c         860   
.text.f_printf            0x404a6c          0x2d0         720   
.text                     0x404d3c          0x2b8         696  App's exec code 
.text.dir_register        0x404ff4          0x2ac         684   
.text.APP_COURSE_ALGORI   0x4052a0          0x28c         652   
.text.f_open              0x40552c          0x288         648   
.text.disk_status         0x4057b4            0x4           4   
.text.__ieee754_rem_pio   0x4057b8          0x280         640   
.rodata.cvt1.7846         0x405a38          0x1f4         500   
.text.APP_COMMUNICATION   0x405c2c          0x1f0         496   
.text.FATFS_tell          0x405e1c            0x4           4   
.text.atan                0x405e20          0x1ec         492   
.text.xTaskCreate         0x40600c          0x1e8         488   
.text.FATFS_size          0x4061f4            0x4           4   
.text.__ieee754_atan2     0x4061f8          0x1cc         460   
.text.dir_find            0x4063c4          0x1b8         440   
.text.f_write             0x40657c          0x1b0         432   
.text.Dummy_Handler       0x40672c            0x4           4   
.text.Parse_IMU_Field     0x406730          0x1a8         424   
.text.f_setlabel          0x4068d8          0x19c         412   
.text.SYS_FS_MEDIA_MANA   0x406a74          0x19c         412   
.text.TWIHS0_InterruptH   0x406c10          0x198         408   
.text.Reset_Handler       0x406da8          0x184         388   
.text.f_read              0x406f2c          0x174         372   
.text.DRV_SDMMC_SetupXf   0x4070a0          0x170         368   
.text.f_lseek             0x407210          0x170         368   
.text.create_partition    0x407380          0x16c         364   
.text.DRV_USART_Initial   0x4074ec          0x164         356   
.text.get_fileinfo        0x407650          0x164         356   
.text.xQueueSemaphoreTa   0x4077b4          0x15c         348   
.text.PIO_Initialize      0x407910          0x148         328   
.text.APP_RUDDER_CONTRO   0x407a58          0x144         324   
.text.DRV_USART_Open      0x407b9c          0x140         320   
.text.DRV_SDMMC_Initial   0x407cdc          0x13c         316   
.text.dir_read            0x407e18          0x13c         316   
.text.__ieee754_sqrt      0x407f54          0x13c         316   
.text._DRV_SDMMC_Comman   0x408090          0x138         312   
.text.f_getcwd            0x4081c8          0x136         310   
.text.Dummy_App_Func      0x4082fe            0x2           2   
.text.USART1_InterruptH   0x408300          0x12c         300   
.text.USART0_InterruptH   0x40842c          0x12c         300   
.text.USART2_InterruptH   0x408558          0x12c         300   
.text.f_rename            0x408684          0x12a         298   
.text.vPortFree           0x4087ae            0x2           2   
.text.xQueueGenericSend   0x4087b0          0x128         296   
.text._DRV_I2C_WriteRea   0x4088d8          0x126         294   
.text.put_fat             0x4089fe          0x126         294   
.text.HSMCI_InterruptHa   0x408b24          0x120         288   
.text.__hexnan            0x408c44          0x120         288   
.text.f_mkdir             0x408d64          0x11a         282   
.text.__multiply          0x408e7e          0x11a         282   
.text.SYS_Tasks           0x408f98          0x118         280   
.text.xTaskIncrementTic   0x4090b0          0x118         280   
.text.create_chain        0x4091c8          0x108         264   
.rodata.two_over_pi       0x4092d0          0x108         264   
.rodata._ctype_           0x4093d8          0x101         257   
.rodata.uc437             0x4094dc          0x100         256   
.text._strtol_l.isra.0    0x4095dc          0x100         256   
.text.disk_read           0x4096dc           0xfc         252   
.text.scalbn              0x4097d8           0xfc         252   
.text.DRV_I2C_Open        0x4098d4           0xf8         248   
.text.disk_write          0x4099cc           0xf8         248   
.text.DRV_SDMMC_Open      0x409ac4           0xf4         244   
.text.HSMCI_CommandSend   0x409bb8           0xf4         244   
.text.check_fs            0x409cac           0xf4         244   
.text.APP_MAST_CONTROL_   0x409da0           0xf0         240   
.text.floor               0x409e90           0xf0         240   
.text.xTaskResumeAll      0x409f80           0xe8         232   
.text.distancetopt        0x40a068           0xe8         232   
.text.f_getfree           0x40a150           0xe0         224   
.text.dir_next            0x40a230           0xdc         220   
.text.f_unlink            0x40a30c           0xd8         216   
.text.NonMaskableInt_Ha   0x40a3e4            0x4           4   
.text.__kernel_cos        0x40a3e8           0xd8         216   
.text.SYS_TIME_PLIBCall   0x40a4c0           0xd4         212   
.text.get_fat             0x40a594           0xd0         208   
.text.DRV_USART_WriteBu   0x40a664           0xcc         204   
.text.DRV_USART_ReadBuf   0x40a730           0xcc         204   
.text.f_truncate          0x40a7fc           0xca         202   
.text.processGGA          0x40a8c6           0xca         202   
.text.ff_wtoupper         0x40a990           0xc8         200   
.rodata.__mprec_tens      0x40aa58           0xc8         200   
.text.SYS_Initialize      0x40ab20           0xc4         196   
.rodata                   0x40abe4           0xc4         196  Read-only const 
.text.GPS_Process         0x40aca8           0xc4         196   
.text.dir_sdi             0x40ad6c           0xbc         188   
.rodata.cvt2.7847         0x40ae28           0xbc         188   
.text._malloc_r           0x40aee4           0xbc         188   
.text.__mdiff             0x40afa0           0xbc         188   
.text.HardFault_Handler   0x40b05c            0x4           4   
.text.angletopt           0x40b060           0xb8         184   
.text.processRMC          0x40b118           0xb6         182   
.text.__malloc_lock       0x40b1ce            0x2           2   
.text.SYS_TIME_Initiali   0x40b1d0           0xb0         176   
.text.__kernel_sin        0x40b280           0xb0         176   
.text.SYS_TIME_TimerObj   0x40b330           0xac         172   
.text.vTaskSwitchContex   0x40b3dc           0xac         172   
.text.SYS_TIME_HwTimerC   0x40b488           0xa8         168   
.text.xTaskPriorityInhe   0x40b530           0xa8         168   
.text.TWIHS0_InitiateTr   0x40b5d8           0xa4         164   
.text.f_getlabel          0x40b67c           0xa2         162   
.text.__lshift            0x40b71e           0xa2         162   
.text.DRV_SDMMC_Close     0x40b7c0           0xa0         160   
.text.SYS_TIME_AddToLis   0x40b860           0xa0         160   
.text.APP_ANEMOMETER_Ta   0x40b900           0xa0         160   
.text.__d2b               0x40b9a0           0x9e         158   
.text.f_sync              0x40ba3e           0x9c         156   
.text.__malloc_unlock     0x40bada            0x2           2   
.text.__pow5mult          0x40badc           0x9c         156   
.text.__b2d               0x40bb78           0x9c         156   
.text.NVIC_Initialize     0x40bc14           0x98         152   
.text.FATFS_unmount       0x40bcac           0x98         152   
.text.DebugMonitor_Hand   0x40bd44            0x4           4   
.text.sqrt                0x40bd48           0x98         152   
.text.f_opendir           0x40bde0           0x96         150   
.text.DRV_I2C_Initializ   0x40be78           0x94         148   
.text.prvAddCurrentTask   0x40bf0c           0x94         148   
.text.sync_fs             0x40bfa0           0x8c         140   
.text.remove_chain        0x40c02c           0x8a         138   
.rodata.FatFsFunctions    0x40c0b8           0x88         136   
.text.HSMCI_ResponseRea   0x40c140           0x80         128   
.text.TWIHS0_TransferSe   0x40c1c0           0x80         128   
.text.USART1_SerialSetu   0x40c240           0x80         128   
.text.USART0_SerialSetu   0x40c2c0           0x80         128   
.text.USART2_SerialSetu   0x40c340           0x80         128   
.rodata.ExCvt             0x40c3c0           0x80         128   
.text.FATFS_mount         0x40c440           0x80         128   
.text.vTaskPriorityDisi   0x40c4c0           0x80         128   
.text.__pic32c_data_ini   0x40c540           0x80         128   
.rodata.npio2_hw          0x40c5c0           0x80         128   
.text.prvUnlockQueue      0x40c640           0x7e         126   
.text.xTaskPriorityDisi   0x40c6c0           0x7c         124   
.text.__s2b               0x40c73c           0x7c         124   
.text.xTaskRemoveFromEv   0x40c7b8           0x78         120   
.text.parseDegreeMinute   0x40c830           0x78         120   
.text.APP_IMU_Tasks       0x40c8a8           0x78         120   
.text.cos                 0x40c920           0x78         120   
.text.sin                 0x40c998           0x78         120   
.text.__multadd           0x40ca10           0x76         118   
.text.inc_lock            0x40ca88           0x74         116   
.text.prvCopyDataToQueu   0x40cafc           0x72         114   
.text.USART1_Write        0x40cb70           0x70         112   
.text.USART0_Write        0x40cbe0           0x70         112   
.text.USART2_Write        0x40cc50           0x70         112   
.text.SYS_FS_Initialize   0x40ccc0           0x70         112   
.text.xQueueGenericRese   0x40cd30           0x70         112   
.text.prvIdleTask         0x40cda0           0x70         112   
.text.APP_RUDDER_CONTRO   0x40ce10           0x70         112   
.text.CLOCK_Initialize    0x40ce80           0x6c         108   
.text.__utoa              0x40ceec           0x6c         108   
.text.rshift              0x40cf58           0x6a         106   
.text._DRV_SDMMC_Driver   0x40cfc4           0x68         104   
.text.PIO_PinInterruptC   0x40d02c           0x68         104   
.text._PIO_Interrupt_Ha   0x40d094           0x68         104   
.text.vTaskStartSchedul   0x40d0fc           0x68         104   
.text.APP_GPS_Tasks       0x40d164           0x68         104   
.text._Balloc             0x40d1cc           0x68         104   
.text._DRV_SDMMC_PlibCa   0x40d234           0x64         100   
.text.f_mount             0x40d298           0x64         100   
.text.MemoryManagement_   0x40d2fc            0x4           4   
.text.xPortPendSVHandle   0x40d300           0x64         100   
.text.pvPortMalloc        0x40d364           0x64         100   
.text.xQueueGiveFromISR   0x40d3c8           0x64         100   
.text.parseTime           0x40d42c           0x64         100   
.text._DRV_SDMMC_InitCa   0x40d490           0x60          96   
.text.PWM0_Initialize     0x40d4f0           0x60          96   
.text.XDMAC_InterruptHa   0x40d550           0x60          96   
.text.get_ldnumber        0x40d5b0           0x60          96   
.text.dir_clear           0x40d610           0x60          96   
.text.f_chdir             0x40d670           0x60          96   
.text.FATFS_open          0x40d6d0           0x60          96   
.text.SYS_TIME_Callback   0x40d730           0x60          96   
.text.f_chmod             0x40d790           0x5e          94   
.text.__lo0bits           0x40d7ee           0x5e          94   
.text._DRV_USART_Driver   0x40d84c           0x5c          92   
.text.HSMCI_ModuleInit    0x40d8a8           0x5c          92   
.text.f_utime             0x40d904           0x5c          92   
.text.SYS_FS_MEDIA_MANA   0x40d960           0x5c          92   
.text.IMU_Process         0x40d9bc           0x5a          90   
.text.OSAL_SEM_Create     0x40da16           0x58          88   
.text.chk_lock            0x40da70           0x58          88   
.text.dir_remove          0x40dac8           0x58          88   
.text.f_gets              0x40db20           0x58          88   
.text.SYS_TIME_TimerSta   0x40db78           0x58          88   
.text.xTaskCheckForTime   0x40dbd0           0x58          88   
.text.APP_MAST_CONTROL_   0x40dc28           0x58          88   
.text.DRV_SDMMC_Command   0x40dc80           0x54          84   
.text.HSMCI_DmaSetup      0x40dcd4           0x54          84   
.text.dir_alloc           0x40dd28           0x54          84   
.rodata                   0x40dd7c           0x54          84  Read-only const 
.text.SYS_TIME_RemoveFr   0x40ddd0           0x54          84   
.text.parseDate           0x40de24           0x54          84   
.text.sync_window         0x40de78           0x50          80   
.text.f_readdir           0x40dec8           0x50          80   
.text.disk_checkCommand   0x40df18           0x50          80   
.text.SYS_TIME_DelayMS    0x40df68           0x50          80   
.text.__ulp               0x40dfb8           0x50          80   
.text._DRV_USART_RX_PLI   0x40e008           0x4e          78   
.text.XDMAC_ChannelTran   0x40e058           0x4c          76   
.text.__ratio             0x40e0a4           0x4c          76   
.text._DRV_I2C_DriverHa   0x40e0f0           0x48          72   
.rodata.drvSDMMC0PlibAP   0x40e138           0x48          72   
.text.xPortStartSchedul   0x40e180           0x48          72   
.text.__libc_init_array   0x40e1c8           0x48          72   
.text.f_stat              0x40e210           0x44          68   
.text.SYS_INT_SourceDis   0x40e254           0x44          68   
.text.__any_on            0x40e298           0x42          66   
.text                     0x40e2dc           0x40          64  App's exec code 
.text.DRV_SDMMC_EventHa   0x40e31c           0x40          64   
.rodata.TRAN_SPEED_MULT   0x40e35c           0x40          64   
.text.HSMCI_ClockSet      0x40e39c           0x40          64   
.text.USART1_Initialize   0x40e3dc           0x40          64   
.text.USART1_Read         0x40e41c           0x40          64   
.text.USART0_Initialize   0x40e45c           0x40          64   
.text.USART0_Read         0x40e49c           0x40          64   
.text.USART2_Initialize   0x40e4dc           0x40          64   
.text.USART2_Read         0x40e51c           0x40          64   
.text.ff_uni2oem          0x40e55c           0x40          64   
.text.SYS_FS_MEDIA_MANA   0x40e59c           0x40          64   
.text.SYS_TIME_TimerAdd   0x40e5dc           0x40          64   
.text.BusFault_Handler    0x40e61c            0x4           4   
.text.rudder_encoder      0x40e620           0x40          64   
.rodata.PIo2              0x40e660           0x40          64   
.text.putc_bfd            0x40e6a0           0x3e          62   
.text.FATFS_getclusters   0x40e6de           0x3e          62   
.text.__hi0bits           0x40e71c           0x3e          62   
.text.OSAL_SEM_PostISR    0x40e75c           0x3c          60   
.text.TWIHS0_Initialize   0x40e798           0x3c          60   
.text.SYS_TIME_GetTimer   0x40e7d4           0x3c          60   
.text.SYS_TIME_Resource   0x40e810           0x3c          60   
.text.SYS_TIME_TimerDes   0x40e84c           0x3c          60   
.text.putc_flush          0x40e888           0x3a          58   
.text.SYS_CACHE_Invalid   0x40e8c4           0x38          56   
.text.SYS_CACHE_CleanDC   0x40e8fc           0x38          56   
.text.disk_ioctl          0x40e934           0x38          56   
.text.SYS_TIME_Resource   0x40e96c           0x38          56   
.text.UsageFault_Handle   0x40e9a4            0x4           4   
.text.parseFloat          0x40e9a8           0x38          56   
.text.move_window         0x40e9e0           0x36          54   
.text.TWIHS0_InitiateRe   0x40ea18           0x34          52   
.text.dec_lock            0x40ea4c           0x34          52   
.text.f_close             0x40ea80           0x34          52   
.text.f_fdisk             0x40eab4           0x34          52   
.text.SYS_FS_MEDIA_MANA   0x40eae8           0x34          52   
.text.vListInsert         0x40eb1c           0x34          52   
.text.vTaskDelay          0x40eb50           0x34          52   
.text.sulp                0x40eb84           0x34          52   
.text.__mcmp              0x40ebb8           0x34          52   
.text.__copybits          0x40ebec           0x34          52   
.text.validate            0x40ec20           0x32          50   
.rodata.sdmmcMediaFunct   0x40ec54           0x30          48   
.text.f_puts              0x40ec84           0x30          48   
.text.diskEventHandler    0x40ecb4           0x30          48   
.text.SYS_TIME_UpdateTi   0x40ece4           0x30          48   
.text.xPortSysTickHandl   0x40ed14           0x30          48   
.text.xQueueGenericCrea   0x40ed44           0x30          48   
.text                     0x40ed74           0x30          48  App's exec code 
.text.__itoa              0x40eda4           0x30          48   
.text._Bfree              0x40edd4           0x2e          46   
.text.DRV_SDMMC_IsAttac   0x40ee04           0x2c          44   
.text.TWIHS0_Read         0x40ee30           0x2c          44   
.text.TWIHS0_Write        0x40ee5c           0x2c          44   
.text.TWIHS0_WriteRead    0x40ee88           0x2c          44   
.text.USART1_ErrorClear   0x40eeb4           0x2c          44   
.text.USART0_ErrorClear   0x40eee0           0x2c          44   
.text.USART2_ErrorClear   0x40ef0c           0x2c          44   
.text.FATFS_opendir       0x40ef38           0x2c          44   
.rodata.drvUsart0InitDa   0x40ef64           0x2c          44   
.rodata.drvUsart0PlibAP   0x40ef90           0x2c          44   
.rodata.drvUsart1InitDa   0x40efbc           0x2c          44   
.rodata.drvUsart1PlibAP   0x40efe8           0x2c          44   
.rodata.drvUsart2InitDa   0x40f014           0x2c          44   
.rodata.drvUsart2PlibAP   0x40f040           0x2c          44   
.text.pxPortInitialiseS   0x40f06c           0x2c          44   
.text.prvResetNextTaskU   0x40f098           0x2c          44   
.text.strtol              0x40f0c4           0x2c          44   
.text._sbrk               0x40f0f0           0x2c          44   
.text.f_closedir          0x40f11c           0x2a          42   
.text.strncpy             0x40f146           0x2a          42   
.text.__hexdig_fun        0x40f170           0x2a          42   
.text._DRV_I2C_PLibCall   0x40f19a           0x28          40   
.text.USART1_ReadAbort    0x40f1c4           0x28          40   
.text.USART0_ReadAbort    0x40f1ec           0x28          40   
.text.USART2_ReadAbort    0x40f214           0x28          40   
.text.XDMAC_Initialize    0x40f23c           0x28          40   
.text.tchar2uni           0x40f264           0x28          40   
.text.f_chdrive           0x40f28c           0x28          40   
.text.ff_oem2uni          0x40f2b4           0x28          40   
.text.FATFS_mkfs          0x40f2dc           0x28          40   
.text.SYS_TIME_TimerPer   0x40f304           0x28          40   
.text.prvPortStartFirst   0x40f32c           0x28          40   
.text.vPortSetupTimerIn   0x40f354           0x28          40   
.text.uxListRemove        0x40f37c           0x28          40   
.text.strtod              0x40f3a4           0x28          40   
.text                     0x40f3cc            0x4           4  App's exec code 
.rodata.tinytens          0x40f3d0           0x28          40   
.rodata.__mprec_bigtens   0x40f3f8           0x28          40   
.text.f_putc              0x40f420           0x26          38   
.text.get_fattime         0x40f446           0x26          38   
.text.__match             0x40f46c           0x26          38   
.rodata                   0x40f492           0x25          37  Read-only const 
.text.DRV_SDMMC_Geometr   0x40f4b8           0x24          36   
.text.TC3_CH0_TimerInit   0x40f4dc           0x24          36   
.text.TC3_CH0_Interrupt   0x40f500           0x24          36   
.rodata.drvSDMMC0InitDa   0x40f524           0x24          36   
.text.prvTaskExitError    0x40f548           0x24          36   
.text.itoa                0x40f56c            0x4           4   
.text.vPortSVCHandler     0x40f570           0x24          36   
.text.vPortEnterCritica   0x40f594           0x24          36   
.text.xQueueCreateMutex   0x40f5b8           0x24          36   
.text.__ascii_mbtowc      0x40f5dc           0x24          36   
.text.strncmp             0x40f600           0x24          36   
.text.L_shift             0x40f624           0x24          36   
.text.SYS_FS_MEDIA_MANA   0x40f648           0x22          34   
.text.FATFS_chdrive       0x40f66a           0x22          34   
.text.Radio_Encode        0x40f68c           0x22          34   
.rodata.TRAN_SPEED_UNIT   0x40f6b0           0x20          32   
.text.HSMCI_IsDatLineBu   0x40f6d0           0x20          32   
.text.XDMAC_ChannelSett   0x40f6f0           0x20          32   
.text.ld_clust            0x40f710           0x20          32   
.text.SYS_FS_MEDIA_MANA   0x40f730           0x20          32   
.rodata                   0x40f750           0x20          32  Read-only const 
.text.SYS_TIME_GetElaps   0x40f770           0x20          32   
.text.mast_encoder        0x40f790           0x20          32   
.text._sbrk_r             0x40f7b0           0x20          32   
.rodata.atanhi            0x40f7d0           0x20          32   
.rodata.atanlo            0x40f7f0           0x20          32   
.text._DRV_USART_RX_DMA   0x40f810           0x1e          30   
.text._DRV_USART_TX_DMA   0x40f82e           0x1e          30   
.text.OSAL_SEM_Pend       0x40f84c           0x1e          30   
.text.OSAL_MUTEX_Lock     0x40f86a           0x1e          30   
.text.sum_sfn             0x40f888           0x1e          30   
.text.FATFS_close         0x40f8a6           0x1e          30   
.text.FATFS_closedir      0x40f8c4           0x1e          30   
.text.DRV_I2C_TransferS   0x40f8e2           0x1c          28   
.text.HSMCI_BlockSizeSe   0x40f900           0x1c          28   
.text.PWM0_InterruptHan   0x40f91c           0x1c          28   
.text.XDMAC_ChannelDisa   0x40f938           0x1c          28   
.text._SYS_FS_MEDIA_MAN   0x40f954           0x1c          28   
.text.SYS_FS_MEDIA_MANA   0x40f970           0x1c          28   
.text.FATFS_readdir       0x40f98c           0x1c          28   
.text.SYS_TIME_Counter6   0x40f9a8           0x1c          28   
.rodata.sysTimePlibAPI    0x40f9c4           0x1c          28   
.text.vTaskPlaceOnEvent   0x40f9e0           0x1c          28   
.text.pvTaskIncrementMu   0x40f9fc           0x1c          28   
.rodata                   0x40fa18           0x1c          28  Read-only const 
.text.strchr              0x40fa34           0x1c          28   
.text._calloc_r           0x40fa50           0x1c          28   
.text.HSMCI_BusWidthSet   0x40fa6c           0x1a          26   
.text.SYS_DMA_DataWidth   0x40fa86           0x1a          26   
.text.st_clust            0x40faa0           0x1a          26   
.text.FATFS_stat          0x40faba           0x1a          26   
.text.Radio_Decode        0x40fad4           0x1a          26   
.text.__ascii_wctomb      0x40faee           0x1a          26   
.text.copysign            0x40fb08           0x1a          26   
.text.DRV_I2C_ReadTrans   0x40fb22           0x18          24   
.text.OSAL_MUTEX_Create   0x40fb3a           0x18          24   
.text.OSAL_MUTEX_Unlock   0x40fb52           0x18          24   
.text.HSMCI_BlockCountS   0x40fb6c           0x18          24   
.text.HSMCI_Initialize    0x40fb84           0x18          24   
.text.clst2sect           0x40fb9c           0x18          24   
.text.SYS_TIME_DelayIsC   0x40fbb4           0x18          24   
.rodata.drvI2C0PLibAPI    0x40fbcc           0x18          24   
.rodata.drvUsart0remapP   0x40fbe4           0x18          24   
.rodata.drvUsart1remapP   0x40fbfc           0x18          24   
.rodata.drvUsart2remapP   0x40fc14           0x18          24   
.text._DRV_SDMMC0_Tasks   0x40fc2c           0x18          24   
.text.vListInsertEnd      0x40fc44           0x18          24   
.text.vTaskInternalSetT   0x40fc5c           0x18          24   
.text.mast_reset          0x40fc74           0x18          24   
.text.rudder_reset        0x40fc8c           0x18          24   
.text.HSMCI_SpeedModeSe   0x40fca4           0x16          22   
.text.ld_dword            0x40fcba           0x16          22   
.text.vApplicationStack   0x40fcd0           0x16          22   
.text.vApplicationMallo   0x40fce6           0x16          22   
.text.vListInitialise     0x40fcfc           0x16          22   
.text.prvIsQueueEmpty     0x40fd12           0x16          22   
.text.xQueueCreateCount   0x40fd28           0x16          22   
.text.memcpy              0x40fd3e           0x16          22   
.text.DRV_SDMMC_Registe   0x40fd54           0x14          20   
.text.DRV_SDMMC_AsyncRe   0x40fd68           0x14          20   
.text.DRV_SDMMC_AsyncWr   0x40fd7c           0x14          20   
.text.USART1_ErrorGet     0x40fd90           0x14          20   
.text.USART0_ErrorGet     0x40fda4           0x14          20   
.text.USART2_ErrorGet     0x40fdb8           0x14          20   
.text.mem_cpy             0x40fdcc           0x14          20   
.rodata.badchr.8552       0x40fde0           0x14          20   
.rodata.drvUsart0remapD   0x40fdf4           0x14          20   
.rodata.drvUsart1remapD   0x40fe08           0x14          20   
.rodata.drvUsart2remapD   0x40fe1c           0x14          20   
.text.vPortEnableVFP      0x40fe30           0x14          20   
.text.vPortExitCritical   0x40fe44           0x14          20   
.rodata.fpi.7286          0x40fe58           0x14          20   
.rodata.fpinan.7322       0x40fe6c           0x14          20   
.text.NVIC_INT_Disable    0x40fe80           0x12          18   
.text.NVIC_INT_Restore    0x40fe92           0x12          18   
.text.__i2b               0x40fea4           0x12          18   
.text._DRV_USART_TX_PLI   0x40feb6           0x10          16   
.text.EFC_Initialize      0x40fec8           0x10          16   
.text.HSMCI_CommandErro   0x40fed8           0x10          16   
.text.HSMCI_DataErrorGe   0x40fee8           0x10          16   
.text.HSMCI_IsCmdLineBu   0x40fef8           0x10          16   
.text.HSMCI_CallbackReg   0x40ff08           0x10          16   
.text.PIOA_InterruptHan   0x40ff18           0x10          16   
.text.PIOB_InterruptHan   0x40ff28           0x10          16   
.text.PIOD_InterruptHan   0x40ff38           0x10          16   
.text.TWIHS0_CallbackRe   0x40ff48           0x10          16   
.text.TWIHS0_ErrorGet     0x40ff58           0x10          16   
.text.XDMAC_ChannelCall   0x40ff68           0x10          16   
.text.st_dword            0x40ff78           0x10          16   
.rodata.LfnOfs            0x40ff88           0x10          16   
.rodata.cst.8589          0x40ff98           0x10          16   
.rodata.cst32.8590        0x40ffa8           0x10          16   
.rodata.defopt.8591       0x40ffb8           0x10          16   
.text.disk_initialize     0x40ffc8           0x10          16   
.rodata.drvI2C0InitData   0x40ffd8           0x10          16   
.text._SYS_FS_Tasks       0x40ffe8           0x10          16   
.text.vTaskSuspendAll     0x40fff8           0x10          16   
.text.malloc              0x410008           0x10          16   
.text.memset              0x410018           0x10          16   
.text.strcpy              0x410028           0x10          16   
.text                     0x410038           0x10          16  App's exec code 
.rodata.init_jk           0x410048           0x10          16   
.text.FATFS_eof           0x410058            0xe          14   
.text.main                0x410066            0xe          14   
.text.fabs                0x410074            0xe          14   
.text.PWM0_ChannelsStar   0x410084            0xc          12   
.text.TC3_CH0_TimerStar   0x410090            0xc          12   
.text.TC3_CH0_TimerStop   0x41009c            0xc          12   
.text.TC3_CH0_TimerPeri   0x4100a8            0xc          12   
.text.TC3_CH0_TimerComp   0x4100b4            0xc          12   
.text.TC3_CH0_TimerCoun   0x4100c0            0xc          12   
.text.TC3_CH0_TimerCall   0x4100cc            0xc          12   
.text.USART1_WriteCallb   0x4100d8            0xc          12   
.text.USART1_ReadCallba   0x4100e4            0xc          12   
.text.USART1_WriteIsBus   0x4100f0            0xc          12   
.text.USART1_ReadIsBusy   0x4100fc            0xc          12   
.text.USART1_WriteCount   0x410108            0xc          12   
.text.USART1_ReadCountG   0x410114            0xc          12   
.text.USART0_WriteCallb   0x410120            0xc          12   
.text.USART0_ReadCallba   0x41012c            0xc          12   
.text.USART0_WriteIsBus   0x410138            0xc          12   
.text.USART0_ReadIsBusy   0x410144            0xc          12   
.text.USART0_WriteCount   0x410150            0xc          12   
.text.USART0_ReadCountG   0x41015c            0xc          12   
.text.USART2_WriteCallb   0x410168            0xc          12   
.text.USART2_ReadCallba   0x410174            0xc          12   
.text.USART2_WriteIsBus   0x410180            0xc          12   
.text.USART2_ReadIsBusy   0x41018c            0xc          12   
.text.USART2_WriteCount   0x410198            0xc          12   
.text.USART2_ReadCountG   0x4101a4            0xc          12   
.text.XDMAC_ChannelSett   0x4101b0            0xc          12   
.text.mem_set             0x4101bc            0xc          12   
.text.SYS_FS_MEDIA_MANA   0x4101c8            0xc          12   
.text.FATFS_error         0x4101d4            0xc          12   
.rodata.drvUsart0remapE   0x4101e0            0xc          12   
.rodata.drvUsart0remapS   0x4101ec            0xc          12   
.rodata.drvUsart1remapE   0x4101f8            0xc          12   
.rodata.drvUsart1remapS   0x410204            0xc          12   
.rodata.drvUsart2remapE   0x410210            0xc          12   
.rodata.drvUsart2remapS   0x41021c            0xc          12   
.rodata.sysfsMountTable   0x410228            0xc          12   
.text.vTaskMissedYield    0x410234            0xc          12   
.text.APP_COMMUNICATION   0x410240            0xc          12   
.text.APP_COURSE_ALGORI   0x41024c            0xc          12   
.text.APP_ANEMOMETER_In   0x410258            0xc          12   
.text.APP_GPS_Initializ   0x410264            0xc          12   
.text.APP_IMU_Initializ   0x410270            0xc          12   
.rodata                   0x41027c            0xc          12  Read-only const 
.rodata.p05.7204          0x410288            0xc          12   
.text.__errno             0x410294            0xc          12   
.rodata                   0x4102a0            0xb          11  Read-only const 
.text.FATFS_read          0x4102ac            0xa          10   
.text.FATFS_lseek         0x4102b6            0xa          10   
.text.FATFS_gets          0x4102c0            0xa          10   
.text.FATFS_write         0x4102ca            0xa          10   
.text.FATFS_truncate      0x4102d4            0xa          10   
.text.FATFS_sync          0x4102de            0xa          10   
.text.FATFS_putc          0x4102e8            0xa          10   
.text.FATFS_puts          0x4102f2            0xa          10   
.text.FATFS_printf        0x4102fc            0xa          10   
.text.TC3_CH0_TimerFreq   0x410308            0x8           8   
.text.SYS_FS_Tasks        0x410310            0x8           8   
.rodata.gPartitionTypeO   0x410318            0x8           8   
.text.FATFS_getlabel      0x410320            0x8           8   
.text.FATFS_getcwd        0x410328            0x8           8   
.text.FATFS_chdir         0x410330            0x8           8   
.text.FATFS_mkdir         0x410338            0x8           8   
.text.FATFS_unlink        0x410340            0x8           8   
.text.FATFS_setlabel      0x410348            0x8           8   
.text.FATFS_chmod         0x410350            0x8           8   
.text.FATFS_utime         0x410358            0x8           8   
.text.FATFS_rename        0x410360            0x8           8   
.text.FATFS_fdisk         0x410368            0x8           8   
.text.SYS_INT_Disable     0x410370            0x8           8   
.text.SYS_INT_Restore     0x410378            0x8           8   
.rodata.sysFSInit         0x410380            0x8           8   
.rodata.sysTimeInitData   0x410388            0x8           8   
.text._APP_ANEMOMETER_T   0x410390            0x8           8   
.text._APP_COMMUNICATIO   0x410398            0x8           8   
.text._APP_MAST_CONTROL   0x4103a0            0x8           8   
.text._APP_COURSE_ALGOR   0x4103a8            0x8           8   
.text._APP_RUDDER_CONTR   0x4103b0            0x8           8   
.text._APP_GPS_Tasks      0x4103b8            0x8           8   
.text._APP_IMU_Tasks      0x4103c0            0x8           8   
.rodata                   0x4103c8           0x10          16  Read-only const 
.text.atoi                0x4103d8            0x8           8   
.text._DRV_SDMMC_TimerC   0x4103e0            0x6           6   
.text.vListInitialiseIt   0x4103e6            0x6           6   
.text.atof                0x4103ec            0x6           6   
.text.__locale_ctype_pt   0x4103f2            0x6           6   
.rodata                   0x4103f8            0x5           5  Read-only const 
.text.__localeconv_l      0x4103fe            0x4           4   
.text.atan2               0x410402            0x4           4   
.text.matherr             0x410406            0x4           4   
      Total ROM used  :     0x103da       66522  3.2% of 0x200000
        --------------------------------------------------------------------------
         Total Program Memory used  :     0x103da       66522  3.2% of 0x200000
        --------------------------------------------------------------------------


RAM Data-Memory Usage
section                    address  length [bytes]      (dec)  Description
-------                 ----------  -------------------------  -----------
.bss                    0x20400000          0x88c        2188  Uninitialized data 
.bss.ucHeap             0x2040088c         0xa000       40960   
.bss.hsmciObj           0x2040a88c           0x14          20   
.bss.gSYSFSMediaBlockBu 0x2040a8a0          0x800        2048   
.bss.gDrvSDMMCObj       0x2040b0a0          0x340         832   
.bss.FATFSFileObject    0x2040b3e0          0x260         608   
.bss.FATFSVolume        0x2040b640          0x260         608   
.bss.gSysFsDiskData     0x2040b8a0          0x220         544   
.bss.LfnBuf             0x2040bac0          0x200         512   
.data.__global_locale   0x2040bcc0          0x16c         364   
.bss.gDrvUSARTObj       0x2040be2c          0x114         276   
.bss.timers             0x2040bf40           0xa0         160   
.bss.decoded            0x2040bfe0           0x7e         126   
.bss.Fsid               0x2040c05e            0x2           2   
.bss.recbuffer          0x2040c060           0x7e         126   
.data.gSysTimeTokenCoun 0x2040c0de            0x2           2   
.bss.sendbuffer         0x2040c0e0           0x7e         126   
.data.address           0x2040c15e            0x2           2   
.bss.pxReadyTasksLists  0x2040c160           0x64         100   
.bss.drvUSART1ClientObj 0x2040c1c4           0x60          96   
.data.impure_data       0x2040c224           0x60          96   
.bss.drvSDMMC0BufferObj 0x2040c284           0x48          72   
.bss.gDrvI2CObj         0x2040c2cc           0x38          56   
.bss                    0x2040c304           0x1c          28  Uninitialized data 
.bss.FATFSDirObject     0x2040c320           0x38          56   
.bss.gSystemCounterObj  0x2040c358           0x38          56   
.bss.twihs0Obj          0x2040c390           0x28          40   
.data.gps_not_ready     0x2040c3b8           0x23          35   
.data.cardAttached.9336 0x2040c3db            0x1           1   
.bss.drvUSART0ClientObj 0x2040c3dc           0x20          32   
.data.gps_ready         0x2040c3fc           0x1b          27   
.bss.CurrVol            0x2040c417            0x1           1   
.data.gSYSFSMediaManage 0x2040c418           0x18          24   
.data.gSYSFSVolumeName  0x2040c430           0x14          20   
.bss.xDelayedTaskList1  0x2040c444           0x14          20   
.bss.xDelayedTaskList2  0x2040c458           0x14          20   
.bss.xPendingReadyList  0x2040c46c           0x14          20   
.bss.xSuspendedTaskList 0x2040c480           0x14          20   
.bss.xTasksWaitingTermi 0x2040c494           0x14          20   
.data.signal_confirmed  0x2040c4a8           0x12          18   
.bss.sending            0x2040c4ba            0x1           1   
.bss.calibrate          0x2040c4bb            0x1           1   
.bss.Files              0x2040c4bc           0x10          16   
.bss.drvI2C0ClientObjPo 0x2040c4cc           0x10          16   
.bss.drvSDMMC0ClientObj 0x2040c4dc           0x10          16   
.bss.drvUSART2ClientObj 0x2040c4ec           0x10          16   
.data.confirmed         0x2040c4fc            0xb          11   
.bss.startupflag        0x2040c507            0x1           1   
.data.portNumCb         0x2040c508            0x6           6   
.bss.ontheleft          0x2040c50e            0x1           1   
.bss.rudder_calibrated  0x2040c50f            0x1           1   
.bss.FatFs              0x2040c510            0x4           4   
.bss.cmd.7658           0x2040c514            0x4           4   
.data.uxCriticalNesting 0x2040c518            0x4           4   
.bss.pucAlignedHeap.628 0x2040c51c            0x4           4   
.bss.xNextFreeByte      0x2040c520            0x4           4   
.bss.pxCurrentTCB       0x2040c524            0x4           4   
.bss.pxDelayedTaskList  0x2040c528            0x4           4   
.bss.pxOverflowDelayedT 0x2040c52c            0x4           4   
.bss.uxCurrentNumberOfT 0x2040c530            0x4           4   
.bss.uxDeletedTasksWait 0x2040c534            0x4           4   
.bss.uxSchedulerSuspend 0x2040c538            0x4           4   
.bss.uxTaskNumber       0x2040c53c            0x4           4   
.bss.uxTopReadyPriority 0x2040c540            0x4           4   
.bss.xIdleTaskHandle    0x2040c544            0x4           4   
.bss.xNextTaskUnblockTi 0x2040c548            0x4           4   
.bss.xNumOfOverflows    0x2040c54c            0x4           4   
.bss.xPendedTicks       0x2040c550            0x4           4   
.bss.xSchedulerRunning  0x2040c554            0x4           4   
.bss.xTickCount         0x2040c558            0x4           4   
.bss.xYieldPending      0x2040c55c            0x4           4   
.bss.delay              0x2040c560            0x4           4   
.bss.message_size       0x2040c564            0x4           4   
.bss.num_times_confimre 0x2040c568            0x4           4   
.bss.size               0x2040c56c            0x4           4   
.data.retry_num         0x2040c570            0x4           4   
.bss.desired_mast_angle 0x2040c574            0x4           4   
.bss.duty               0x2040c578            0x4           4   
.bss.error              0x2040c57c            0x4           4   
.bss.mast_angle         0x2040c580            0x4           4   
.data.allowed_error     0x2040c584            0x4           4   
.data.restrict_angle    0x2040c588            0x4           4   
.bss.mast_angle_to_wind 0x2040c58c            0x4           4   
.bss.rudder_angle_to_wi 0x2040c590            0x4           4   
.data.allowed_cruise_an 0x2040c594            0x4           4   
.data.allowed_set_angle 0x2040c598            0x4           4   
.bss.desired_rudder_ang 0x2040c59c            0x4           4   
.bss.rudder_angle       0x2040c5a0            0x4           4   
.bss.rudder_error       0x2040c5a4            0x4           4   
.data.pwm_max           0x2040c5a8            0x4           4   
.data.pwm_min           0x2040c5ac            0x4           4   
.data.rudder_allowed_er 0x2040c5b0            0x4           4   
.data.rudder_duty       0x2040c5b4            0x4           4   
.bss.dir                0x2040c5b8            0x4           4   
.bss.__malloc_free_list 0x2040c5bc            0x4           4   
.bss.__malloc_sbrk_star 0x2040c5c0            0x4           4   
.data._impure_ptr       0x2040c5c4            0x4           4   
.bss                    0x2040c5c8            0x4           4  Uninitialized data 
.data.jitter            0x2040c5cc            0x1           1   
.bss.appInitialized     0x2040c5cd            0x1           1   
.data.__fdlib_version   0x2040c5ce            0x1           1   
         Total RAM used  :      0xc5cf       50639  12.9% of 0x60000
        --------------------------------------------------------------------------
            Total Data Memory used  :      0xc5cf       50639  12.9% of 0x60000
        --------------------------------------------------------------------------


Dynamic Data-Memory Reservation
section                    address  length [bytes]      (dec)  Description
-------                 ----------  -------------------------  -----------
heap                    0x2040c5d0          0x200         512  Reserved for heap 
stack                   0x2040c7e8        0x53808      342024  Reserved for stack 

        --------------------------------------------------------------------------

Discarded input sections

 .text          0x0000000000000000        0x0 c:/program files/microchip/xc32/v2.50/bin/bin/../../lib/gcc/pic32c/6.2.1/v7e-m/fpv5/hard/crti.o
 .data          0x0000000000000000        0x0 c:/program files/microchip/xc32/v2.50/bin/bin/../../lib/gcc/pic32c/6.2.1/v7e-m/fpv5/hard/crti.o
 .bss           0x0000000000000000        0x0 c:/program files/microchip/xc32/v2.50/bin/bin/../../lib/gcc/pic32c/6.2.1/v7e-m/fpv5/hard/crti.o
 .data          0x0000000000000000        0x4 c:/program files/microchip/xc32/v2.50/bin/bin/../../lib/gcc/pic32c/6.2.1/v7e-m/fpv5/hard/crtbegin.o
 .text          0x0000000000000000        0x0 build/sam_e70_xult/debug/_ext/957281314/drv_i2c.o
 .data          0x0000000000000000        0x0 build/sam_e70_xult/debug/_ext/957281314/drv_i2c.o
 .bss           0x0000000000000000        0x0 build/sam_e70_xult/debug/_ext/957281314/drv_i2c.o
 .text.DRV_I2C_Status
                0x0000000000000000       0x14 build/sam_e70_xult/debug/_ext/957281314/drv_i2c.o
 .text.DRV_I2C_ErrorGet
                0x0000000000000000       0x12 build/sam_e70_xult/debug/_ext/957281314/drv_i2c.o
 .text.DRV_I2C_Close
                0x0000000000000000       0x34 build/sam_e70_xult/debug/_ext/957281314/drv_i2c.o
 .text.DRV_I2C_WriteTransfer
                0x0000000000000000       0x16 build/sam_e70_xult/debug/_ext/957281314/drv_i2c.o
 .text.DRV_I2C_WriteReadTransfer
                0x0000000000000000       0x18 build/sam_e70_xult/debug/_ext/957281314/drv_i2c.o
 .text          0x0000000000000000        0x0 build/sam_e70_xult/debug/_ext/1565510230/drv_sdmmc_file_system.o
 .data          0x0000000000000000        0x0 build/sam_e70_xult/debug/_ext/1565510230/drv_sdmmc_file_system.o
 .bss           0x0000000000000000        0x0 build/sam_e70_xult/debug/_ext/1565510230/drv_sdmmc_file_system.o
 .text          0x0000000000000000        0x0 build/sam_e70_xult/debug/_ext/1565510230/drv_sdmmc.o
 .data          0x0000000000000000        0x0 build/sam_e70_xult/debug/_ext/1565510230/drv_sdmmc.o
 .bss           0x0000000000000000        0x0 build/sam_e70_xult/debug/_ext/1565510230/drv_sdmmc.o
 .text.DRV_SDMMC_RegisterWithSysFs
                0x0000000000000000        0x2 build/sam_e70_xult/debug/_ext/1565510230/drv_sdmmc.o
 .text.DRV_SDMMC_Status
                0x0000000000000000       0x14 build/sam_e70_xult/debug/_ext/1565510230/drv_sdmmc.o
 .text.DRV_SDMMC_IsWriteProtected
                0x0000000000000000       0x38 build/sam_e70_xult/debug/_ext/1565510230/drv_sdmmc.o
 .text          0x0000000000000000        0x0 build/sam_e70_xult/debug/_ext/716655881/drv_usart.o
 .data          0x0000000000000000        0x0 build/sam_e70_xult/debug/_ext/716655881/drv_usart.o
 .bss           0x0000000000000000        0x0 build/sam_e70_xult/debug/_ext/716655881/drv_usart.o
 .text.DRV_USART_Status
                0x0000000000000000       0x1c build/sam_e70_xult/debug/_ext/716655881/drv_usart.o
 .text.DRV_USART_SerialSetup
                0x0000000000000000       0x72 build/sam_e70_xult/debug/_ext/716655881/drv_usart.o
 .text.DRV_USART_Close
                0x0000000000000000       0x34 build/sam_e70_xult/debug/_ext/716655881/drv_usart.o
 .text.DRV_USART_ErrorGet
                0x0000000000000000       0x10 build/sam_e70_xult/debug/_ext/716655881/drv_usart.o
 .text          0x0000000000000000        0x0 build/sam_e70_xult/debug/_ext/1613695899/osal_freertos.o
 .data          0x0000000000000000        0x0 build/sam_e70_xult/debug/_ext/1613695899/osal_freertos.o
 .bss           0x0000000000000000        0x0 build/sam_e70_xult/debug/_ext/1613695899/osal_freertos.o
 .text.OSAL_CRIT_Enter
                0x0000000000000000       0x18 build/sam_e70_xult/debug/_ext/1613695899/osal_freertos.o
 .text.OSAL_CRIT_Leave
                0x0000000000000000       0x16 build/sam_e70_xult/debug/_ext/1613695899/osal_freertos.o
 .text.OSAL_SEM_Delete
                0x0000000000000000       0x12 build/sam_e70_xult/debug/_ext/1613695899/osal_freertos.o
 .text.OSAL_SEM_Post
                0x0000000000000000       0x18 build/sam_e70_xult/debug/_ext/1613695899/osal_freertos.o
 .text.OSAL_SEM_GetCount
                0x0000000000000000       0x12 build/sam_e70_xult/debug/_ext/1613695899/osal_freertos.o
 .text.OSAL_MUTEX_Delete
                0x0000000000000000       0x1a build/sam_e70_xult/debug/_ext/1613695899/osal_freertos.o
 .text.OSAL_Malloc
                0x0000000000000000        0x8 build/sam_e70_xult/debug/_ext/1613695899/osal_freertos.o
 .text.OSAL_Free
                0x0000000000000000        0x8 build/sam_e70_xult/debug/_ext/1613695899/osal_freertos.o
 .text.OSAL_Initialize
                0x0000000000000000        0x4 build/sam_e70_xult/debug/_ext/1613695899/osal_freertos.o
 .text          0x0000000000000000        0x0 build/sam_e70_xult/debug/_ext/1055500827/plib_clk.o
 .data          0x0000000000000000        0x0 build/sam_e70_xult/debug/_ext/1055500827/plib_clk.o
 .bss           0x0000000000000000        0x0 build/sam_e70_xult/debug/_ext/1055500827/plib_clk.o
 .text          0x0000000000000000        0x0 build/sam_e70_xult/debug/_ext/1055499099/plib_efc.o
 .data          0x0000000000000000        0x0 build/sam_e70_xult/debug/_ext/1055499099/plib_efc.o
 .bss           0x0000000000000000        0x0 build/sam_e70_xult/debug/_ext/1055499099/plib_efc.o
 .text.EFC_Read
                0x0000000000000000       0x10 build/sam_e70_xult/debug/_ext/1055499099/plib_efc.o
 .text.EFC_SectorErase
                0x0000000000000000       0x34 build/sam_e70_xult/debug/_ext/1055499099/plib_efc.o
 .text.EFC_PageWrite
                0x0000000000000000       0x58 build/sam_e70_xult/debug/_ext/1055499099/plib_efc.o
 .text.EFC_QuadWordWrite
                0x0000000000000000       0x48 build/sam_e70_xult/debug/_ext/1055499099/plib_efc.o
 .text.EFC_RegionLock
                0x0000000000000000       0x2c build/sam_e70_xult/debug/_ext/1055499099/plib_efc.o
 .text.EFC_RegionUnlock
                0x0000000000000000       0x2c build/sam_e70_xult/debug/_ext/1055499099/plib_efc.o
 .text.EFC_IsBusy
                0x0000000000000000       0x20 build/sam_e70_xult/debug/_ext/1055499099/plib_efc.o
 .text.EFC_ErrorGet
                0x0000000000000000       0x18 build/sam_e70_xult/debug/_ext/1055499099/plib_efc.o
 .bss.status    0x0000000000000000        0x4 build/sam_e70_xult/debug/_ext/1055499099/plib_efc.o
 .text          0x0000000000000000        0x0 build/sam_e70_xult/debug/_ext/719181653/plib_hsmci.o
 .data          0x0000000000000000        0x0 build/sam_e70_xult/debug/_ext/719181653/plib_hsmci.o
 .bss           0x0000000000000000        0x0 build/sam_e70_xult/debug/_ext/719181653/plib_hsmci.o
 .text          0x0000000000000000        0x0 build/sam_e70_xult/debug/_ext/1639550079/plib_nvic.o
 .data          0x0000000000000000        0x0 build/sam_e70_xult/debug/_ext/1639550079/plib_nvic.o
 .bss           0x0000000000000000        0x0 build/sam_e70_xult/debug/_ext/1639550079/plib_nvic.o
 .text.NVIC_INT_Enable
                0x0000000000000000        0x8 build/sam_e70_xult/debug/_ext/1639550079/plib_nvic.o
 .text          0x0000000000000000        0x0 build/sam_e70_xult/debug/_ext/1055488423/plib_pio.o
 .data          0x0000000000000000        0x0 build/sam_e70_xult/debug/_ext/1055488423/plib_pio.o
 .bss           0x0000000000000000        0x0 build/sam_e70_xult/debug/_ext/1055488423/plib_pio.o
 .text.PIO_PortRead
                0x0000000000000000        0x4 build/sam_e70_xult/debug/_ext/1055488423/plib_pio.o
 .text.PIO_PortWrite
                0x0000000000000000        0xc build/sam_e70_xult/debug/_ext/1055488423/plib_pio.o
 .text.PIO_PortLatchRead
                0x0000000000000000        0x4 build/sam_e70_xult/debug/_ext/1055488423/plib_pio.o
 .text.PIO_PortSet
                0x0000000000000000        0x4 build/sam_e70_xult/debug/_ext/1055488423/plib_pio.o
 .text.PIO_PortClear
                0x0000000000000000        0x4 build/sam_e70_xult/debug/_ext/1055488423/plib_pio.o
 .text.PIO_PortToggle
                0x0000000000000000        0x8 build/sam_e70_xult/debug/_ext/1055488423/plib_pio.o
 .text.PIO_PortInputEnable
                0x0000000000000000        0x4 build/sam_e70_xult/debug/_ext/1055488423/plib_pio.o
 .text.PIO_PortOutputEnable
                0x0000000000000000        0x4 build/sam_e70_xult/debug/_ext/1055488423/plib_pio.o
 .text.PIO_PortInterruptDisable
                0x0000000000000000        0x4 build/sam_e70_xult/debug/_ext/1055488423/plib_pio.o
 .text          0x0000000000000000        0x0 build/sam_e70_xult/debug/_ext/1055487991/plib_pwm0.o
 .data          0x0000000000000000        0x0 build/sam_e70_xult/debug/_ext/1055487991/plib_pwm0.o
 .bss           0x0000000000000000        0x0 build/sam_e70_xult/debug/_ext/1055487991/plib_pwm0.o
 .text.PWM0_ChannelsStop
                0x0000000000000000        0xc build/sam_e70_xult/debug/_ext/1055487991/plib_pwm0.o
 .text.PWM0_ChannelPeriodSet
                0x0000000000000000        0xc build/sam_e70_xult/debug/_ext/1055487991/plib_pwm0.o
 .text.PWM0_ChannelPeriodGet
                0x0000000000000000       0x10 build/sam_e70_xult/debug/_ext/1055487991/plib_pwm0.o
 .text.PWM0_ChannelDeadTimeSet
                0x0000000000000000       0x10 build/sam_e70_xult/debug/_ext/1055487991/plib_pwm0.o
 .text.PWM0_CompareValueSet
                0x0000000000000000        0xc build/sam_e70_xult/debug/_ext/1055487991/plib_pwm0.o
 .text.PWM0_ChannelCounterEventEnable
                0x0000000000000000        0xc build/sam_e70_xult/debug/_ext/1055487991/plib_pwm0.o
 .text.PWM0_ChannelCounterEventDisable
                0x0000000000000000        0xc build/sam_e70_xult/debug/_ext/1055487991/plib_pwm0.o
 .text.PWM0_SyncUpdateEnable
                0x0000000000000000        0xc build/sam_e70_xult/debug/_ext/1055487991/plib_pwm0.o
 .text.PWM0_FaultStatusClear
                0x0000000000000000       0x10 build/sam_e70_xult/debug/_ext/1055487991/plib_pwm0.o
 .text.PWM0_ChannelOverrideEnable
                0x0000000000000000       0x2c build/sam_e70_xult/debug/_ext/1055487991/plib_pwm0.o
 .text.PWM0_ChannelOverrideDisable
                0x0000000000000000       0x24 build/sam_e70_xult/debug/_ext/1055487991/plib_pwm0.o
 .text.PWM0_CallbackRegister
                0x0000000000000000        0xc build/sam_e70_xult/debug/_ext/1055487991/plib_pwm0.o
 .text          0x0000000000000000        0x0 build/sam_e70_xult/debug/_ext/865331892/plib_tc3.o
 .data          0x0000000000000000        0x0 build/sam_e70_xult/debug/_ext/865331892/plib_tc3.o
 .bss           0x0000000000000000        0x0 build/sam_e70_xult/debug/_ext/865331892/plib_tc3.o
 .text.TC3_CH0_TimerPeriodGet
                0x0000000000000000        0xc build/sam_e70_xult/debug/_ext/865331892/plib_tc3.o
 .text          0x0000000000000000        0x0 build/sam_e70_xult/debug/_ext/1539215101/plib_twihs0_master.o
 .data          0x0000000000000000        0x0 build/sam_e70_xult/debug/_ext/1539215101/plib_twihs0_master.o
 .bss           0x0000000000000000        0x0 build/sam_e70_xult/debug/_ext/1539215101/plib_twihs0_master.o
 .text.TWIHS0_IsBusy
                0x0000000000000000       0x14 build/sam_e70_xult/debug/_ext/1539215101/plib_twihs0_master.o
 .text          0x0000000000000000        0x0 build/sam_e70_xult/debug/_ext/707186936/plib_usart1.o
 .data          0x0000000000000000        0x0 build/sam_e70_xult/debug/_ext/707186936/plib_usart1.o
 .bss           0x0000000000000000        0x0 build/sam_e70_xult/debug/_ext/707186936/plib_usart1.o
 .text          0x0000000000000000        0x0 build/sam_e70_xult/debug/_ext/707186936/plib_usart0.o
 .data          0x0000000000000000        0x0 build/sam_e70_xult/debug/_ext/707186936/plib_usart0.o
 .bss           0x0000000000000000        0x0 build/sam_e70_xult/debug/_ext/707186936/plib_usart0.o
 .text          0x0000000000000000        0x0 build/sam_e70_xult/debug/_ext/707186936/plib_usart2.o
 .data          0x0000000000000000        0x0 build/sam_e70_xult/debug/_ext/707186936/plib_usart2.o
 .bss           0x0000000000000000        0x0 build/sam_e70_xult/debug/_ext/707186936/plib_usart2.o
 .text          0x0000000000000000        0x0 build/sam_e70_xult/debug/_ext/704852250/plib_xdmac.o
 .data          0x0000000000000000        0x0 build/sam_e70_xult/debug/_ext/704852250/plib_xdmac.o
 .bss           0x0000000000000000        0x0 build/sam_e70_xult/debug/_ext/704852250/plib_xdmac.o
 .text.XDMAC_ChannelIsBusy
                0x0000000000000000       0x14 build/sam_e70_xult/debug/_ext/704852250/plib_xdmac.o
 .text.XDMAC_ChannelBlockLengthSet
                0x0000000000000000       0x14 build/sam_e70_xult/debug/_ext/704852250/plib_xdmac.o
 .text.XDMAC_ChannelSuspend
                0x0000000000000000       0x10 build/sam_e70_xult/debug/_ext/704852250/plib_xdmac.o
 .text.XDMAC_ChannelResume
                0x0000000000000000       0x10 build/sam_e70_xult/debug/_ext/704852250/plib_xdmac.o
 .text          0x0000000000000000        0x0 build/sam_e70_xult/debug/_ext/1518761459/xc32_monitor.o
 .data          0x0000000000000000        0x0 build/sam_e70_xult/debug/_ext/1518761459/xc32_monitor.o
 .bss           0x0000000000000000        0x0 build/sam_e70_xult/debug/_ext/1518761459/xc32_monitor.o
 .text._mon_getc
                0x0000000000000000        0x4 build/sam_e70_xult/debug/_ext/1518761459/xc32_monitor.o
 .text._mon_putc
                0x0000000000000000        0x2 build/sam_e70_xult/debug/_ext/1518761459/xc32_monitor.o
 .debug_info    0x0000000000000000      0x2d8 build/sam_e70_xult/debug/_ext/1518761459/xc32_monitor.o
 .debug_abbrev  0x0000000000000000       0x75 build/sam_e70_xult/debug/_ext/1518761459/xc32_monitor.o
 .debug_loc     0x0000000000000000       0x21 build/sam_e70_xult/debug/_ext/1518761459/xc32_monitor.o
 .debug_aranges
                0x0000000000000000       0x28 build/sam_e70_xult/debug/_ext/1518761459/xc32_monitor.o
 .debug_ranges  0x0000000000000000       0x18 build/sam_e70_xult/debug/_ext/1518761459/xc32_monitor.o
 .debug_line    0x0000000000000000       0x6f build/sam_e70_xult/debug/_ext/1518761459/xc32_monitor.o
 .debug_str     0x0000000000000000        0x0 build/sam_e70_xult/debug/_ext/1518761459/xc32_monitor.o
 .comment       0x0000000000000000       0x3d build/sam_e70_xult/debug/_ext/1518761459/xc32_monitor.o
 .debug_frame   0x0000000000000000       0x30 build/sam_e70_xult/debug/_ext/1518761459/xc32_monitor.o
 .ARM.attributes
                0x0000000000000000       0x37 build/sam_e70_xult/debug/_ext/1518761459/xc32_monitor.o
 .text          0x0000000000000000        0x0 build/sam_e70_xult/debug/_ext/876653320/sys_cache.o
 .data          0x0000000000000000        0x0 build/sam_e70_xult/debug/_ext/876653320/sys_cache.o
 .bss           0x0000000000000000        0x0 build/sam_e70_xult/debug/_ext/876653320/sys_cache.o
 .text.SYS_CACHE_EnableCaches
                0x0000000000000000       0xbc build/sam_e70_xult/debug/_ext/876653320/sys_cache.o
 .text.SYS_CACHE_DisableCaches
                0x0000000000000000       0x9c build/sam_e70_xult/debug/_ext/876653320/sys_cache.o
 .text.SYS_CACHE_EnableICache
                0x0000000000000000       0x44 build/sam_e70_xult/debug/_ext/876653320/sys_cache.o
 .text.SYS_CACHE_DisableICache
                0x0000000000000000       0x30 build/sam_e70_xult/debug/_ext/876653320/sys_cache.o
 .text.SYS_CACHE_InvalidateICache
                0x0000000000000000       0x28 build/sam_e70_xult/debug/_ext/876653320/sys_cache.o
 .text.SYS_CACHE_EnableDCache
                0x0000000000000000       0x80 build/sam_e70_xult/debug/_ext/876653320/sys_cache.o
 .text.SYS_CACHE_DisableDCache
                0x0000000000000000       0x74 build/sam_e70_xult/debug/_ext/876653320/sys_cache.o
 .text.SYS_CACHE_InvalidateDCache
                0x0000000000000000       0x68 build/sam_e70_xult/debug/_ext/876653320/sys_cache.o
 .text.SYS_CACHE_CleanDCache
                0x0000000000000000       0x68 build/sam_e70_xult/debug/_ext/876653320/sys_cache.o
 .text.SYS_CACHE_CleanInvalidateDCache
                0x0000000000000000       0x68 build/sam_e70_xult/debug/_ext/876653320/sys_cache.o
 .text.SYS_CACHE_CleanInvalidateDCache_by_Addr
                0x0000000000000000       0x38 build/sam_e70_xult/debug/_ext/876653320/sys_cache.o
 .text          0x0000000000000000        0x0 build/sam_e70_xult/debug/_ext/984150034/sys_dma.o
 .data          0x0000000000000000        0x0 build/sam_e70_xult/debug/_ext/984150034/sys_dma.o
 .bss           0x0000000000000000        0x0 build/sam_e70_xult/debug/_ext/984150034/sys_dma.o
 .text.SYS_DMA_AddressingModeSetup
                0x0000000000000000       0x1e build/sam_e70_xult/debug/_ext/984150034/sys_dma.o
 .text          0x0000000000000000        0x0 build/sam_e70_xult/debug/_ext/1043829778/ff.o
 .data          0x0000000000000000        0x0 build/sam_e70_xult/debug/_ext/1043829778/ff.o
 .bss           0x0000000000000000        0x0 build/sam_e70_xult/debug/_ext/1043829778/ff.o
 .text          0x0000000000000000        0x0 build/sam_e70_xult/debug/_ext/1043829778/ffunicode.o
 .data          0x0000000000000000        0x0 build/sam_e70_xult/debug/_ext/1043829778/ffunicode.o
 .bss           0x0000000000000000        0x0 build/sam_e70_xult/debug/_ext/1043829778/ffunicode.o
 .text          0x0000000000000000        0x0 build/sam_e70_xult/debug/_ext/1893760823/diskio.o
 .data          0x0000000000000000        0x0 build/sam_e70_xult/debug/_ext/1893760823/diskio.o
 .bss           0x0000000000000000        0x0 build/sam_e70_xult/debug/_ext/1893760823/diskio.o
 .text          0x0000000000000000        0x0 build/sam_e70_xult/debug/_ext/1305476372/sys_fs.o
 .data          0x0000000000000000        0x0 build/sam_e70_xult/debug/_ext/1305476372/sys_fs.o
 .bss           0x0000000000000000        0x0 build/sam_e70_xult/debug/_ext/1305476372/sys_fs.o
 .text.SYS_FS_GetDisk
                0x0000000000000000       0xcc build/sam_e70_xult/debug/_ext/1305476372/sys_fs.o
 .text.SYS_FS_Mount
                0x0000000000000000      0x1a0 build/sam_e70_xult/debug/_ext/1305476372/sys_fs.o
 .text.SYS_FS_Unmount
                0x0000000000000000      0x100 build/sam_e70_xult/debug/_ext/1305476372/sys_fs.o
 .text.SYS_FS_FileOpen
                0x0000000000000000      0x128 build/sam_e70_xult/debug/_ext/1305476372/sys_fs.o
 .text.SYS_FS_FileClose
                0x0000000000000000       0x7c build/sam_e70_xult/debug/_ext/1305476372/sys_fs.o
 .text.SYS_FS_FileNameGet
                0x0000000000000000       0x58 build/sam_e70_xult/debug/_ext/1305476372/sys_fs.o
 .text.SYS_FS_FileRead
                0x0000000000000000       0x88 build/sam_e70_xult/debug/_ext/1305476372/sys_fs.o
 .text.SYS_FS_FileSeek
                0x0000000000000000       0xdc build/sam_e70_xult/debug/_ext/1305476372/sys_fs.o
 .text.SYS_FS_FileTell
                0x0000000000000000       0x7c build/sam_e70_xult/debug/_ext/1305476372/sys_fs.o
 .text.SYS_FS_FileSize
                0x0000000000000000       0x7c build/sam_e70_xult/debug/_ext/1305476372/sys_fs.o
 .text.SYS_FS_FileEOF
                0x0000000000000000       0x68 build/sam_e70_xult/debug/_ext/1305476372/sys_fs.o
 .text.SYS_FS_FileStat
                0x0000000000000000       0x9c build/sam_e70_xult/debug/_ext/1305476372/sys_fs.o
 .text.SYS_FS_Error
                0x0000000000000000        0xc build/sam_e70_xult/debug/_ext/1305476372/sys_fs.o
 .text.SYS_FS_FileError
                0x0000000000000000       0x16 build/sam_e70_xult/debug/_ext/1305476372/sys_fs.o
 .text.SYS_FS_DirOpen
                0x0000000000000000       0xe4 build/sam_e70_xult/debug/_ext/1305476372/sys_fs.o
 .text.SYS_FS_DirClose
                0x0000000000000000       0x7c build/sam_e70_xult/debug/_ext/1305476372/sys_fs.o
 .text.SYS_FS_DirRead
                0x0000000000000000       0x80 build/sam_e70_xult/debug/_ext/1305476372/sys_fs.o
 .text.SYS_FS_DirRewind
                0x0000000000000000       0x78 build/sam_e70_xult/debug/_ext/1305476372/sys_fs.o
 .text.SYS_FS_DirSearch
                0x0000000000000000      0x158 build/sam_e70_xult/debug/_ext/1305476372/sys_fs.o
 .text.SYS_FS_FileStringGet
                0x0000000000000000       0x9c build/sam_e70_xult/debug/_ext/1305476372/sys_fs.o
 .text.SYS_FS_DirectoryChange
                0x0000000000000000       0x94 build/sam_e70_xult/debug/_ext/1305476372/sys_fs.o
 .text.SYS_FS_CurrentWorkingDirectoryGet
                0x0000000000000000      0x124 build/sam_e70_xult/debug/_ext/1305476372/sys_fs.o
 .text.SYS_FS_CurrentDriveGet
                0x0000000000000000       0x4c build/sam_e70_xult/debug/_ext/1305476372/sys_fs.o
 .text.SYS_FS_DriveLabelGet
                0x0000000000000000       0xb4 build/sam_e70_xult/debug/_ext/1305476372/sys_fs.o
 .text.SYS_FS_FileWrite
                0x0000000000000000       0x8c build/sam_e70_xult/debug/_ext/1305476372/sys_fs.o
 .text.SYS_FS_FileSync
                0x0000000000000000       0x78 build/sam_e70_xult/debug/_ext/1305476372/sys_fs.o
 .text.SYS_FS_FileTruncate
                0x0000000000000000       0x70 build/sam_e70_xult/debug/_ext/1305476372/sys_fs.o
 .text.SYS_FS_FileCharacterPut
                0x0000000000000000       0x80 build/sam_e70_xult/debug/_ext/1305476372/sys_fs.o
 .text.SYS_FS_FileStringPut
                0x0000000000000000       0x88 build/sam_e70_xult/debug/_ext/1305476372/sys_fs.o
 .text.SYS_FS_FilePrintf
                0x0000000000000000       0x9c build/sam_e70_xult/debug/_ext/1305476372/sys_fs.o
 .text.SYS_FS_FileTestError
                0x0000000000000000       0x68 build/sam_e70_xult/debug/_ext/1305476372/sys_fs.o
 .text.SYS_FS_DirectoryMake
                0x0000000000000000       0x94 build/sam_e70_xult/debug/_ext/1305476372/sys_fs.o
 .text.SYS_FS_FileDirectoryRemove
                0x0000000000000000       0x94 build/sam_e70_xult/debug/_ext/1305476372/sys_fs.o
 .text.SYS_FS_FileDirectoryModeSet
                0x0000000000000000       0x9c build/sam_e70_xult/debug/_ext/1305476372/sys_fs.o
 .text.SYS_FS_FileDirectoryTimeSet
                0x0000000000000000       0xac build/sam_e70_xult/debug/_ext/1305476372/sys_fs.o
 .text.SYS_FS_FileDirectoryRenameMove
                0x0000000000000000       0xbc build/sam_e70_xult/debug/_ext/1305476372/sys_fs.o
 .text.SYS_FS_CurrentDriveSet
                0x0000000000000000       0xac build/sam_e70_xult/debug/_ext/1305476372/sys_fs.o
 .text.SYS_FS_DriveLabelSet
                0x0000000000000000       0xc0 build/sam_e70_xult/debug/_ext/1305476372/sys_fs.o
 .text.SYS_FS_DriveFormat
                0x0000000000000000       0x80 build/sam_e70_xult/debug/_ext/1305476372/sys_fs.o
 .text.SYS_FS_DrivePartition
                0x0000000000000000       0x84 build/sam_e70_xult/debug/_ext/1305476372/sys_fs.o
 .text.SYS_FS_DriveSectorGet
                0x0000000000000000       0xc0 build/sam_e70_xult/debug/_ext/1305476372/sys_fs.o
 .rodata        0x0000000000000000        0x8 build/sam_e70_xult/debug/_ext/1305476372/sys_fs.o
 .text          0x0000000000000000        0x0 build/sam_e70_xult/debug/_ext/1305476372/sys_fs_media_manager.o
 .data          0x0000000000000000        0x0 build/sam_e70_xult/debug/_ext/1305476372/sys_fs_media_manager.o
 .bss           0x0000000000000000        0x0 build/sam_e70_xult/debug/_ext/1305476372/sys_fs_media_manager.o
 .text.SYS_FS_MEDIA_MANAGER_DeRegister
                0x0000000000000000        0xc build/sam_e70_xult/debug/_ext/1305476372/sys_fs_media_manager.o
 .text.SYS_FS_MEDIA_MANAGER_Read
                0x0000000000000000       0x50 build/sam_e70_xult/debug/_ext/1305476372/sys_fs_media_manager.o
 .text.SYS_FS_MEDIA_MANAGER_AddressGet
                0x0000000000000000       0x1c build/sam_e70_xult/debug/_ext/1305476372/sys_fs_media_manager.o
 .text.SYS_FS_MEDIA_MANAGER_CommandStatusGet
                0x0000000000000000       0x28 build/sam_e70_xult/debug/_ext/1305476372/sys_fs_media_manager.o
 .text.SYS_FS_MEDIA_MANAGER_MediaStatusGet
                0x0000000000000000       0x5c build/sam_e70_xult/debug/_ext/1305476372/sys_fs_media_manager.o
 .text.SYS_FS_MEDIA_MANAGER_VolumePropertyGet
                0x0000000000000000       0x38 build/sam_e70_xult/debug/_ext/1305476372/sys_fs_media_manager.o
 .text          0x0000000000000000        0x0 build/sam_e70_xult/debug/_ext/1305476372/sys_fs_fat_interface.o
 .data          0x0000000000000000        0x0 build/sam_e70_xult/debug/_ext/1305476372/sys_fs_fat_interface.o
 .bss           0x0000000000000000        0x0 build/sam_e70_xult/debug/_ext/1305476372/sys_fs_fat_interface.o
 .text.FATFS_getfree
                0x0000000000000000        0x8 build/sam_e70_xult/debug/_ext/1305476372/sys_fs_fat_interface.o
 .text          0x0000000000000000        0x0 build/sam_e70_xult/debug/_ext/766002106/sys_int.o
 .data          0x0000000000000000        0x0 build/sam_e70_xult/debug/_ext/766002106/sys_int.o
 .bss           0x0000000000000000        0x0 build/sam_e70_xult/debug/_ext/766002106/sys_int.o
 .text.SYS_INT_Enable
                0x0000000000000000        0x8 build/sam_e70_xult/debug/_ext/766002106/sys_int.o
 .text.SYS_INT_SourceRestore
                0x0000000000000000       0x20 build/sam_e70_xult/debug/_ext/766002106/sys_int.o
 .text          0x0000000000000000        0x0 build/sam_e70_xult/debug/_ext/327803284/sys_time.o
 .data          0x0000000000000000        0x0 build/sam_e70_xult/debug/_ext/327803284/sys_time.o
 .bss           0x0000000000000000        0x0 build/sam_e70_xult/debug/_ext/327803284/sys_time.o
 .text.SYS_TIME_Deinitialize
                0x0000000000000000       0x30 build/sam_e70_xult/debug/_ext/327803284/sys_time.o
 .text.SYS_TIME_Status
                0x0000000000000000       0x14 build/sam_e70_xult/debug/_ext/327803284/sys_time.o
 .text.SYS_TIME_FrequencyGet
                0x0000000000000000        0xc build/sam_e70_xult/debug/_ext/327803284/sys_time.o
 .text.SYS_TIME_Counter64Get
                0x0000000000000000       0x3c build/sam_e70_xult/debug/_ext/327803284/sys_time.o
 .text.SYS_TIME_CounterGet
                0x0000000000000000        0x8 build/sam_e70_xult/debug/_ext/327803284/sys_time.o
 .text.SYS_TIME_CounterSet
                0x0000000000000000       0x20 build/sam_e70_xult/debug/_ext/327803284/sys_time.o
 .text.SYS_TIME_CountToUS
                0x0000000000000000       0x40 build/sam_e70_xult/debug/_ext/327803284/sys_time.o
 .text.SYS_TIME_CountToMS
                0x0000000000000000       0x3c build/sam_e70_xult/debug/_ext/327803284/sys_time.o
 .text.SYS_TIME_USToCount
                0x0000000000000000       0x1c build/sam_e70_xult/debug/_ext/327803284/sys_time.o
 .text.SYS_TIME_MSToCount
                0x0000000000000000       0x1c build/sam_e70_xult/debug/_ext/327803284/sys_time.o
 .text.SYS_TIME_TimerCreate
                0x0000000000000000       0x1c build/sam_e70_xult/debug/_ext/327803284/sys_time.o
 .text.SYS_TIME_TimerReload
                0x0000000000000000       0x8c build/sam_e70_xult/debug/_ext/327803284/sys_time.o
 .text.SYS_TIME_TimerStop
                0x0000000000000000       0x3c build/sam_e70_xult/debug/_ext/327803284/sys_time.o
 .text.SYS_TIME_TimerCounterGet
                0x0000000000000000       0x80 build/sam_e70_xult/debug/_ext/327803284/sys_time.o
 .text.SYS_TIME_DelayUS
                0x0000000000000000       0x50 build/sam_e70_xult/debug/_ext/327803284/sys_time.o
 .text.SYS_TIME_CallbackRegisterUS
                0x0000000000000000       0x64 build/sam_e70_xult/debug/_ext/327803284/sys_time.o
 .text          0x0000000000000000        0x0 build/sam_e70_xult/debug/_ext/1728594169/initialization.o
 .data          0x0000000000000000        0x0 build/sam_e70_xult/debug/_ext/1728594169/initialization.o
 .bss           0x0000000000000000        0x0 build/sam_e70_xult/debug/_ext/1728594169/initialization.o
 .text          0x0000000000000000        0x0 build/sam_e70_xult/debug/_ext/1728594169/interrupts.o
 .data          0x0000000000000000        0x0 build/sam_e70_xult/debug/_ext/1728594169/interrupts.o
 .bss           0x0000000000000000        0x0 build/sam_e70_xult/debug/_ext/1728594169/interrupts.o
 .text          0x0000000000000000        0x0 build/sam_e70_xult/debug/_ext/1728594169/exceptions.o
 .data          0x0000000000000000        0x0 build/sam_e70_xult/debug/_ext/1728594169/exceptions.o
 .bss           0x0000000000000000        0x0 build/sam_e70_xult/debug/_ext/1728594169/exceptions.o
 .text          0x0000000000000000        0x0 build/sam_e70_xult/debug/_ext/1728594169/startup_xc32.o
 .data          0x0000000000000000        0x0 build/sam_e70_xult/debug/_ext/1728594169/startup_xc32.o
 .bss           0x0000000000000000        0x0 build/sam_e70_xult/debug/_ext/1728594169/startup_xc32.o
 .text          0x0000000000000000        0x0 build/sam_e70_xult/debug/_ext/1728594169/libc_syscalls.o
 .data          0x0000000000000000        0x0 build/sam_e70_xult/debug/_ext/1728594169/libc_syscalls.o
 .bss           0x0000000000000000        0x0 build/sam_e70_xult/debug/_ext/1728594169/libc_syscalls.o
 .text._exit    0x0000000000000000        0x4 build/sam_e70_xult/debug/_ext/1728594169/libc_syscalls.o
 .debug_info    0x0000000000000000      0xef1 build/sam_e70_xult/debug/_ext/1728594169/libc_syscalls.o
 .debug_abbrev  0x0000000000000000      0x1a8 build/sam_e70_xult/debug/_ext/1728594169/libc_syscalls.o
 .debug_aranges
                0x0000000000000000       0x20 build/sam_e70_xult/debug/_ext/1728594169/libc_syscalls.o
 .debug_ranges  0x0000000000000000       0x10 build/sam_e70_xult/debug/_ext/1728594169/libc_syscalls.o
 .debug_line    0x0000000000000000      0x1d5 build/sam_e70_xult/debug/_ext/1728594169/libc_syscalls.o
 .debug_str     0x0000000000000000        0xe build/sam_e70_xult/debug/_ext/1728594169/libc_syscalls.o
 .comment       0x0000000000000000       0x3d build/sam_e70_xult/debug/_ext/1728594169/libc_syscalls.o
 .debug_frame   0x0000000000000000       0x20 build/sam_e70_xult/debug/_ext/1728594169/libc_syscalls.o
 .ARM.attributes
                0x0000000000000000       0x37 build/sam_e70_xult/debug/_ext/1728594169/libc_syscalls.o
 .text          0x0000000000000000        0x0 build/sam_e70_xult/debug/_ext/1728594169/freertos_hooks.o
 .data          0x0000000000000000        0x0 build/sam_e70_xult/debug/_ext/1728594169/freertos_hooks.o
 .bss           0x0000000000000000        0x0 build/sam_e70_xult/debug/_ext/1728594169/freertos_hooks.o
 .text.vApplicationIdleHook
                0x0000000000000000        0x2 build/sam_e70_xult/debug/_ext/1728594169/freertos_hooks.o
 .text.vApplicationTickHook
                0x0000000000000000        0x2 build/sam_e70_xult/debug/_ext/1728594169/freertos_hooks.o
 .text.vAssertCalled
                0x0000000000000000       0x1c build/sam_e70_xult/debug/_ext/1728594169/freertos_hooks.o
 .text          0x0000000000000000        0x0 build/sam_e70_xult/debug/_ext/1728594169/tasks.o
 .data          0x0000000000000000        0x0 build/sam_e70_xult/debug/_ext/1728594169/tasks.o
 .bss           0x0000000000000000        0x0 build/sam_e70_xult/debug/_ext/1728594169/tasks.o
 .text          0x0000000000000000        0x0 build/sam_e70_xult/debug/_ext/977623654/port.o
 .data          0x0000000000000000        0x0 build/sam_e70_xult/debug/_ext/977623654/port.o
 .bss           0x0000000000000000        0x0 build/sam_e70_xult/debug/_ext/977623654/port.o
 .text.vPortEndScheduler
                0x0000000000000000        0x2 build/sam_e70_xult/debug/_ext/977623654/port.o
 .text          0x0000000000000000        0x0 build/sam_e70_xult/debug/_ext/1665200909/heap_1.o
 .data          0x0000000000000000        0x0 build/sam_e70_xult/debug/_ext/1665200909/heap_1.o
 .bss           0x0000000000000000        0x0 build/sam_e70_xult/debug/_ext/1665200909/heap_1.o
 .text.vPortInitialiseBlocks
                0x0000000000000000        0xc build/sam_e70_xult/debug/_ext/1665200909/heap_1.o
 .text.xPortGetFreeHeapSize
                0x0000000000000000       0x10 build/sam_e70_xult/debug/_ext/1665200909/heap_1.o
 .text          0x0000000000000000        0x0 build/sam_e70_xult/debug/_ext/404212886/croutine.o
 .data          0x0000000000000000        0x0 build/sam_e70_xult/debug/_ext/404212886/croutine.o
 .bss           0x0000000000000000        0x0 build/sam_e70_xult/debug/_ext/404212886/croutine.o
 .debug_info    0x0000000000000000      0x326 build/sam_e70_xult/debug/_ext/404212886/croutine.o
 .debug_abbrev  0x0000000000000000       0x1b build/sam_e70_xult/debug/_ext/404212886/croutine.o
 .debug_aranges
                0x0000000000000000       0x18 build/sam_e70_xult/debug/_ext/404212886/croutine.o
 .debug_line    0x0000000000000000       0x1d build/sam_e70_xult/debug/_ext/404212886/croutine.o
 .debug_str     0x0000000000000000        0x0 build/sam_e70_xult/debug/_ext/404212886/croutine.o
 .comment       0x0000000000000000       0x3d build/sam_e70_xult/debug/_ext/404212886/croutine.o
 .ARM.attributes
                0x0000000000000000       0x37 build/sam_e70_xult/debug/_ext/404212886/croutine.o
 .text          0x0000000000000000        0x0 build/sam_e70_xult/debug/_ext/404212886/list.o
 .data          0x0000000000000000        0x0 build/sam_e70_xult/debug/_ext/404212886/list.o
 .bss           0x0000000000000000        0x0 build/sam_e70_xult/debug/_ext/404212886/list.o
 .text          0x0000000000000000        0x0 build/sam_e70_xult/debug/_ext/404212886/queue.o
 .data          0x0000000000000000        0x0 build/sam_e70_xult/debug/_ext/404212886/queue.o
 .bss           0x0000000000000000        0x0 build/sam_e70_xult/debug/_ext/404212886/queue.o
 .text.prvCopyDataFromQueue
                0x0000000000000000       0x24 build/sam_e70_xult/debug/_ext/404212886/queue.o
 .text.xQueueGenericSendFromISR
                0x0000000000000000       0x70 build/sam_e70_xult/debug/_ext/404212886/queue.o
 .text.xQueueReceive
                0x0000000000000000      0x114 build/sam_e70_xult/debug/_ext/404212886/queue.o
 .text.xQueuePeek
                0x0000000000000000      0x110 build/sam_e70_xult/debug/_ext/404212886/queue.o
 .text.xQueueReceiveFromISR
                0x0000000000000000       0x72 build/sam_e70_xult/debug/_ext/404212886/queue.o
 .text.xQueuePeekFromISR
                0x0000000000000000       0x34 build/sam_e70_xult/debug/_ext/404212886/queue.o
 .text.uxQueueMessagesWaiting
                0x0000000000000000       0x12 build/sam_e70_xult/debug/_ext/404212886/queue.o
 .text.uxQueueSpacesAvailable
                0x0000000000000000       0x16 build/sam_e70_xult/debug/_ext/404212886/queue.o
 .text.uxQueueMessagesWaitingFromISR
                0x0000000000000000        0x4 build/sam_e70_xult/debug/_ext/404212886/queue.o
 .text.vQueueDelete
                0x0000000000000000        0x8 build/sam_e70_xult/debug/_ext/404212886/queue.o
 .text.xQueueIsQueueEmptyFromISR
                0x0000000000000000        0xa build/sam_e70_xult/debug/_ext/404212886/queue.o
 .text.xQueueIsQueueFullFromISR
                0x0000000000000000        0xe build/sam_e70_xult/debug/_ext/404212886/queue.o
 .text          0x0000000000000000        0x0 build/sam_e70_xult/debug/_ext/404212886/FreeRTOS_tasks.o
 .data          0x0000000000000000        0x0 build/sam_e70_xult/debug/_ext/404212886/FreeRTOS_tasks.o
 .bss           0x0000000000000000        0x0 build/sam_e70_xult/debug/_ext/404212886/FreeRTOS_tasks.o
 .text.vTaskDelete
                0x0000000000000000       0xcc build/sam_e70_xult/debug/_ext/404212886/FreeRTOS_tasks.o
 .text.uxTaskPriorityGet
                0x0000000000000000       0x20 build/sam_e70_xult/debug/_ext/404212886/FreeRTOS_tasks.o
 .text.uxTaskPriorityGetFromISR
                0x0000000000000000       0x2c build/sam_e70_xult/debug/_ext/404212886/FreeRTOS_tasks.o
 .text.vTaskPrioritySet
                0x0000000000000000       0xd0 build/sam_e70_xult/debug/_ext/404212886/FreeRTOS_tasks.o
 .text.vTaskResume
                0x0000000000000000       0x88 build/sam_e70_xult/debug/_ext/404212886/FreeRTOS_tasks.o
 .text.vTaskEndScheduler
                0x0000000000000000       0x28 build/sam_e70_xult/debug/_ext/404212886/FreeRTOS_tasks.o
 .text.xTaskGetTickCount
                0x0000000000000000        0xc build/sam_e70_xult/debug/_ext/404212886/FreeRTOS_tasks.o
 .text.xTaskGetTickCountFromISR
                0x0000000000000000        0xc build/sam_e70_xult/debug/_ext/404212886/FreeRTOS_tasks.o
 .text.uxTaskGetNumberOfTasks
                0x0000000000000000        0xc build/sam_e70_xult/debug/_ext/404212886/FreeRTOS_tasks.o
 .text.pcTaskGetName
                0x0000000000000000       0x14 build/sam_e70_xult/debug/_ext/404212886/FreeRTOS_tasks.o
 .text.vTaskDelayUntil
                0x0000000000000000       0x68 build/sam_e70_xult/debug/_ext/404212886/FreeRTOS_tasks.o
 .text.xTaskCatchUpTicks
                0x0000000000000000       0x1c build/sam_e70_xult/debug/_ext/404212886/FreeRTOS_tasks.o
 .text.vTaskSuspend
                0x0000000000000000       0xd0 build/sam_e70_xult/debug/_ext/404212886/FreeRTOS_tasks.o
 .text.vTaskPlaceOnUnorderedEventList
                0x0000000000000000       0x24 build/sam_e70_xult/debug/_ext/404212886/FreeRTOS_tasks.o
 .text.vTaskRemoveFromUnorderedEventList
                0x0000000000000000       0x58 build/sam_e70_xult/debug/_ext/404212886/FreeRTOS_tasks.o
 .text.vTaskSetTimeOutState
                0x0000000000000000       0x24 build/sam_e70_xult/debug/_ext/404212886/FreeRTOS_tasks.o
 .text.xTaskGetCurrentTaskHandle
                0x0000000000000000        0xc build/sam_e70_xult/debug/_ext/404212886/FreeRTOS_tasks.o
 .text.uxTaskResetEventItemValue
                0x0000000000000000       0x18 build/sam_e70_xult/debug/_ext/404212886/FreeRTOS_tasks.o
 .text.ulTaskNotifyTake
                0x0000000000000000       0x78 build/sam_e70_xult/debug/_ext/404212886/FreeRTOS_tasks.o
 .text.xTaskNotifyWait
                0x0000000000000000       0x98 build/sam_e70_xult/debug/_ext/404212886/FreeRTOS_tasks.o
 .text.xTaskGenericNotify
                0x0000000000000000       0xb4 build/sam_e70_xult/debug/_ext/404212886/FreeRTOS_tasks.o
 .text.xTaskGenericNotifyFromISR
                0x0000000000000000       0xd8 build/sam_e70_xult/debug/_ext/404212886/FreeRTOS_tasks.o
 .text.vTaskNotifyGiveFromISR
                0x0000000000000000       0xa4 build/sam_e70_xult/debug/_ext/404212886/FreeRTOS_tasks.o
 .text.xTaskNotifyStateClear
                0x0000000000000000       0x34 build/sam_e70_xult/debug/_ext/404212886/FreeRTOS_tasks.o
 .text.ulTaskNotifyValueClear
                0x0000000000000000       0x2c build/sam_e70_xult/debug/_ext/404212886/FreeRTOS_tasks.o
 .text          0x0000000000000000        0x0 build/sam_e70_xult/debug/_ext/404212886/timers.o
 .data          0x0000000000000000        0x0 build/sam_e70_xult/debug/_ext/404212886/timers.o
 .bss           0x0000000000000000        0x0 build/sam_e70_xult/debug/_ext/404212886/timers.o
 .debug_info    0x0000000000000000      0xe52 build/sam_e70_xult/debug/_ext/404212886/timers.o
 .debug_abbrev  0x0000000000000000      0x171 build/sam_e70_xult/debug/_ext/404212886/timers.o
 .debug_aranges
                0x0000000000000000       0x18 build/sam_e70_xult/debug/_ext/404212886/timers.o
 .debug_line    0x0000000000000000      0x107 build/sam_e70_xult/debug/_ext/404212886/timers.o
 .debug_str     0x0000000000000000        0xe build/sam_e70_xult/debug/_ext/404212886/timers.o
 .comment       0x0000000000000000       0x3d build/sam_e70_xult/debug/_ext/404212886/timers.o
 .ARM.attributes
                0x0000000000000000       0x37 build/sam_e70_xult/debug/_ext/404212886/timers.o
 .text          0x0000000000000000        0x0 build/sam_e70_xult/debug/_ext/404212886/event_groups.o
 .data          0x0000000000000000        0x0 build/sam_e70_xult/debug/_ext/404212886/event_groups.o
 .bss           0x0000000000000000        0x0 build/sam_e70_xult/debug/_ext/404212886/event_groups.o
 .text.xEventGroupCreate
                0x0000000000000000       0x1a build/sam_e70_xult/debug/_ext/404212886/event_groups.o
 .text.xEventGroupWaitBits
                0x0000000000000000       0xc0 build/sam_e70_xult/debug/_ext/404212886/event_groups.o
 .text.xEventGroupClearBits
                0x0000000000000000       0x1a build/sam_e70_xult/debug/_ext/404212886/event_groups.o
 .text.xEventGroupGetBitsFromISR
                0x0000000000000000       0x20 build/sam_e70_xult/debug/_ext/404212886/event_groups.o
 .text.xEventGroupSetBits
                0x0000000000000000       0x74 build/sam_e70_xult/debug/_ext/404212886/event_groups.o
 .text.xEventGroupSync
                0x0000000000000000       0x94 build/sam_e70_xult/debug/_ext/404212886/event_groups.o
 .text.vEventGroupDelete
                0x0000000000000000       0x2a build/sam_e70_xult/debug/_ext/404212886/event_groups.o
 .text.vEventGroupSetBitsCallback
                0x0000000000000000        0x8 build/sam_e70_xult/debug/_ext/404212886/event_groups.o
 .text.vEventGroupClearBitsCallback
                0x0000000000000000        0x8 build/sam_e70_xult/debug/_ext/404212886/event_groups.o
 .debug_info    0x0000000000000000     0x1977 build/sam_e70_xult/debug/_ext/404212886/event_groups.o
 .debug_abbrev  0x0000000000000000      0x3a8 build/sam_e70_xult/debug/_ext/404212886/event_groups.o
 .debug_loc     0x0000000000000000      0x921 build/sam_e70_xult/debug/_ext/404212886/event_groups.o
 .debug_aranges
                0x0000000000000000       0x60 build/sam_e70_xult/debug/_ext/404212886/event_groups.o
 .debug_ranges  0x0000000000000000       0x98 build/sam_e70_xult/debug/_ext/404212886/event_groups.o
 .debug_line    0x0000000000000000      0x3af build/sam_e70_xult/debug/_ext/404212886/event_groups.o
 .debug_str     0x0000000000000000      0x1ba build/sam_e70_xult/debug/_ext/404212886/event_groups.o
 .comment       0x0000000000000000       0x3d build/sam_e70_xult/debug/_ext/404212886/event_groups.o
 .debug_frame   0x0000000000000000      0x100 build/sam_e70_xult/debug/_ext/404212886/event_groups.o
 .ARM.attributes
                0x0000000000000000       0x37 build/sam_e70_xult/debug/_ext/404212886/event_groups.o
 .text          0x0000000000000000        0x0 build/sam_e70_xult/debug/_ext/404212886/stream_buffer.o
 .data          0x0000000000000000        0x0 build/sam_e70_xult/debug/_ext/404212886/stream_buffer.o
 .bss           0x0000000000000000        0x0 build/sam_e70_xult/debug/_ext/404212886/stream_buffer.o
 .text.prvBytesInBuffer
                0x0000000000000000       0x12 build/sam_e70_xult/debug/_ext/404212886/stream_buffer.o
 .text.prvWriteBytesToBuffer
                0x0000000000000000       0x44 build/sam_e70_xult/debug/_ext/404212886/stream_buffer.o
 .text.prvWriteMessageToBuffer
                0x0000000000000000       0x44 build/sam_e70_xult/debug/_ext/404212886/stream_buffer.o
 .text.prvReadBytesFromBuffer
                0x0000000000000000       0x50 build/sam_e70_xult/debug/_ext/404212886/stream_buffer.o
 .text.xStreamBufferGenericCreate
                0x0000000000000000       0x34 build/sam_e70_xult/debug/_ext/404212886/stream_buffer.o
 .text.vStreamBufferDelete
                0x0000000000000000       0x1a build/sam_e70_xult/debug/_ext/404212886/stream_buffer.o
 .text.xStreamBufferReset
                0x0000000000000000       0x44 build/sam_e70_xult/debug/_ext/404212886/stream_buffer.o
 .text.xStreamBufferSetTriggerLevel
                0x0000000000000000       0x16 build/sam_e70_xult/debug/_ext/404212886/stream_buffer.o
 .text.xStreamBufferSpacesAvailable
                0x0000000000000000       0x14 build/sam_e70_xult/debug/_ext/404212886/stream_buffer.o
 .text.xStreamBufferBytesAvailable
                0x0000000000000000        0x8 build/sam_e70_xult/debug/_ext/404212886/stream_buffer.o
 .text.xStreamBufferSend
                0x0000000000000000       0xb8 build/sam_e70_xult/debug/_ext/404212886/stream_buffer.o
 .text.xStreamBufferSendFromISR
                0x0000000000000000       0x7a build/sam_e70_xult/debug/_ext/404212886/stream_buffer.o
 .text.xStreamBufferReceive
                0x0000000000000000       0xbe build/sam_e70_xult/debug/_ext/404212886/stream_buffer.o
 .text.xStreamBufferNextMessageLengthBytes
                0x0000000000000000       0x36 build/sam_e70_xult/debug/_ext/404212886/stream_buffer.o
 .text.xStreamBufferReceiveFromISR
                0x0000000000000000       0x9e build/sam_e70_xult/debug/_ext/404212886/stream_buffer.o
 .text.xStreamBufferIsEmpty
                0x0000000000000000        0xe build/sam_e70_xult/debug/_ext/404212886/stream_buffer.o
 .text.xStreamBufferIsFull
                0x0000000000000000       0x18 build/sam_e70_xult/debug/_ext/404212886/stream_buffer.o
 .text.xStreamBufferSendCompletedFromISR
                0x0000000000000000       0x42 build/sam_e70_xult/debug/_ext/404212886/stream_buffer.o
 .text.xStreamBufferReceiveCompletedFromISR
                0x0000000000000000       0x42 build/sam_e70_xult/debug/_ext/404212886/stream_buffer.o
 .debug_info    0x0000000000000000     0x2501 build/sam_e70_xult/debug/_ext/404212886/stream_buffer.o
 .debug_abbrev  0x0000000000000000      0x414 build/sam_e70_xult/debug/_ext/404212886/stream_buffer.o
 .debug_loc     0x0000000000000000     0x15c3 build/sam_e70_xult/debug/_ext/404212886/stream_buffer.o
 .debug_aranges
                0x0000000000000000       0xb0 build/sam_e70_xult/debug/_ext/404212886/stream_buffer.o
 .debug_ranges  0x0000000000000000       0xe8 build/sam_e70_xult/debug/_ext/404212886/stream_buffer.o
 .debug_line    0x0000000000000000      0x503 build/sam_e70_xult/debug/_ext/404212886/stream_buffer.o
 .debug_str     0x0000000000000000      0x242 build/sam_e70_xult/debug/_ext/404212886/stream_buffer.o
 .comment       0x0000000000000000       0x3d build/sam_e70_xult/debug/_ext/404212886/stream_buffer.o
 .debug_frame   0x0000000000000000      0x250 build/sam_e70_xult/debug/_ext/404212886/stream_buffer.o
 .ARM.attributes
                0x0000000000000000       0x37 build/sam_e70_xult/debug/_ext/404212886/stream_buffer.o
 .text          0x0000000000000000        0x0 build/sam_e70_xult/debug/_ext/1360937237/main.o
 .data          0x0000000000000000        0x0 build/sam_e70_xult/debug/_ext/1360937237/main.o
 .bss           0x0000000000000000        0x0 build/sam_e70_xult/debug/_ext/1360937237/main.o
 .text          0x0000000000000000        0x0 build/sam_e70_xult/debug/_ext/1360937237/app_communication.o
 .data          0x0000000000000000        0x0 build/sam_e70_xult/debug/_ext/1360937237/app_communication.o
 .bss           0x0000000000000000        0x0 build/sam_e70_xult/debug/_ext/1360937237/app_communication.o
 .text.find_char
                0x0000000000000000       0x30 build/sam_e70_xult/debug/_ext/1360937237/app_communication.o
 .bss.endptr    0x0000000000000000        0x4 build/sam_e70_xult/debug/_ext/1360937237/app_communication.o
 .bss.numbound  0x0000000000000000        0x4 build/sam_e70_xult/debug/_ext/1360937237/app_communication.o
 .bss.ptr       0x0000000000000000        0x4 build/sam_e70_xult/debug/_ext/1360937237/app_communication.o
 .bss.startptr  0x0000000000000000        0x4 build/sam_e70_xult/debug/_ext/1360937237/app_communication.o
 .bss.value     0x0000000000000000        0x8 build/sam_e70_xult/debug/_ext/1360937237/app_communication.o
 .data.test     0x0000000000000000        0xb build/sam_e70_xult/debug/_ext/1360937237/app_communication.o
 .data.test2    0x0000000000000000        0x9 build/sam_e70_xult/debug/_ext/1360937237/app_communication.o
 .text          0x0000000000000000        0x0 build/sam_e70_xult/debug/_ext/1360937237/app_mast_control.o
 .data          0x0000000000000000        0x0 build/sam_e70_xult/debug/_ext/1360937237/app_mast_control.o
 .bss           0x0000000000000000        0x0 build/sam_e70_xult/debug/_ext/1360937237/app_mast_control.o
 .text.CCW      0x0000000000000000       0x10 build/sam_e70_xult/debug/_ext/1360937237/app_mast_control.o
 .text.CW       0x0000000000000000       0x10 build/sam_e70_xult/debug/_ext/1360937237/app_mast_control.o
 .bss.sleep     0x0000000000000000        0x4 build/sam_e70_xult/debug/_ext/1360937237/app_mast_control.o
 .bss.startchange
                0x0000000000000000        0x1 build/sam_e70_xult/debug/_ext/1360937237/app_mast_control.o
 .text          0x0000000000000000        0x0 build/sam_e70_xult/debug/_ext/1360937237/app_course_algorithm.o
 .data          0x0000000000000000        0x0 build/sam_e70_xult/debug/_ext/1360937237/app_course_algorithm.o
 .bss           0x0000000000000000        0x0 build/sam_e70_xult/debug/_ext/1360937237/app_course_algorithm.o
 .data.allowed_rudder_wind_error
                0x0000000000000000        0x4 build/sam_e70_xult/debug/_ext/1360937237/app_course_algorithm.o
 .text          0x0000000000000000        0x0 build/sam_e70_xult/debug/_ext/1360937237/app_rudder_control.o
 .data          0x0000000000000000        0x0 build/sam_e70_xult/debug/_ext/1360937237/app_rudder_control.o
 .bss           0x0000000000000000        0x0 build/sam_e70_xult/debug/_ext/1360937237/app_rudder_control.o
 .bss.rudder_startchange
                0x0000000000000000        0x1 build/sam_e70_xult/debug/_ext/1360937237/app_rudder_control.o
 .data.wait     0x0000000000000000        0x4 build/sam_e70_xult/debug/_ext/1360937237/app_rudder_control.o
 .text          0x0000000000000000        0x0 build/sam_e70_xult/debug/_ext/1360937237/app_anemometer.o
 .data          0x0000000000000000        0x0 build/sam_e70_xult/debug/_ext/1360937237/app_anemometer.o
 .bss           0x0000000000000000        0x0 build/sam_e70_xult/debug/_ext/1360937237/app_anemometer.o
 .text.ParseField
                0x0000000000000000      0x158 build/sam_e70_xult/debug/_ext/1360937237/app_anemometer.o
 .text.Anem_Process
                0x0000000000000000       0x68 build/sam_e70_xult/debug/_ext/1360937237/app_anemometer.o
 .text.realtive_to_boat
                0x0000000000000000      0x1a0 build/sam_e70_xult/debug/_ext/1360937237/app_anemometer.o
 .bss.avg       0x0000000000000000        0x4 build/sam_e70_xult/debug/_ext/1360937237/app_anemometer.o
 .bss.count     0x0000000000000000        0x4 build/sam_e70_xult/debug/_ext/1360937237/app_anemometer.o
 .bss.wind_angle
                0x0000000000000000        0x4 build/sam_e70_xult/debug/_ext/1360937237/app_anemometer.o
 .data.avnum    0x0000000000000000        0x4 build/sam_e70_xult/debug/_ext/1360937237/app_anemometer.o
 .text          0x0000000000000000        0x0 build/sam_e70_xult/debug/_ext/1360937237/app_gps.o
 .data          0x0000000000000000        0x0 build/sam_e70_xult/debug/_ext/1360937237/app_gps.o
 .bss           0x0000000000000000        0x0 build/sam_e70_xult/debug/_ext/1360937237/app_gps.o
 .text          0x0000000000000000        0x0 build/sam_e70_xult/debug/_ext/1360937237/app_imu.o
 .data          0x0000000000000000        0x0 build/sam_e70_xult/debug/_ext/1360937237/app_imu.o
 .bss           0x0000000000000000        0x0 build/sam_e70_xult/debug/_ext/1360937237/app_imu.o
 .bss.heading   0x0000000000000000        0x4 build/sam_e70_xult/debug/_ext/1360937237/app_imu.o
 .text          0x0000000000000000        0x0 c:/program files/microchip/xc32/v2.50/bin/bin/../../lib/gcc/pic32c/6.2.1/../../../../pic32c/lib/v7e-m/fpv5/hard\libpic32c.a(data_init.o)
 .data          0x0000000000000000        0x0 c:/program files/microchip/xc32/v2.50/bin/bin/../../lib/gcc/pic32c/6.2.1/../../../../pic32c/lib/v7e-m/fpv5/hard\libpic32c.a(data_init.o)
 .bss           0x0000000000000000        0x0 c:/program files/microchip/xc32/v2.50/bin/bin/../../lib/gcc/pic32c/6.2.1/../../../../pic32c/lib/v7e-m/fpv5/hard\libpic32c.a(data_init.o)
 .data          0x0000000000000000        0x0 c:/program files/microchip/xc32/v2.50/bin/bin/../../lib/gcc/pic32c/6.2.1/v7e-m/fpv5/hard\libgcc.a(_aeabi_uldivmod.o)
 .bss           0x0000000000000000        0x0 c:/program files/microchip/xc32/v2.50/bin/bin/../../lib/gcc/pic32c/6.2.1/v7e-m/fpv5/hard\libgcc.a(_aeabi_uldivmod.o)
 .data          0x0000000000000000        0x0 c:/program files/microchip/xc32/v2.50/bin/bin/../../lib/gcc/pic32c/6.2.1/v7e-m/fpv5/hard\libgcc.a(_udivmoddi4.o)
 .bss           0x0000000000000000        0x0 c:/program files/microchip/xc32/v2.50/bin/bin/../../lib/gcc/pic32c/6.2.1/v7e-m/fpv5/hard\libgcc.a(_udivmoddi4.o)
 .ARM.extab     0x0000000000000000        0x0 c:/program files/microchip/xc32/v2.50/bin/bin/../../lib/gcc/pic32c/6.2.1/v7e-m/fpv5/hard\libgcc.a(_udivmoddi4.o)
 .data          0x0000000000000000        0x0 c:/program files/microchip/xc32/v2.50/bin/bin/../../lib/gcc/pic32c/6.2.1/v7e-m/fpv5/hard\libgcc.a(_dvmd_tls.o)
 .bss           0x0000000000000000        0x0 c:/program files/microchip/xc32/v2.50/bin/bin/../../lib/gcc/pic32c/6.2.1/v7e-m/fpv5/hard\libgcc.a(_dvmd_tls.o)
 .text          0x0000000000000000        0x0 c:/program files/microchip/xc32/v2.50/bin/bin/../../lib/gcc/pic32c/6.2.1/../../../../pic32c/lib/v7e-m/fpv5/hard\libg_nano.a(lib_a-atof.o)
 .data          0x0000000000000000        0x0 c:/program files/microchip/xc32/v2.50/bin/bin/../../lib/gcc/pic32c/6.2.1/../../../../pic32c/lib/v7e-m/fpv5/hard\libg_nano.a(lib_a-atof.o)
 .bss           0x0000000000000000        0x0 c:/program files/microchip/xc32/v2.50/bin/bin/../../lib/gcc/pic32c/6.2.1/../../../../pic32c/lib/v7e-m/fpv5/hard\libg_nano.a(lib_a-atof.o)
 .text          0x0000000000000000        0x0 c:/program files/microchip/xc32/v2.50/bin/bin/../../lib/gcc/pic32c/6.2.1/../../../../pic32c/lib/v7e-m/fpv5/hard\libg_nano.a(lib_a-atoi.o)
 .data          0x0000000000000000        0x0 c:/program files/microchip/xc32/v2.50/bin/bin/../../lib/gcc/pic32c/6.2.1/../../../../pic32c/lib/v7e-m/fpv5/hard\libg_nano.a(lib_a-atoi.o)
 .bss           0x0000000000000000        0x0 c:/program files/microchip/xc32/v2.50/bin/bin/../../lib/gcc/pic32c/6.2.1/../../../../pic32c/lib/v7e-m/fpv5/hard\libg_nano.a(lib_a-atoi.o)
 .text._atoi_r  0x0000000000000000        0x8 c:/program files/microchip/xc32/v2.50/bin/bin/../../lib/gcc/pic32c/6.2.1/../../../../pic32c/lib/v7e-m/fpv5/hard\libg_nano.a(lib_a-atoi.o)
 .text          0x0000000000000000        0x0 c:/program files/microchip/xc32/v2.50/bin/bin/../../lib/gcc/pic32c/6.2.1/../../../../pic32c/lib/v7e-m/fpv5/hard\libg_nano.a(lib_a-init.o)
 .data          0x0000000000000000        0x0 c:/program files/microchip/xc32/v2.50/bin/bin/../../lib/gcc/pic32c/6.2.1/../../../../pic32c/lib/v7e-m/fpv5/hard\libg_nano.a(lib_a-init.o)
 .bss           0x0000000000000000        0x0 c:/program files/microchip/xc32/v2.50/bin/bin/../../lib/gcc/pic32c/6.2.1/../../../../pic32c/lib/v7e-m/fpv5/hard\libg_nano.a(lib_a-init.o)
 .text          0x0000000000000000        0x0 c:/program files/microchip/xc32/v2.50/bin/bin/../../lib/gcc/pic32c/6.2.1/../../../../pic32c/lib/v7e-m/fpv5/hard\libg_nano.a(lib_a-itoa.o)
 .data          0x0000000000000000        0x0 c:/program files/microchip/xc32/v2.50/bin/bin/../../lib/gcc/pic32c/6.2.1/../../../../pic32c/lib/v7e-m/fpv5/hard\libg_nano.a(lib_a-itoa.o)
 .bss           0x0000000000000000        0x0 c:/program files/microchip/xc32/v2.50/bin/bin/../../lib/gcc/pic32c/6.2.1/../../../../pic32c/lib/v7e-m/fpv5/hard\libg_nano.a(lib_a-itoa.o)
 .text          0x0000000000000000        0x0 c:/program files/microchip/xc32/v2.50/bin/bin/../../lib/gcc/pic32c/6.2.1/../../../../pic32c/lib/v7e-m/fpv5/hard\libg_nano.a(lib_a-locale.o)
 .data          0x0000000000000000        0x0 c:/program files/microchip/xc32/v2.50/bin/bin/../../lib/gcc/pic32c/6.2.1/../../../../pic32c/lib/v7e-m/fpv5/hard\libg_nano.a(lib_a-locale.o)
 .bss           0x0000000000000000        0x0 c:/program files/microchip/xc32/v2.50/bin/bin/../../lib/gcc/pic32c/6.2.1/../../../../pic32c/lib/v7e-m/fpv5/hard\libg_nano.a(lib_a-locale.o)
 .text._setlocale_r
                0x0000000000000000       0x38 c:/program files/microchip/xc32/v2.50/bin/bin/../../lib/gcc/pic32c/6.2.1/../../../../pic32c/lib/v7e-m/fpv5/hard\libg_nano.a(lib_a-locale.o)
 .text.__locale_mb_cur_max
                0x0000000000000000       0x1c c:/program files/microchip/xc32/v2.50/bin/bin/../../lib/gcc/pic32c/6.2.1/../../../../pic32c/lib/v7e-m/fpv5/hard\libg_nano.a(lib_a-locale.o)
 .text.__locale_ctype_ptr
                0x0000000000000000       0x1c c:/program files/microchip/xc32/v2.50/bin/bin/../../lib/gcc/pic32c/6.2.1/../../../../pic32c/lib/v7e-m/fpv5/hard\libg_nano.a(lib_a-locale.o)
 .text.setlocale
                0x0000000000000000       0x10 c:/program files/microchip/xc32/v2.50/bin/bin/../../lib/gcc/pic32c/6.2.1/../../../../pic32c/lib/v7e-m/fpv5/hard\libg_nano.a(lib_a-locale.o)
 .bss._PathLocale
                0x0000000000000000        0x4 c:/program files/microchip/xc32/v2.50/bin/bin/../../lib/gcc/pic32c/6.2.1/../../../../pic32c/lib/v7e-m/fpv5/hard\libg_nano.a(lib_a-locale.o)
 .text          0x0000000000000000        0x0 c:/program files/microchip/xc32/v2.50/bin/bin/../../lib/gcc/pic32c/6.2.1/../../../../pic32c/lib/v7e-m/fpv5/hard\libg_nano.a(lib_a-malloc.o)
 .data          0x0000000000000000        0x0 c:/program files/microchip/xc32/v2.50/bin/bin/../../lib/gcc/pic32c/6.2.1/../../../../pic32c/lib/v7e-m/fpv5/hard\libg_nano.a(lib_a-malloc.o)
 .bss           0x0000000000000000        0x0 c:/program files/microchip/xc32/v2.50/bin/bin/../../lib/gcc/pic32c/6.2.1/../../../../pic32c/lib/v7e-m/fpv5/hard\libg_nano.a(lib_a-malloc.o)
 .text.free     0x0000000000000000       0x10 c:/program files/microchip/xc32/v2.50/bin/bin/../../lib/gcc/pic32c/6.2.1/../../../../pic32c/lib/v7e-m/fpv5/hard\libg_nano.a(lib_a-malloc.o)
 .text          0x0000000000000000        0x0 c:/program files/microchip/xc32/v2.50/bin/bin/../../lib/gcc/pic32c/6.2.1/../../../../pic32c/lib/v7e-m/fpv5/hard\libg_nano.a(lib_a-mbtowc_r.o)
 .data          0x0000000000000000        0x0 c:/program files/microchip/xc32/v2.50/bin/bin/../../lib/gcc/pic32c/6.2.1/../../../../pic32c/lib/v7e-m/fpv5/hard\libg_nano.a(lib_a-mbtowc_r.o)
 .bss           0x0000000000000000        0x0 c:/program files/microchip/xc32/v2.50/bin/bin/../../lib/gcc/pic32c/6.2.1/../../../../pic32c/lib/v7e-m/fpv5/hard\libg_nano.a(lib_a-mbtowc_r.o)
 .text._mbtowc_r
                0x0000000000000000       0x24 c:/program files/microchip/xc32/v2.50/bin/bin/../../lib/gcc/pic32c/6.2.1/../../../../pic32c/lib/v7e-m/fpv5/hard\libg_nano.a(lib_a-mbtowc_r.o)
 .text          0x0000000000000000        0x0 c:/program files/microchip/xc32/v2.50/bin/bin/../../lib/gcc/pic32c/6.2.1/../../../../pic32c/lib/v7e-m/fpv5/hard\libg_nano.a(lib_a-memcpy-stub.o)
 .data          0x0000000000000000        0x0 c:/program files/microchip/xc32/v2.50/bin/bin/../../lib/gcc/pic32c/6.2.1/../../../../pic32c/lib/v7e-m/fpv5/hard\libg_nano.a(lib_a-memcpy-stub.o)
 .bss           0x0000000000000000        0x0 c:/program files/microchip/xc32/v2.50/bin/bin/../../lib/gcc/pic32c/6.2.1/../../../../pic32c/lib/v7e-m/fpv5/hard\libg_nano.a(lib_a-memcpy-stub.o)
 .text          0x0000000000000000        0x0 c:/program files/microchip/xc32/v2.50/bin/bin/../../lib/gcc/pic32c/6.2.1/../../../../pic32c/lib/v7e-m/fpv5/hard\libg_nano.a(lib_a-memset.o)
 .data          0x0000000000000000        0x0 c:/program files/microchip/xc32/v2.50/bin/bin/../../lib/gcc/pic32c/6.2.1/../../../../pic32c/lib/v7e-m/fpv5/hard\libg_nano.a(lib_a-memset.o)
 .bss           0x0000000000000000        0x0 c:/program files/microchip/xc32/v2.50/bin/bin/../../lib/gcc/pic32c/6.2.1/../../../../pic32c/lib/v7e-m/fpv5/hard\libg_nano.a(lib_a-memset.o)
 .text          0x0000000000000000        0x0 c:/program files/microchip/xc32/v2.50/bin/bin/../../lib/gcc/pic32c/6.2.1/../../../../pic32c/lib/v7e-m/fpv5/hard\libg_nano.a(lib_a-nano-freer.o)
 .data          0x0000000000000000        0x0 c:/program files/microchip/xc32/v2.50/bin/bin/../../lib/gcc/pic32c/6.2.1/../../../../pic32c/lib/v7e-m/fpv5/hard\libg_nano.a(lib_a-nano-freer.o)
 .bss           0x0000000000000000        0x0 c:/program files/microchip/xc32/v2.50/bin/bin/../../lib/gcc/pic32c/6.2.1/../../../../pic32c/lib/v7e-m/fpv5/hard\libg_nano.a(lib_a-nano-freer.o)
 .text._free_r  0x0000000000000000       0x9c c:/program files/microchip/xc32/v2.50/bin/bin/../../lib/gcc/pic32c/6.2.1/../../../../pic32c/lib/v7e-m/fpv5/hard\libg_nano.a(lib_a-nano-freer.o)
 .debug_info    0x0000000000000000     0x11c3 c:/program files/microchip/xc32/v2.50/bin/bin/../../lib/gcc/pic32c/6.2.1/../../../../pic32c/lib/v7e-m/fpv5/hard\libg_nano.a(lib_a-nano-freer.o)
 .debug_abbrev  0x0000000000000000      0x242 c:/program files/microchip/xc32/v2.50/bin/bin/../../lib/gcc/pic32c/6.2.1/../../../../pic32c/lib/v7e-m/fpv5/hard\libg_nano.a(lib_a-nano-freer.o)
 .debug_loc     0x0000000000000000      0x141 c:/program files/microchip/xc32/v2.50/bin/bin/../../lib/gcc/pic32c/6.2.1/../../../../pic32c/lib/v7e-m/fpv5/hard\libg_nano.a(lib_a-nano-freer.o)
 .debug_aranges
                0x0000000000000000       0x20 c:/program files/microchip/xc32/v2.50/bin/bin/../../lib/gcc/pic32c/6.2.1/../../../../pic32c/lib/v7e-m/fpv5/hard\libg_nano.a(lib_a-nano-freer.o)
 .debug_ranges  0x0000000000000000       0x10 c:/program files/microchip/xc32/v2.50/bin/bin/../../lib/gcc/pic32c/6.2.1/../../../../pic32c/lib/v7e-m/fpv5/hard\libg_nano.a(lib_a-nano-freer.o)
 .debug_line    0x0000000000000000      0x1dc c:/program files/microchip/xc32/v2.50/bin/bin/../../lib/gcc/pic32c/6.2.1/../../../../pic32c/lib/v7e-m/fpv5/hard\libg_nano.a(lib_a-nano-freer.o)
 .debug_str     0x0000000000000000       0x27 c:/program files/microchip/xc32/v2.50/bin/bin/../../lib/gcc/pic32c/6.2.1/../../../../pic32c/lib/v7e-m/fpv5/hard\libg_nano.a(lib_a-nano-freer.o)
 .comment       0x0000000000000000       0x3d c:/program files/microchip/xc32/v2.50/bin/bin/../../lib/gcc/pic32c/6.2.1/../../../../pic32c/lib/v7e-m/fpv5/hard\libg_nano.a(lib_a-nano-freer.o)
 .debug_frame   0x0000000000000000       0x38 c:/program files/microchip/xc32/v2.50/bin/bin/../../lib/gcc/pic32c/6.2.1/../../../../pic32c/lib/v7e-m/fpv5/hard\libg_nano.a(lib_a-nano-freer.o)
 .ARM.attributes
                0x0000000000000000       0x32 c:/program files/microchip/xc32/v2.50/bin/bin/../../lib/gcc/pic32c/6.2.1/../../../../pic32c/lib/v7e-m/fpv5/hard\libg_nano.a(lib_a-nano-freer.o)
 .text          0x0000000000000000        0x0 c:/program files/microchip/xc32/v2.50/bin/bin/../../lib/gcc/pic32c/6.2.1/../../../../pic32c/lib/v7e-m/fpv5/hard\libg_nano.a(lib_a-nano-mallocr.o)
 .data          0x0000000000000000        0x0 c:/program files/microchip/xc32/v2.50/bin/bin/../../lib/gcc/pic32c/6.2.1/../../../../pic32c/lib/v7e-m/fpv5/hard\libg_nano.a(lib_a-nano-mallocr.o)
 .bss           0x0000000000000000        0x0 c:/program files/microchip/xc32/v2.50/bin/bin/../../lib/gcc/pic32c/6.2.1/../../../../pic32c/lib/v7e-m/fpv5/hard\libg_nano.a(lib_a-nano-mallocr.o)
 .text          0x0000000000000000        0x0 c:/program files/microchip/xc32/v2.50/bin/bin/../../lib/gcc/pic32c/6.2.1/../../../../pic32c/lib/v7e-m/fpv5/hard\libg_nano.a(lib_a-sbrkr.o)
 .data          0x0000000000000000        0x0 c:/program files/microchip/xc32/v2.50/bin/bin/../../lib/gcc/pic32c/6.2.1/../../../../pic32c/lib/v7e-m/fpv5/hard\libg_nano.a(lib_a-sbrkr.o)
 .bss           0x0000000000000000        0x0 c:/program files/microchip/xc32/v2.50/bin/bin/../../lib/gcc/pic32c/6.2.1/../../../../pic32c/lib/v7e-m/fpv5/hard\libg_nano.a(lib_a-sbrkr.o)
 .text          0x0000000000000000        0x0 c:/program files/microchip/xc32/v2.50/bin/bin/../../lib/gcc/pic32c/6.2.1/../../../../pic32c/lib/v7e-m/fpv5/hard\libg_nano.a(lib_a-strchr.o)
 .data          0x0000000000000000        0x0 c:/program files/microchip/xc32/v2.50/bin/bin/../../lib/gcc/pic32c/6.2.1/../../../../pic32c/lib/v7e-m/fpv5/hard\libg_nano.a(lib_a-strchr.o)
 .bss           0x0000000000000000        0x0 c:/program files/microchip/xc32/v2.50/bin/bin/../../lib/gcc/pic32c/6.2.1/../../../../pic32c/lib/v7e-m/fpv5/hard\libg_nano.a(lib_a-strchr.o)
 .text          0x0000000000000000       0x14 c:/program files/microchip/xc32/v2.50/bin/bin/../../lib/gcc/pic32c/6.2.1/../../../../pic32c/lib/v7e-m/fpv5/hard\libg_nano.a(lib_a-strcmp.o)
 .data          0x0000000000000000        0x0 c:/program files/microchip/xc32/v2.50/bin/bin/../../lib/gcc/pic32c/6.2.1/../../../../pic32c/lib/v7e-m/fpv5/hard\libg_nano.a(lib_a-strcmp.o)
 .bss           0x0000000000000000        0x0 c:/program files/microchip/xc32/v2.50/bin/bin/../../lib/gcc/pic32c/6.2.1/../../../../pic32c/lib/v7e-m/fpv5/hard\libg_nano.a(lib_a-strcmp.o)
 .debug_line    0x0000000000000000       0xb1 c:/program files/microchip/xc32/v2.50/bin/bin/../../lib/gcc/pic32c/6.2.1/../../../../pic32c/lib/v7e-m/fpv5/hard\libg_nano.a(lib_a-strcmp.o)
 .debug_info    0x0000000000000000      0x126 c:/program files/microchip/xc32/v2.50/bin/bin/../../lib/gcc/pic32c/6.2.1/../../../../pic32c/lib/v7e-m/fpv5/hard\libg_nano.a(lib_a-strcmp.o)
 .debug_abbrev  0x0000000000000000       0x14 c:/program files/microchip/xc32/v2.50/bin/bin/../../lib/gcc/pic32c/6.2.1/../../../../pic32c/lib/v7e-m/fpv5/hard\libg_nano.a(lib_a-strcmp.o)
 .debug_aranges
                0x0000000000000000       0x20 c:/program files/microchip/xc32/v2.50/bin/bin/../../lib/gcc/pic32c/6.2.1/../../../../pic32c/lib/v7e-m/fpv5/hard\libg_nano.a(lib_a-strcmp.o)
 .debug_frame   0x0000000000000000       0x20 c:/program files/microchip/xc32/v2.50/bin/bin/../../lib/gcc/pic32c/6.2.1/../../../../pic32c/lib/v7e-m/fpv5/hard\libg_nano.a(lib_a-strcmp.o)
 .ARM.attributes
                0x0000000000000000       0x1e c:/program files/microchip/xc32/v2.50/bin/bin/../../lib/gcc/pic32c/6.2.1/../../../../pic32c/lib/v7e-m/fpv5/hard\libg_nano.a(lib_a-strcmp.o)
 .text          0x0000000000000000        0x0 c:/program files/microchip/xc32/v2.50/bin/bin/../../lib/gcc/pic32c/6.2.1/../../../../pic32c/lib/v7e-m/fpv5/hard\libg_nano.a(lib_a-strcpy.o)
 .data          0x0000000000000000        0x0 c:/program files/microchip/xc32/v2.50/bin/bin/../../lib/gcc/pic32c/6.2.1/../../../../pic32c/lib/v7e-m/fpv5/hard\libg_nano.a(lib_a-strcpy.o)
 .bss           0x0000000000000000        0x0 c:/program files/microchip/xc32/v2.50/bin/bin/../../lib/gcc/pic32c/6.2.1/../../../../pic32c/lib/v7e-m/fpv5/hard\libg_nano.a(lib_a-strcpy.o)
 .data          0x0000000000000000        0x0 c:/program files/microchip/xc32/v2.50/bin/bin/../../lib/gcc/pic32c/6.2.1/../../../../pic32c/lib/v7e-m/fpv5/hard\libg_nano.a(lib_a-strlen.o)
 .bss           0x0000000000000000        0x0 c:/program files/microchip/xc32/v2.50/bin/bin/../../lib/gcc/pic32c/6.2.1/../../../../pic32c/lib/v7e-m/fpv5/hard\libg_nano.a(lib_a-strlen.o)
 .text          0x0000000000000000        0x0 c:/program files/microchip/xc32/v2.50/bin/bin/../../lib/gcc/pic32c/6.2.1/../../../../pic32c/lib/v7e-m/fpv5/hard\libg_nano.a(lib_a-strncmp.o)
 .data          0x0000000000000000        0x0 c:/program files/microchip/xc32/v2.50/bin/bin/../../lib/gcc/pic32c/6.2.1/../../../../pic32c/lib/v7e-m/fpv5/hard\libg_nano.a(lib_a-strncmp.o)
 .bss           0x0000000000000000        0x0 c:/program files/microchip/xc32/v2.50/bin/bin/../../lib/gcc/pic32c/6.2.1/../../../../pic32c/lib/v7e-m/fpv5/hard\libg_nano.a(lib_a-strncmp.o)
 .text          0x0000000000000000        0x0 c:/program files/microchip/xc32/v2.50/bin/bin/../../lib/gcc/pic32c/6.2.1/../../../../pic32c/lib/v7e-m/fpv5/hard\libg_nano.a(lib_a-strncpy.o)
 .data          0x0000000000000000        0x0 c:/program files/microchip/xc32/v2.50/bin/bin/../../lib/gcc/pic32c/6.2.1/../../../../pic32c/lib/v7e-m/fpv5/hard\libg_nano.a(lib_a-strncpy.o)
 .bss           0x0000000000000000        0x0 c:/program files/microchip/xc32/v2.50/bin/bin/../../lib/gcc/pic32c/6.2.1/../../../../pic32c/lib/v7e-m/fpv5/hard\libg_nano.a(lib_a-strncpy.o)
 .text          0x0000000000000000        0x0 c:/program files/microchip/xc32/v2.50/bin/bin/../../lib/gcc/pic32c/6.2.1/../../../../pic32c/lib/v7e-m/fpv5/hard\libg_nano.a(lib_a-strtod.o)
 .data          0x0000000000000000        0x0 c:/program files/microchip/xc32/v2.50/bin/bin/../../lib/gcc/pic32c/6.2.1/../../../../pic32c/lib/v7e-m/fpv5/hard\libg_nano.a(lib_a-strtod.o)
 .bss           0x0000000000000000        0x0 c:/program files/microchip/xc32/v2.50/bin/bin/../../lib/gcc/pic32c/6.2.1/../../../../pic32c/lib/v7e-m/fpv5/hard\libg_nano.a(lib_a-strtod.o)
 .text._strtod_r
                0x0000000000000000       0x20 c:/program files/microchip/xc32/v2.50/bin/bin/../../lib/gcc/pic32c/6.2.1/../../../../pic32c/lib/v7e-m/fpv5/hard\libg_nano.a(lib_a-strtod.o)
 .text.strtod_l
                0x0000000000000000       0x14 c:/program files/microchip/xc32/v2.50/bin/bin/../../lib/gcc/pic32c/6.2.1/../../../../pic32c/lib/v7e-m/fpv5/hard\libg_nano.a(lib_a-strtod.o)
 .text.strtof_l
                0x0000000000000000       0x30 c:/program files/microchip/xc32/v2.50/bin/bin/../../lib/gcc/pic32c/6.2.1/../../../../pic32c/lib/v7e-m/fpv5/hard\libg_nano.a(lib_a-strtod.o)
 .text.strtof   0x0000000000000000       0x3c c:/program files/microchip/xc32/v2.50/bin/bin/../../lib/gcc/pic32c/6.2.1/../../../../pic32c/lib/v7e-m/fpv5/hard\libg_nano.a(lib_a-strtod.o)
 .text          0x0000000000000000        0x0 c:/program files/microchip/xc32/v2.50/bin/bin/../../lib/gcc/pic32c/6.2.1/../../../../pic32c/lib/v7e-m/fpv5/hard\libg_nano.a(lib_a-strtol.o)
 .data          0x0000000000000000        0x0 c:/program files/microchip/xc32/v2.50/bin/bin/../../lib/gcc/pic32c/6.2.1/../../../../pic32c/lib/v7e-m/fpv5/hard\libg_nano.a(lib_a-strtol.o)
 .bss           0x0000000000000000        0x0 c:/program files/microchip/xc32/v2.50/bin/bin/../../lib/gcc/pic32c/6.2.1/../../../../pic32c/lib/v7e-m/fpv5/hard\libg_nano.a(lib_a-strtol.o)
 .text._strtol_r
                0x0000000000000000       0x24 c:/program files/microchip/xc32/v2.50/bin/bin/../../lib/gcc/pic32c/6.2.1/../../../../pic32c/lib/v7e-m/fpv5/hard\libg_nano.a(lib_a-strtol.o)
 .text.strtol_l
                0x0000000000000000       0x1c c:/program files/microchip/xc32/v2.50/bin/bin/../../lib/gcc/pic32c/6.2.1/../../../../pic32c/lib/v7e-m/fpv5/hard\libg_nano.a(lib_a-strtol.o)
 .text          0x0000000000000000        0x0 c:/program files/microchip/xc32/v2.50/bin/bin/../../lib/gcc/pic32c/6.2.1/../../../../pic32c/lib/v7e-m/fpv5/hard\libg_nano.a(lib_a-utoa.o)
 .data          0x0000000000000000        0x0 c:/program files/microchip/xc32/v2.50/bin/bin/../../lib/gcc/pic32c/6.2.1/../../../../pic32c/lib/v7e-m/fpv5/hard\libg_nano.a(lib_a-utoa.o)
 .bss           0x0000000000000000        0x0 c:/program files/microchip/xc32/v2.50/bin/bin/../../lib/gcc/pic32c/6.2.1/../../../../pic32c/lib/v7e-m/fpv5/hard\libg_nano.a(lib_a-utoa.o)
 .text.utoa     0x0000000000000000        0x4 c:/program files/microchip/xc32/v2.50/bin/bin/../../lib/gcc/pic32c/6.2.1/../../../../pic32c/lib/v7e-m/fpv5/hard\libg_nano.a(lib_a-utoa.o)
 .text          0x0000000000000000        0x0 c:/program files/microchip/xc32/v2.50/bin/bin/../../lib/gcc/pic32c/6.2.1/../../../../pic32c/lib/v7e-m/fpv5/hard\libg_nano.a(lib_a-wctomb_r.o)
 .data          0x0000000000000000        0x0 c:/program files/microchip/xc32/v2.50/bin/bin/../../lib/gcc/pic32c/6.2.1/../../../../pic32c/lib/v7e-m/fpv5/hard\libg_nano.a(lib_a-wctomb_r.o)
 .bss           0x0000000000000000        0x0 c:/program files/microchip/xc32/v2.50/bin/bin/../../lib/gcc/pic32c/6.2.1/../../../../pic32c/lib/v7e-m/fpv5/hard\libg_nano.a(lib_a-wctomb_r.o)
 .text._wctomb_r
                0x0000000000000000       0x24 c:/program files/microchip/xc32/v2.50/bin/bin/../../lib/gcc/pic32c/6.2.1/../../../../pic32c/lib/v7e-m/fpv5/hard\libg_nano.a(lib_a-wctomb_r.o)
 .text          0x0000000000000000        0x0 c:/program files/microchip/xc32/v2.50/bin/bin/../../lib/gcc/pic32c/6.2.1/../../../../pic32c/lib/v7e-m/fpv5/hard\libg_nano.a(lib_a-ctype_.o)
 .data          0x0000000000000000        0x0 c:/program files/microchip/xc32/v2.50/bin/bin/../../lib/gcc/pic32c/6.2.1/../../../../pic32c/lib/v7e-m/fpv5/hard\libg_nano.a(lib_a-ctype_.o)
 .bss           0x0000000000000000        0x0 c:/program files/microchip/xc32/v2.50/bin/bin/../../lib/gcc/pic32c/6.2.1/../../../../pic32c/lib/v7e-m/fpv5/hard\libg_nano.a(lib_a-ctype_.o)
 .text          0x0000000000000000        0x0 c:/program files/microchip/xc32/v2.50/bin/bin/../../lib/gcc/pic32c/6.2.1/../../../../pic32c/lib/v7e-m/fpv5/hard\libg_nano.a(lib_a-gdtoa-gethex.o)
 .data          0x0000000000000000        0x0 c:/program files/microchip/xc32/v2.50/bin/bin/../../lib/gcc/pic32c/6.2.1/../../../../pic32c/lib/v7e-m/fpv5/hard\libg_nano.a(lib_a-gdtoa-gethex.o)
 .bss           0x0000000000000000        0x0 c:/program files/microchip/xc32/v2.50/bin/bin/../../lib/gcc/pic32c/6.2.1/../../../../pic32c/lib/v7e-m/fpv5/hard\libg_nano.a(lib_a-gdtoa-gethex.o)
 .text          0x0000000000000000        0x0 c:/program files/microchip/xc32/v2.50/bin/bin/../../lib/gcc/pic32c/6.2.1/../../../../pic32c/lib/v7e-m/fpv5/hard\libg_nano.a(lib_a-gdtoa-hexnan.o)
 .data          0x0000000000000000        0x0 c:/program files/microchip/xc32/v2.50/bin/bin/../../lib/gcc/pic32c/6.2.1/../../../../pic32c/lib/v7e-m/fpv5/hard\libg_nano.a(lib_a-gdtoa-hexnan.o)
 .bss           0x0000000000000000        0x0 c:/program files/microchip/xc32/v2.50/bin/bin/../../lib/gcc/pic32c/6.2.1/../../../../pic32c/lib/v7e-m/fpv5/hard\libg_nano.a(lib_a-gdtoa-hexnan.o)
 .text          0x0000000000000000        0x0 c:/program files/microchip/xc32/v2.50/bin/bin/../../lib/gcc/pic32c/6.2.1/../../../../pic32c/lib/v7e-m/fpv5/hard\libg_nano.a(lib_a-impure.o)
 .data          0x0000000000000000        0x0 c:/program files/microchip/xc32/v2.50/bin/bin/../../lib/gcc/pic32c/6.2.1/../../../../pic32c/lib/v7e-m/fpv5/hard\libg_nano.a(lib_a-impure.o)
 .bss           0x0000000000000000        0x0 c:/program files/microchip/xc32/v2.50/bin/bin/../../lib/gcc/pic32c/6.2.1/../../../../pic32c/lib/v7e-m/fpv5/hard\libg_nano.a(lib_a-impure.o)
 .rodata._global_impure_ptr
                0x0000000000000000        0x4 c:/program files/microchip/xc32/v2.50/bin/bin/../../lib/gcc/pic32c/6.2.1/../../../../pic32c/lib/v7e-m/fpv5/hard\libg_nano.a(lib_a-impure.o)
 .text          0x0000000000000000        0x0 c:/program files/microchip/xc32/v2.50/bin/bin/../../lib/gcc/pic32c/6.2.1/../../../../pic32c/lib/v7e-m/fpv5/hard\libg_nano.a(lib_a-localeconv.o)
 .data          0x0000000000000000        0x0 c:/program files/microchip/xc32/v2.50/bin/bin/../../lib/gcc/pic32c/6.2.1/../../../../pic32c/lib/v7e-m/fpv5/hard\libg_nano.a(lib_a-localeconv.o)
 .bss           0x0000000000000000        0x0 c:/program files/microchip/xc32/v2.50/bin/bin/../../lib/gcc/pic32c/6.2.1/../../../../pic32c/lib/v7e-m/fpv5/hard\libg_nano.a(lib_a-localeconv.o)
 .text._localeconv_r
                0x0000000000000000       0x1c c:/program files/microchip/xc32/v2.50/bin/bin/../../lib/gcc/pic32c/6.2.1/../../../../pic32c/lib/v7e-m/fpv5/hard\libg_nano.a(lib_a-localeconv.o)
 .text.localeconv
                0x0000000000000000       0x1c c:/program files/microchip/xc32/v2.50/bin/bin/../../lib/gcc/pic32c/6.2.1/../../../../pic32c/lib/v7e-m/fpv5/hard\libg_nano.a(lib_a-localeconv.o)
 .text          0x0000000000000000        0x0 c:/program files/microchip/xc32/v2.50/bin/bin/../../lib/gcc/pic32c/6.2.1/../../../../pic32c/lib/v7e-m/fpv5/hard\libg_nano.a(lib_a-mlock.o)
 .data          0x0000000000000000        0x0 c:/program files/microchip/xc32/v2.50/bin/bin/../../lib/gcc/pic32c/6.2.1/../../../../pic32c/lib/v7e-m/fpv5/hard\libg_nano.a(lib_a-mlock.o)
 .bss           0x0000000000000000        0x0 c:/program files/microchip/xc32/v2.50/bin/bin/../../lib/gcc/pic32c/6.2.1/../../../../pic32c/lib/v7e-m/fpv5/hard\libg_nano.a(lib_a-mlock.o)
 .text          0x0000000000000000        0x0 c:/program files/microchip/xc32/v2.50/bin/bin/../../lib/gcc/pic32c/6.2.1/../../../../pic32c/lib/v7e-m/fpv5/hard\libg_nano.a(lib_a-mprec.o)
 .data          0x0000000000000000        0x0 c:/program files/microchip/xc32/v2.50/bin/bin/../../lib/gcc/pic32c/6.2.1/../../../../pic32c/lib/v7e-m/fpv5/hard\libg_nano.a(lib_a-mprec.o)
 .bss           0x0000000000000000        0x0 c:/program files/microchip/xc32/v2.50/bin/bin/../../lib/gcc/pic32c/6.2.1/../../../../pic32c/lib/v7e-m/fpv5/hard\libg_nano.a(lib_a-mprec.o)
 .text._mprec_log10
                0x0000000000000000       0x28 c:/program files/microchip/xc32/v2.50/bin/bin/../../lib/gcc/pic32c/6.2.1/../../../../pic32c/lib/v7e-m/fpv5/hard\libg_nano.a(lib_a-mprec.o)
 .rodata.__mprec_tinytens
                0x0000000000000000       0x28 c:/program files/microchip/xc32/v2.50/bin/bin/../../lib/gcc/pic32c/6.2.1/../../../../pic32c/lib/v7e-m/fpv5/hard\libg_nano.a(lib_a-mprec.o)
 .text          0x0000000000000000        0x0 c:/program files/microchip/xc32/v2.50/bin/bin/../../lib/gcc/pic32c/6.2.1/../../../../pic32c/lib/v7e-m/fpv5/hard\libg_nano.a(lib_a-nano-callocr.o)
 .data          0x0000000000000000        0x0 c:/program files/microchip/xc32/v2.50/bin/bin/../../lib/gcc/pic32c/6.2.1/../../../../pic32c/lib/v7e-m/fpv5/hard\libg_nano.a(lib_a-nano-callocr.o)
 .bss           0x0000000000000000        0x0 c:/program files/microchip/xc32/v2.50/bin/bin/../../lib/gcc/pic32c/6.2.1/../../../../pic32c/lib/v7e-m/fpv5/hard\libg_nano.a(lib_a-nano-callocr.o)
 .text          0x0000000000000000        0x0 c:/program files/microchip/xc32/v2.50/bin/bin/../../lib/gcc/pic32c/6.2.1/../../../../pic32c/lib/v7e-m/fpv5/hard\libg_nano.a(lib_a-reent.o)
 .data          0x0000000000000000        0x0 c:/program files/microchip/xc32/v2.50/bin/bin/../../lib/gcc/pic32c/6.2.1/../../../../pic32c/lib/v7e-m/fpv5/hard\libg_nano.a(lib_a-reent.o)
 .bss           0x0000000000000000        0x0 c:/program files/microchip/xc32/v2.50/bin/bin/../../lib/gcc/pic32c/6.2.1/../../../../pic32c/lib/v7e-m/fpv5/hard\libg_nano.a(lib_a-reent.o)
 .text.cleanup_glue
                0x0000000000000000       0x1a c:/program files/microchip/xc32/v2.50/bin/bin/../../lib/gcc/pic32c/6.2.1/../../../../pic32c/lib/v7e-m/fpv5/hard\libg_nano.a(lib_a-reent.o)
 .text._reclaim_reent
                0x0000000000000000       0xb8 c:/program files/microchip/xc32/v2.50/bin/bin/../../lib/gcc/pic32c/6.2.1/../../../../pic32c/lib/v7e-m/fpv5/hard\libg_nano.a(lib_a-reent.o)
 .text          0x0000000000000000        0x0 c:/program files/microchip/xc32/v2.50/bin/bin/../../lib/gcc/pic32c/6.2.1/../../../../pic32c/lib/v7e-m/fpv5/hard\libg_nano.a(lib_a-sf_nan.o)
 .data          0x0000000000000000        0x0 c:/program files/microchip/xc32/v2.50/bin/bin/../../lib/gcc/pic32c/6.2.1/../../../../pic32c/lib/v7e-m/fpv5/hard\libg_nano.a(lib_a-sf_nan.o)
 .bss           0x0000000000000000        0x0 c:/program files/microchip/xc32/v2.50/bin/bin/../../lib/gcc/pic32c/6.2.1/../../../../pic32c/lib/v7e-m/fpv5/hard\libg_nano.a(lib_a-sf_nan.o)
 .text.nanf     0x0000000000000000        0xc c:/program files/microchip/xc32/v2.50/bin/bin/../../lib/gcc/pic32c/6.2.1/../../../../pic32c/lib/v7e-m/fpv5/hard\libg_nano.a(lib_a-sf_nan.o)
 .debug_info    0x0000000000000000      0xe9a c:/program files/microchip/xc32/v2.50/bin/bin/../../lib/gcc/pic32c/6.2.1/../../../../pic32c/lib/v7e-m/fpv5/hard\libg_nano.a(lib_a-sf_nan.o)
 .debug_abbrev  0x0000000000000000      0x17a c:/program files/microchip/xc32/v2.50/bin/bin/../../lib/gcc/pic32c/6.2.1/../../../../pic32c/lib/v7e-m/fpv5/hard\libg_nano.a(lib_a-sf_nan.o)
 .debug_aranges
                0x0000000000000000       0x20 c:/program files/microchip/xc32/v2.50/bin/bin/../../lib/gcc/pic32c/6.2.1/../../../../pic32c/lib/v7e-m/fpv5/hard\libg_nano.a(lib_a-sf_nan.o)
 .debug_ranges  0x0000000000000000       0x10 c:/program files/microchip/xc32/v2.50/bin/bin/../../lib/gcc/pic32c/6.2.1/../../../../pic32c/lib/v7e-m/fpv5/hard\libg_nano.a(lib_a-sf_nan.o)
 .debug_line    0x0000000000000000      0x1fe c:/program files/microchip/xc32/v2.50/bin/bin/../../lib/gcc/pic32c/6.2.1/../../../../pic32c/lib/v7e-m/fpv5/hard\libg_nano.a(lib_a-sf_nan.o)
 .debug_str     0x0000000000000000        0x9 c:/program files/microchip/xc32/v2.50/bin/bin/../../lib/gcc/pic32c/6.2.1/../../../../pic32c/lib/v7e-m/fpv5/hard\libg_nano.a(lib_a-sf_nan.o)
 .comment       0x0000000000000000       0x3d c:/program files/microchip/xc32/v2.50/bin/bin/../../lib/gcc/pic32c/6.2.1/../../../../pic32c/lib/v7e-m/fpv5/hard\libg_nano.a(lib_a-sf_nan.o)
 .debug_frame   0x0000000000000000       0x20 c:/program files/microchip/xc32/v2.50/bin/bin/../../lib/gcc/pic32c/6.2.1/../../../../pic32c/lib/v7e-m/fpv5/hard\libg_nano.a(lib_a-sf_nan.o)
 .ARM.attributes
                0x0000000000000000       0x32 c:/program files/microchip/xc32/v2.50/bin/bin/../../lib/gcc/pic32c/6.2.1/../../../../pic32c/lib/v7e-m/fpv5/hard\libg_nano.a(lib_a-sf_nan.o)
 .text          0x0000000000000000        0x0 c:/program files/microchip/xc32/v2.50/bin/bin/../../lib/gcc/pic32c/6.2.1/../../../../pic32c/lib/v7e-m/fpv5/hard\libm_nano.a(lib_a-s_cos.o)
 .data          0x0000000000000000        0x0 c:/program files/microchip/xc32/v2.50/bin/bin/../../lib/gcc/pic32c/6.2.1/../../../../pic32c/lib/v7e-m/fpv5/hard\libm_nano.a(lib_a-s_cos.o)
 .bss           0x0000000000000000        0x0 c:/program files/microchip/xc32/v2.50/bin/bin/../../lib/gcc/pic32c/6.2.1/../../../../pic32c/lib/v7e-m/fpv5/hard\libm_nano.a(lib_a-s_cos.o)
 .text          0x0000000000000000        0x0 c:/program files/microchip/xc32/v2.50/bin/bin/../../lib/gcc/pic32c/6.2.1/../../../../pic32c/lib/v7e-m/fpv5/hard\libm_nano.a(lib_a-s_sin.o)
 .data          0x0000000000000000        0x0 c:/program files/microchip/xc32/v2.50/bin/bin/../../lib/gcc/pic32c/6.2.1/../../../../pic32c/lib/v7e-m/fpv5/hard\libm_nano.a(lib_a-s_sin.o)
 .bss           0x0000000000000000        0x0 c:/program files/microchip/xc32/v2.50/bin/bin/../../lib/gcc/pic32c/6.2.1/../../../../pic32c/lib/v7e-m/fpv5/hard\libm_nano.a(lib_a-s_sin.o)
 .text          0x0000000000000000        0x0 c:/program files/microchip/xc32/v2.50/bin/bin/../../lib/gcc/pic32c/6.2.1/../../../../pic32c/lib/v7e-m/fpv5/hard\libm_nano.a(lib_a-w_atan2.o)
 .data          0x0000000000000000        0x0 c:/program files/microchip/xc32/v2.50/bin/bin/../../lib/gcc/pic32c/6.2.1/../../../../pic32c/lib/v7e-m/fpv5/hard\libm_nano.a(lib_a-w_atan2.o)
 .bss           0x0000000000000000        0x0 c:/program files/microchip/xc32/v2.50/bin/bin/../../lib/gcc/pic32c/6.2.1/../../../../pic32c/lib/v7e-m/fpv5/hard\libm_nano.a(lib_a-w_atan2.o)
 .text          0x0000000000000000        0x0 c:/program files/microchip/xc32/v2.50/bin/bin/../../lib/gcc/pic32c/6.2.1/../../../../pic32c/lib/v7e-m/fpv5/hard\libm_nano.a(lib_a-w_sqrt.o)
 .data          0x0000000000000000        0x0 c:/program files/microchip/xc32/v2.50/bin/bin/../../lib/gcc/pic32c/6.2.1/../../../../pic32c/lib/v7e-m/fpv5/hard\libm_nano.a(lib_a-w_sqrt.o)
 .bss           0x0000000000000000        0x0 c:/program files/microchip/xc32/v2.50/bin/bin/../../lib/gcc/pic32c/6.2.1/../../../../pic32c/lib/v7e-m/fpv5/hard\libm_nano.a(lib_a-w_sqrt.o)
 .text          0x0000000000000000        0x0 c:/program files/microchip/xc32/v2.50/bin/bin/../../lib/gcc/pic32c/6.2.1/../../../../pic32c/lib/v7e-m/fpv5/hard\libm_nano.a(lib_a-e_atan2.o)
 .data          0x0000000000000000        0x0 c:/program files/microchip/xc32/v2.50/bin/bin/../../lib/gcc/pic32c/6.2.1/../../../../pic32c/lib/v7e-m/fpv5/hard\libm_nano.a(lib_a-e_atan2.o)
 .bss           0x0000000000000000        0x0 c:/program files/microchip/xc32/v2.50/bin/bin/../../lib/gcc/pic32c/6.2.1/../../../../pic32c/lib/v7e-m/fpv5/hard\libm_nano.a(lib_a-e_atan2.o)
 .text          0x0000000000000000        0x0 c:/program files/microchip/xc32/v2.50/bin/bin/../../lib/gcc/pic32c/6.2.1/../../../../pic32c/lib/v7e-m/fpv5/hard\libm_nano.a(lib_a-e_rem_pio2.o)
 .data          0x0000000000000000        0x0 c:/program files/microchip/xc32/v2.50/bin/bin/../../lib/gcc/pic32c/6.2.1/../../../../pic32c/lib/v7e-m/fpv5/hard\libm_nano.a(lib_a-e_rem_pio2.o)
 .bss           0x0000000000000000        0x0 c:/program files/microchip/xc32/v2.50/bin/bin/../../lib/gcc/pic32c/6.2.1/../../../../pic32c/lib/v7e-m/fpv5/hard\libm_nano.a(lib_a-e_rem_pio2.o)
 .text          0x0000000000000000        0x0 c:/program files/microchip/xc32/v2.50/bin/bin/../../lib/gcc/pic32c/6.2.1/../../../../pic32c/lib/v7e-m/fpv5/hard\libm_nano.a(lib_a-e_sqrt.o)
 .data          0x0000000000000000        0x0 c:/program files/microchip/xc32/v2.50/bin/bin/../../lib/gcc/pic32c/6.2.1/../../../../pic32c/lib/v7e-m/fpv5/hard\libm_nano.a(lib_a-e_sqrt.o)
 .bss           0x0000000000000000        0x0 c:/program files/microchip/xc32/v2.50/bin/bin/../../lib/gcc/pic32c/6.2.1/../../../../pic32c/lib/v7e-m/fpv5/hard\libm_nano.a(lib_a-e_sqrt.o)
 .text          0x0000000000000000        0x0 c:/program files/microchip/xc32/v2.50/bin/bin/../../lib/gcc/pic32c/6.2.1/../../../../pic32c/lib/v7e-m/fpv5/hard\libm_nano.a(lib_a-k_cos.o)
 .data          0x0000000000000000        0x0 c:/program files/microchip/xc32/v2.50/bin/bin/../../lib/gcc/pic32c/6.2.1/../../../../pic32c/lib/v7e-m/fpv5/hard\libm_nano.a(lib_a-k_cos.o)
 .bss           0x0000000000000000        0x0 c:/program files/microchip/xc32/v2.50/bin/bin/../../lib/gcc/pic32c/6.2.1/../../../../pic32c/lib/v7e-m/fpv5/hard\libm_nano.a(lib_a-k_cos.o)
 .text          0x0000000000000000        0x0 c:/program files/microchip/xc32/v2.50/bin/bin/../../lib/gcc/pic32c/6.2.1/../../../../pic32c/lib/v7e-m/fpv5/hard\libm_nano.a(lib_a-k_rem_pio2.o)
 .data          0x0000000000000000        0x0 c:/program files/microchip/xc32/v2.50/bin/bin/../../lib/gcc/pic32c/6.2.1/../../../../pic32c/lib/v7e-m/fpv5/hard\libm_nano.a(lib_a-k_rem_pio2.o)
 .bss           0x0000000000000000        0x0 c:/program files/microchip/xc32/v2.50/bin/bin/../../lib/gcc/pic32c/6.2.1/../../../../pic32c/lib/v7e-m/fpv5/hard\libm_nano.a(lib_a-k_rem_pio2.o)
 .text          0x0000000000000000        0x0 c:/program files/microchip/xc32/v2.50/bin/bin/../../lib/gcc/pic32c/6.2.1/../../../../pic32c/lib/v7e-m/fpv5/hard\libm_nano.a(lib_a-k_sin.o)
 .data          0x0000000000000000        0x0 c:/program files/microchip/xc32/v2.50/bin/bin/../../lib/gcc/pic32c/6.2.1/../../../../pic32c/lib/v7e-m/fpv5/hard\libm_nano.a(lib_a-k_sin.o)
 .bss           0x0000000000000000        0x0 c:/program files/microchip/xc32/v2.50/bin/bin/../../lib/gcc/pic32c/6.2.1/../../../../pic32c/lib/v7e-m/fpv5/hard\libm_nano.a(lib_a-k_sin.o)
 .text          0x0000000000000000        0x0 c:/program files/microchip/xc32/v2.50/bin/bin/../../lib/gcc/pic32c/6.2.1/../../../../pic32c/lib/v7e-m/fpv5/hard\libm_nano.a(lib_a-s_atan.o)
 .data          0x0000000000000000        0x0 c:/program files/microchip/xc32/v2.50/bin/bin/../../lib/gcc/pic32c/6.2.1/../../../../pic32c/lib/v7e-m/fpv5/hard\libm_nano.a(lib_a-s_atan.o)
 .bss           0x0000000000000000        0x0 c:/program files/microchip/xc32/v2.50/bin/bin/../../lib/gcc/pic32c/6.2.1/../../../../pic32c/lib/v7e-m/fpv5/hard\libm_nano.a(lib_a-s_atan.o)
 .text          0x0000000000000000        0x0 c:/program files/microchip/xc32/v2.50/bin/bin/../../lib/gcc/pic32c/6.2.1/../../../../pic32c/lib/v7e-m/fpv5/hard\libm_nano.a(lib_a-s_fabs.o)
 .data          0x0000000000000000        0x0 c:/program files/microchip/xc32/v2.50/bin/bin/../../lib/gcc/pic32c/6.2.1/../../../../pic32c/lib/v7e-m/fpv5/hard\libm_nano.a(lib_a-s_fabs.o)
 .bss           0x0000000000000000        0x0 c:/program files/microchip/xc32/v2.50/bin/bin/../../lib/gcc/pic32c/6.2.1/../../../../pic32c/lib/v7e-m/fpv5/hard\libm_nano.a(lib_a-s_fabs.o)
 .text          0x0000000000000000        0x0 c:/program files/microchip/xc32/v2.50/bin/bin/../../lib/gcc/pic32c/6.2.1/../../../../pic32c/lib/v7e-m/fpv5/hard\libm_nano.a(lib_a-s_floor.o)
 .data          0x0000000000000000        0x0 c:/program files/microchip/xc32/v2.50/bin/bin/../../lib/gcc/pic32c/6.2.1/../../../../pic32c/lib/v7e-m/fpv5/hard\libm_nano.a(lib_a-s_floor.o)
 .bss           0x0000000000000000        0x0 c:/program files/microchip/xc32/v2.50/bin/bin/../../lib/gcc/pic32c/6.2.1/../../../../pic32c/lib/v7e-m/fpv5/hard\libm_nano.a(lib_a-s_floor.o)
 .text          0x0000000000000000        0x0 c:/program files/microchip/xc32/v2.50/bin/bin/../../lib/gcc/pic32c/6.2.1/../../../../pic32c/lib/v7e-m/fpv5/hard\libm_nano.a(lib_a-s_lib_ver.o)
 .data          0x0000000000000000        0x0 c:/program files/microchip/xc32/v2.50/bin/bin/../../lib/gcc/pic32c/6.2.1/../../../../pic32c/lib/v7e-m/fpv5/hard\libm_nano.a(lib_a-s_lib_ver.o)
 .bss           0x0000000000000000        0x0 c:/program files/microchip/xc32/v2.50/bin/bin/../../lib/gcc/pic32c/6.2.1/../../../../pic32c/lib/v7e-m/fpv5/hard\libm_nano.a(lib_a-s_lib_ver.o)
 .text          0x0000000000000000        0x0 c:/program files/microchip/xc32/v2.50/bin/bin/../../lib/gcc/pic32c/6.2.1/../../../../pic32c/lib/v7e-m/fpv5/hard\libm_nano.a(lib_a-s_matherr.o)
 .data          0x0000000000000000        0x0 c:/program files/microchip/xc32/v2.50/bin/bin/../../lib/gcc/pic32c/6.2.1/../../../../pic32c/lib/v7e-m/fpv5/hard\libm_nano.a(lib_a-s_matherr.o)
 .bss           0x0000000000000000        0x0 c:/program files/microchip/xc32/v2.50/bin/bin/../../lib/gcc/pic32c/6.2.1/../../../../pic32c/lib/v7e-m/fpv5/hard\libm_nano.a(lib_a-s_matherr.o)
 .text          0x0000000000000000        0x0 c:/program files/microchip/xc32/v2.50/bin/bin/../../lib/gcc/pic32c/6.2.1/../../../../pic32c/lib/v7e-m/fpv5/hard\libm_nano.a(lib_a-s_scalbn.o)
 .data          0x0000000000000000        0x0 c:/program files/microchip/xc32/v2.50/bin/bin/../../lib/gcc/pic32c/6.2.1/../../../../pic32c/lib/v7e-m/fpv5/hard\libm_nano.a(lib_a-s_scalbn.o)
 .bss           0x0000000000000000        0x0 c:/program files/microchip/xc32/v2.50/bin/bin/../../lib/gcc/pic32c/6.2.1/../../../../pic32c/lib/v7e-m/fpv5/hard\libm_nano.a(lib_a-s_scalbn.o)
 .text          0x0000000000000000        0x0 c:/program files/microchip/xc32/v2.50/bin/bin/../../lib/gcc/pic32c/6.2.1/../../../../pic32c/lib/v7e-m/fpv5/hard\libm_nano.a(lib_a-s_copysign.o)
 .data          0x0000000000000000        0x0 c:/program files/microchip/xc32/v2.50/bin/bin/../../lib/gcc/pic32c/6.2.1/../../../../pic32c/lib/v7e-m/fpv5/hard\libm_nano.a(lib_a-s_copysign.o)
 .bss           0x0000000000000000        0x0 c:/program files/microchip/xc32/v2.50/bin/bin/../../lib/gcc/pic32c/6.2.1/../../../../pic32c/lib/v7e-m/fpv5/hard\libm_nano.a(lib_a-s_copysign.o)
 .text          0x0000000000000000        0x0 c:/program files/microchip/xc32/v2.50/bin/bin/../../lib/gcc/pic32c/6.2.1/../../../../pic32c/lib/v7e-m/fpv5/hard\libc_nano.a(lib_a-errno.o)
 .data          0x0000000000000000        0x0 c:/program files/microchip/xc32/v2.50/bin/bin/../../lib/gcc/pic32c/6.2.1/../../../../pic32c/lib/v7e-m/fpv5/hard\libc_nano.a(lib_a-errno.o)
 .bss           0x0000000000000000        0x0 c:/program files/microchip/xc32/v2.50/bin/bin/../../lib/gcc/pic32c/6.2.1/../../../../pic32c/lib/v7e-m/fpv5/hard\libc_nano.a(lib_a-errno.o)
 .text          0x0000000000000000        0x0 c:/program files/microchip/xc32/v2.50/bin/bin/../../lib/gcc/pic32c/6.2.1/../../../../pic32c/lib/v7e-m/fpv5/hard\libpic32c.a(sbrk.o)
 .data          0x0000000000000000        0x0 c:/program files/microchip/xc32/v2.50/bin/bin/../../lib/gcc/pic32c/6.2.1/../../../../pic32c/lib/v7e-m/fpv5/hard\libpic32c.a(sbrk.o)
 .text          0x0000000000000000        0x0 c:/program files/microchip/xc32/v2.50/bin/bin/../../lib/gcc/pic32c/6.2.1/v7e-m/fpv5/hard/crtend.o
 .data          0x0000000000000000        0x0 c:/program files/microchip/xc32/v2.50/bin/bin/../../lib/gcc/pic32c/6.2.1/v7e-m/fpv5/hard/crtend.o
 .bss           0x0000000000000000        0x0 c:/program files/microchip/xc32/v2.50/bin/bin/../../lib/gcc/pic32c/6.2.1/v7e-m/fpv5/hard/crtend.o
 .eh_frame      0x0000000000000000        0x4 c:/program files/microchip/xc32/v2.50/bin/bin/../../lib/gcc/pic32c/6.2.1/v7e-m/fpv5/hard/crtend.o
 .comment       0x0000000000000000       0x3d c:/program files/microchip/xc32/v2.50/bin/bin/../../lib/gcc/pic32c/6.2.1/v7e-m/fpv5/hard/crtend.o
 .ARM.attributes
                0x0000000000000000       0x32 c:/program files/microchip/xc32/v2.50/bin/bin/../../lib/gcc/pic32c/6.2.1/v7e-m/fpv5/hard/crtend.o
 .text          0x0000000000000000        0x0 c:/program files/microchip/xc32/v2.50/bin/bin/../../lib/gcc/pic32c/6.2.1/v7e-m/fpv5/hard/crtn.o
 .data          0x0000000000000000        0x0 c:/program files/microchip/xc32/v2.50/bin/bin/../../lib/gcc/pic32c/6.2.1/v7e-m/fpv5/hard/crtn.o
 .bss           0x0000000000000000        0x0 c:/program files/microchip/xc32/v2.50/bin/bin/../../lib/gcc/pic32c/6.2.1/v7e-m/fpv5/hard/crtn.o

Memory Configuration

Name             Origin             Length             Attributes
rom              0x0000000000400000 0x0000000000200000 xrl
ram              0x0000000020400000 0x0000000000060000 xw !r
config_D0000000  0x00000000d0000000 0x0000000000000004
config_D0000008  0x00000000d0000008 0x0000000000000004
config_D0000004  0x00000000d0000004 0x0000000000000004
config_D000000C  0x00000000d000000c 0x0000000000000004
config_D0000010  0x00000000d0000010 0x0000000000000004
*default*        0x0000000000000000 0xffffffffffffffff

Linker script and memory map

LOAD c:/program files/microchip/xc32/v2.50/bin/bin/../../lib/gcc/pic32c/6.2.1/v7e-m/fpv5/hard/crti.o
LOAD c:/program files/microchip/xc32/v2.50/bin/bin/../../lib/gcc/pic32c/6.2.1/v7e-m/fpv5/hard/crtbegin.o
LOAD build/sam_e70_xult/debug/_ext/957281314/drv_i2c.o
LOAD build/sam_e70_xult/debug/_ext/1565510230/drv_sdmmc_file_system.o
LOAD build/sam_e70_xult/debug/_ext/1565510230/drv_sdmmc.o
LOAD build/sam_e70_xult/debug/_ext/716655881/drv_usart.o
LOAD build/sam_e70_xult/debug/_ext/1613695899/osal_freertos.o
LOAD build/sam_e70_xult/debug/_ext/1055500827/plib_clk.o
LOAD build/sam_e70_xult/debug/_ext/1055499099/plib_efc.o
LOAD build/sam_e70_xult/debug/_ext/719181653/plib_hsmci.o
LOAD build/sam_e70_xult/debug/_ext/1639550079/plib_nvic.o
LOAD build/sam_e70_xult/debug/_ext/1055488423/plib_pio.o
LOAD build/sam_e70_xult/debug/_ext/1055487991/plib_pwm0.o
LOAD build/sam_e70_xult/debug/_ext/865331892/plib_tc3.o
LOAD build/sam_e70_xult/debug/_ext/1539215101/plib_twihs0_master.o
LOAD build/sam_e70_xult/debug/_ext/707186936/plib_usart1.o
LOAD build/sam_e70_xult/debug/_ext/707186936/plib_usart0.o
LOAD build/sam_e70_xult/debug/_ext/707186936/plib_usart2.o
LOAD build/sam_e70_xult/debug/_ext/704852250/plib_xdmac.o
LOAD build/sam_e70_xult/debug/_ext/1518761459/xc32_monitor.o
LOAD build/sam_e70_xult/debug/_ext/876653320/sys_cache.o
LOAD build/sam_e70_xult/debug/_ext/984150034/sys_dma.o
LOAD build/sam_e70_xult/debug/_ext/1043829778/ff.o
LOAD build/sam_e70_xult/debug/_ext/1043829778/ffunicode.o
LOAD build/sam_e70_xult/debug/_ext/1893760823/diskio.o
LOAD build/sam_e70_xult/debug/_ext/1305476372/sys_fs.o
LOAD build/sam_e70_xult/debug/_ext/1305476372/sys_fs_media_manager.o
LOAD build/sam_e70_xult/debug/_ext/1305476372/sys_fs_fat_interface.o
LOAD build/sam_e70_xult/debug/_ext/766002106/sys_int.o
LOAD build/sam_e70_xult/debug/_ext/327803284/sys_time.o
LOAD build/sam_e70_xult/debug/_ext/1728594169/initialization.o
LOAD build/sam_e70_xult/debug/_ext/1728594169/interrupts.o
LOAD build/sam_e70_xult/debug/_ext/1728594169/exceptions.o
LOAD build/sam_e70_xult/debug/_ext/1728594169/startup_xc32.o
LOAD build/sam_e70_xult/debug/_ext/1728594169/libc_syscalls.o
LOAD build/sam_e70_xult/debug/_ext/1728594169/freertos_hooks.o
LOAD build/sam_e70_xult/debug/_ext/1728594169/tasks.o
LOAD build/sam_e70_xult/debug/_ext/977623654/port.o
LOAD build/sam_e70_xult/debug/_ext/1665200909/heap_1.o
LOAD build/sam_e70_xult/debug/_ext/404212886/croutine.o
LOAD build/sam_e70_xult/debug/_ext/404212886/list.o
LOAD build/sam_e70_xult/debug/_ext/404212886/queue.o
LOAD build/sam_e70_xult/debug/_ext/404212886/FreeRTOS_tasks.o
LOAD build/sam_e70_xult/debug/_ext/404212886/timers.o
LOAD build/sam_e70_xult/debug/_ext/404212886/event_groups.o
LOAD build/sam_e70_xult/debug/_ext/404212886/stream_buffer.o
LOAD build/sam_e70_xult/debug/_ext/1360937237/main.o
LOAD build/sam_e70_xult/debug/_ext/1360937237/app_communication.o
LOAD build/sam_e70_xult/debug/_ext/1360937237/app_mast_control.o
LOAD build/sam_e70_xult/debug/_ext/1360937237/app_course_algorithm.o
LOAD build/sam_e70_xult/debug/_ext/1360937237/app_rudder_control.o
LOAD build/sam_e70_xult/debug/_ext/1360937237/app_anemometer.o
LOAD build/sam_e70_xult/debug/_ext/1360937237/app_gps.o
LOAD build/sam_e70_xult/debug/_ext/1360937237/app_imu.o
                0x0000000000000001                __MPLAB_BUILD = 0x1
                0x0000000000600000                __rom_end = (ORIGIN (rom) + LENGTH (rom))
                0x0000000020460000                __ram_end = (ORIGIN (ram) + LENGTH (ram))

.config_D0000000
                0x00000000d0000000        0x4
 *(.config_D0000000)
 .config_D0000000
                0x00000000d0000000        0x4 build/sam_e70_xult/debug/_ext/1728594169/initialization.o

.config_D0000008
 *(.config_D0000008)

.config_D0000004
 *(.config_D0000004)

.config_D000000C
 *(.config_D000000C)

.config_D0000010
 *(.config_D0000010)

.vectors        0x0000000000400000      0x168
                0x0000000000400000                . = ALIGN (0x4)
                0x0000000000400000                _sfixed = .
 *(.vectors .vectors.* .vectors_default .vectors_default.*)
 .vectors       0x0000000000400000      0x168 build/sam_e70_xult/debug/_ext/1728594169/interrupts.o
                0x0000000000400000                exception_table
 *(.isr_vector)
 *(.reset*)
 *(.after_vectors)

.text           0x0000000000400168       0x20
                0x0000000000400168                . = ALIGN (0x4)
 *(.glue_7t)
 .glue_7t       0x0000000000400168        0x0 linker stubs
 *(.glue_7)
 .glue_7        0x0000000000400168        0x0 linker stubs
 *(.gnu.linkonce.r.*)
 *(.ARM.extab* .gnu.linkonce.armextab.*)
                0x0000000000400168                . = ALIGN (0x4)
 *(.init)
 .init          0x0000000000400168        0x4 c:/program files/microchip/xc32/v2.50/bin/bin/../../lib/gcc/pic32c/6.2.1/v7e-m/fpv5/hard/crti.o
                0x0000000000400168                _init
 .init          0x000000000040016c        0x8 c:/program files/microchip/xc32/v2.50/bin/bin/../../lib/gcc/pic32c/6.2.1/v7e-m/fpv5/hard/crtn.o
                0x0000000000400174                . = ALIGN (0x4)
                0x0000000000400174                __preinit_array_start = .
 *(.preinit_array)
                0x0000000000400174                __preinit_array_end = .
                0x0000000000400174                . = ALIGN (0x4)
                0x0000000000400174                __init_array_start = .
 *(SORT(.init_array.*))
 *(.init_array)
 .init_array    0x0000000000400174        0x4 c:/program files/microchip/xc32/v2.50/bin/bin/../../lib/gcc/pic32c/6.2.1/v7e-m/fpv5/hard/crtbegin.o
                0x0000000000400178                __init_array_end = .
                0x0000000000400178                . = ALIGN (0x4)
 *crtbegin.o(.ctors)
 *(EXCLUDE_FILE(*crtend.o) .ctors)
 *(SORT(.ctors.*))
 *crtend.o(.ctors)
                0x0000000000400178                . = ALIGN (0x4)
 *(.fini)
 .fini          0x0000000000400178        0x4 c:/program files/microchip/xc32/v2.50/bin/bin/../../lib/gcc/pic32c/6.2.1/v7e-m/fpv5/hard/crti.o
                0x0000000000400178                _fini
 .fini          0x000000000040017c        0x8 c:/program files/microchip/xc32/v2.50/bin/bin/../../lib/gcc/pic32c/6.2.1/v7e-m/fpv5/hard/crtn.o
                0x0000000000400184                . = ALIGN (0x4)
                0x0000000000400184                __fini_array_start = .
 *(.fini_array)
 .fini_array    0x0000000000400184        0x4 c:/program files/microchip/xc32/v2.50/bin/bin/../../lib/gcc/pic32c/6.2.1/v7e-m/fpv5/hard/crtbegin.o
 *(SORT(.fini_array.*))
                0x0000000000400188                __fini_array_end = .
 *crtbegin.o(.dtors)
 *(EXCLUDE_FILE(*crtend.o) .dtors)
 *(SORT(.dtors.*))
 *crtend.o(.dtors)
                0x0000000000400188                . = ALIGN (0x4)
                0x0000000000400188                _efixed = .
                [!provide]                        PROVIDE (__exidx_start, .)

.ARM.exidx      0x0000000000400188        0x8
 *(.ARM.exidx* .gnu.linkonce.armexidx.*)
 .ARM.exidx     0x0000000000400188        0x8 c:/program files/microchip/xc32/v2.50/bin/bin/../../lib/gcc/pic32c/6.2.1/v7e-m/fpv5/hard\libgcc.a(_udivmoddi4.o)
                [!provide]                        PROVIDE (__exidx_end, .)
                0x0000000000400190                . = ALIGN (0x4)
                0x0000000000400190                _etext = .

.bss            0x0000000020400000      0x88c
                0x0000000020400000                . = ALIGN (0x4)
                0x0000000020400000                __bss_start__ = .
                0x0000000020400000                _sbss = .
                0x0000000020400000                _szero = .
 *(COMMON)
 COMMON         0x0000000020400000       0x30 build/sam_e70_xult/debug/_ext/1055488423/plib_pio.o
                0x0000000020400000                portPinCbObj
 COMMON         0x0000000020400030        0x8 build/sam_e70_xult/debug/_ext/1055487991/plib_pwm0.o
                0x0000000020400030                PWM0_CallbackObj
 COMMON         0x0000000020400038        0x8 build/sam_e70_xult/debug/_ext/865331892/plib_tc3.o
                0x0000000020400038                TC3_CH0_CallbackObj
 COMMON         0x0000000020400040       0x30 build/sam_e70_xult/debug/_ext/707186936/plib_usart1.o
                0x0000000020400040                usart1Obj
 COMMON         0x0000000020400070       0x30 build/sam_e70_xult/debug/_ext/707186936/plib_usart0.o
                0x0000000020400070                usart0Obj
 COMMON         0x00000000204000a0       0x30 build/sam_e70_xult/debug/_ext/707186936/plib_usart2.o
                0x00000000204000a0                usart2Obj
 COMMON         0x00000000204000d0       0x10 build/sam_e70_xult/debug/_ext/704852250/plib_xdmac.o
                0x00000000204000d0                xdmacChannelObj
 COMMON         0x00000000204000e0      0x178 build/sam_e70_xult/debug/_ext/1305476372/sys_fs.o
                0x00000000204000e0                gSysFsMutex
                0x0000000020400100                gSYSFSFileObj
                0x0000000020400220                gSYSFSDirObj
                0x0000000020400230                gSYSFSCurrentMountPoint
                0x0000000020400238                gSYSFSObj
                0x0000000020400240                errorValue
                0x0000000020400244                gSYSFSMountPoint
 *fill*         0x0000000020400258        0x8 
 COMMON         0x0000000020400260      0x25c build/sam_e70_xult/debug/_ext/1305476372/sys_fs_media_manager.o
                0x0000000020400260                gSYSFSMediaObject
                0x0000000020400288                VolToPart
                0x00000000204002a0                gSYSFSMediaBuffer
                0x00000000204004a0                gSYSFSVolumeObject
 COMMON         0x00000000204004bc       0x18 build/sam_e70_xult/debug/_ext/1728594169/initialization.o
                0x00000000204004bc                sysObj
 COMMON         0x00000000204004d4       0x1c build/sam_e70_xult/debug/_ext/1728594169/tasks.o
                0x00000000204004d4                xAPP_RUDDER_CONTROL_Tasks
                0x00000000204004d8                xAPP_COURSE_ALGORITHM_Tasks
                0x00000000204004dc                xAPP_ANEMOMETER_Tasks
                0x00000000204004e0                xAPP_MAST_CONTROL_Tasks
                0x00000000204004e4                xAPP_COMMUNICATION_Tasks
                0x00000000204004e8                xAPP_GPS_Tasks
                0x00000000204004ec                xAPP_IMU_Tasks
 COMMON         0x00000000204004f0       0x50 build/sam_e70_xult/debug/_ext/1360937237/app_communication.o
                0x00000000204004f0                message_ptr
                0x00000000204004f4                destination
                0x0000000020400508                app_communicationData
 COMMON         0x0000000020400540        0x1 build/sam_e70_xult/debug/_ext/1360937237/app_mast_control.o
                0x0000000020400540                app_mast_controlData
 *fill*         0x0000000020400541        0x3 
 COMMON         0x0000000020400544       0xd0 build/sam_e70_xult/debug/_ext/1360937237/app_course_algorithm.o
                0x0000000020400544                IMU_info
                0x0000000020400548                GPS_info
                0x000000002040054c                Anemometer_info
                0x0000000020400550                app_course_algorithmData
 COMMON         0x0000000020400614       0x3c build/sam_e70_xult/debug/_ext/1360937237/app_rudder_control.o
                0x0000000020400614                angles
                0x000000002040061c                app_rudder_controlData
 COMMON         0x0000000020400650       0xc0 build/sam_e70_xult/debug/_ext/1360937237/app_anemometer.o
                0x0000000020400650                sdir
                0x0000000020400658                Anemometer_values
                0x00000000204006d8                app_anemometerData
 COMMON         0x0000000020400710       0xb8 build/sam_e70_xult/debug/_ext/1360937237/app_gps.o
                0x0000000020400710                app_gpsData
                0x0000000020400748                buf
 COMMON         0x00000000204007c8       0xc0 build/sam_e70_xult/debug/_ext/1360937237/app_imu.o
                0x00000000204007c8                IMU_values
                0x0000000020400848                sheading
                0x0000000020400850                app_imuData
 COMMON         0x0000000020400888        0x4 c:/program files/microchip/xc32/v2.50/bin/bin/../../lib/gcc/pic32c/6.2.1/../../../../pic32c/lib/v7e-m/fpv5/hard\libg_nano.a(lib_a-reent.o)
                0x0000000020400888                errno
                0x000000002040088c                . = ALIGN (0x4)
                0x000000002040088c                __bss_end__ = .
                0x000000002040088c                _ebss = .
                0x000000002040088c                _ezero = .
                0x000000002040088c                . = ALIGN (0x4)
                0x000000002040088c                _end = .
                0x000000002045ffff                _ram_end_ = ((ORIGIN (ram) + LENGTH (ram)) - 0x1)
                0x0000000000000001                __ICD2RAM = 0x1
                0x0000000000000001                __MPLAB_DEBUG = 0x1
                0x0000000000000001                __DEBUG = 0x1
                0x0000000000000200                _min_heap_size = 0x200
START GROUP
LOAD c:/program files/microchip/xc32/v2.50/bin/bin/../../lib/gcc/pic32c/6.2.1/../../../../pic32c/lib/v7e-m/fpv5/hard\libpic32c.a
LOAD c:/program files/microchip/xc32/v2.50/bin/bin/../../lib/gcc/pic32c/6.2.1/v7e-m/fpv5/hard\libgcc.a
LOAD c:/program files/microchip/xc32/v2.50/bin/bin/../../lib/gcc/pic32c/6.2.1/../../../../pic32c/lib/v7e-m/fpv5/hard\libg_nano.a
LOAD c:/program files/microchip/xc32/v2.50/bin/bin/../../lib/gcc/pic32c/6.2.1/../../../../pic32c/lib/v7e-m/fpv5/hard\libm_nano.a
LOAD c:/program files/microchip/xc32/v2.50/bin/bin/../../lib/gcc/pic32c/6.2.1/../../../../pic32c/lib/v7e-m/fpv5/hard\libc_nano.a
END GROUP
LOAD c:/program files/microchip/xc32/v2.50/bin/bin/../../lib/gcc/pic32c/6.2.1/v7e-m/fpv5/hard/crtend.o
LOAD c:/program files/microchip/xc32/v2.50/bin/bin/../../lib/gcc/pic32c/6.2.1/v7e-m/fpv5/hard/crtn.o
OUTPUT(dist/sam_e70_xult/debug/SailBoatProgram.X.debug.elf elf32-littlearm)
LOAD stack
LOAD data_init

.ARM.attributes
                0x0000000000000000       0x2e
 .ARM.attributes
                0x0000000000000000       0x20 c:/program files/microchip/xc32/v2.50/bin/bin/../../lib/gcc/pic32c/6.2.1/v7e-m/fpv5/hard/crti.o
 .ARM.attributes
                0x0000000000000020       0x32 c:/program files/microchip/xc32/v2.50/bin/bin/../../lib/gcc/pic32c/6.2.1/v7e-m/fpv5/hard/crtbegin.o
 .ARM.attributes
                0x0000000000000052       0x37 build/sam_e70_xult/debug/_ext/957281314/drv_i2c.o
 .ARM.attributes
                0x0000000000000089       0x37 build/sam_e70_xult/debug/_ext/1565510230/drv_sdmmc_file_system.o
 .ARM.attributes
                0x00000000000000c0       0x37 build/sam_e70_xult/debug/_ext/1565510230/drv_sdmmc.o
 .ARM.attributes
                0x00000000000000f7       0x37 build/sam_e70_xult/debug/_ext/716655881/drv_usart.o
 .ARM.attributes
                0x000000000000012e       0x37 build/sam_e70_xult/debug/_ext/1613695899/osal_freertos.o
 .ARM.attributes
                0x0000000000000165       0x37 build/sam_e70_xult/debug/_ext/1055500827/plib_clk.o
 .ARM.attributes
                0x000000000000019c       0x37 build/sam_e70_xult/debug/_ext/1055499099/plib_efc.o
 .ARM.attributes
                0x00000000000001d3       0x37 build/sam_e70_xult/debug/_ext/719181653/plib_hsmci.o
 .ARM.attributes
                0x000000000000020a       0x37 build/sam_e70_xult/debug/_ext/1639550079/plib_nvic.o
 .ARM.attributes
                0x0000000000000241       0x37 build/sam_e70_xult/debug/_ext/1055488423/plib_pio.o
 .ARM.attributes
                0x0000000000000278       0x37 build/sam_e70_xult/debug/_ext/1055487991/plib_pwm0.o
 .ARM.attributes
                0x00000000000002af       0x37 build/sam_e70_xult/debug/_ext/865331892/plib_tc3.o
 .ARM.attributes
                0x00000000000002e6       0x37 build/sam_e70_xult/debug/_ext/1539215101/plib_twihs0_master.o
 .ARM.attributes
                0x000000000000031d       0x37 build/sam_e70_xult/debug/_ext/707186936/plib_usart1.o
 .ARM.attributes
                0x0000000000000354       0x37 build/sam_e70_xult/debug/_ext/707186936/plib_usart0.o
 .ARM.attributes
                0x000000000000038b       0x37 build/sam_e70_xult/debug/_ext/707186936/plib_usart2.o
 .ARM.attributes
                0x00000000000003c2       0x37 build/sam_e70_xult/debug/_ext/704852250/plib_xdmac.o
 .ARM.attributes
                0x00000000000003f9       0x37 build/sam_e70_xult/debug/_ext/876653320/sys_cache.o
 .ARM.attributes
                0x0000000000000430       0x37 build/sam_e70_xult/debug/_ext/984150034/sys_dma.o
 .ARM.attributes
                0x0000000000000467       0x37 build/sam_e70_xult/debug/_ext/1043829778/ff.o
 .ARM.attributes
                0x000000000000049e       0x37 build/sam_e70_xult/debug/_ext/1043829778/ffunicode.o
 .ARM.attributes
                0x00000000000004d5       0x37 build/sam_e70_xult/debug/_ext/1893760823/diskio.o
 .ARM.attributes
                0x000000000000050c       0x37 build/sam_e70_xult/debug/_ext/1305476372/sys_fs.o
 .ARM.attributes
                0x0000000000000543       0x37 build/sam_e70_xult/debug/_ext/1305476372/sys_fs_media_manager.o
 .ARM.attributes
                0x000000000000057a       0x37 build/sam_e70_xult/debug/_ext/1305476372/sys_fs_fat_interface.o
 .ARM.attributes
                0x00000000000005b1       0x37 build/sam_e70_xult/debug/_ext/766002106/sys_int.o
 .ARM.attributes
                0x00000000000005e8       0x37 build/sam_e70_xult/debug/_ext/327803284/sys_time.o
 .ARM.attributes
                0x000000000000061f       0x37 build/sam_e70_xult/debug/_ext/1728594169/initialization.o
 .ARM.attributes
                0x0000000000000656       0x37 build/sam_e70_xult/debug/_ext/1728594169/interrupts.o
 .ARM.attributes
                0x000000000000068d       0x37 build/sam_e70_xult/debug/_ext/1728594169/exceptions.o
 .ARM.attributes
                0x00000000000006c4       0x37 build/sam_e70_xult/debug/_ext/1728594169/startup_xc32.o
 .ARM.attributes
                0x00000000000006fb       0x37 build/sam_e70_xult/debug/_ext/1728594169/freertos_hooks.o
 .ARM.attributes
                0x0000000000000732       0x37 build/sam_e70_xult/debug/_ext/1728594169/tasks.o
 .ARM.attributes
                0x0000000000000769       0x37 build/sam_e70_xult/debug/_ext/977623654/port.o
 .ARM.attributes
                0x00000000000007a0       0x37 build/sam_e70_xult/debug/_ext/1665200909/heap_1.o
 .ARM.attributes
                0x00000000000007d7       0x37 build/sam_e70_xult/debug/_ext/404212886/list.o
 .ARM.attributes
                0x000000000000080e       0x37 build/sam_e70_xult/debug/_ext/404212886/queue.o
 .ARM.attributes
                0x0000000000000845       0x37 build/sam_e70_xult/debug/_ext/404212886/FreeRTOS_tasks.o
 .ARM.attributes
                0x000000000000087c       0x37 build/sam_e70_xult/debug/_ext/1360937237/main.o
 .ARM.attributes
                0x00000000000008b3       0x37 build/sam_e70_xult/debug/_ext/1360937237/app_communication.o
 .ARM.attributes
                0x00000000000008ea       0x37 build/sam_e70_xult/debug/_ext/1360937237/app_mast_control.o
 .ARM.attributes
                0x0000000000000921       0x37 build/sam_e70_xult/debug/_ext/1360937237/app_course_algorithm.o
 .ARM.attributes
                0x0000000000000958       0x37 build/sam_e70_xult/debug/_ext/1360937237/app_rudder_control.o
 .ARM.attributes
                0x000000000000098f       0x37 build/sam_e70_xult/debug/_ext/1360937237/app_anemometer.o
 .ARM.attributes
                0x00000000000009c6       0x37 build/sam_e70_xult/debug/_ext/1360937237/app_gps.o
 .ARM.attributes
                0x00000000000009fd       0x37 build/sam_e70_xult/debug/_ext/1360937237/app_imu.o
 .ARM.attributes
                0x0000000000000a34       0x32 c:/program files/microchip/xc32/v2.50/bin/bin/../../lib/gcc/pic32c/6.2.1/../../../../pic32c/lib/v7e-m/fpv5/hard\libpic32c.a(data_init.o)
 .ARM.attributes
                0x0000000000000a66       0x20 c:/program files/microchip/xc32/v2.50/bin/bin/../../lib/gcc/pic32c/6.2.1/v7e-m/fpv5/hard\libgcc.a(_aeabi_uldivmod.o)
 .ARM.attributes
                0x0000000000000a86       0x32 c:/program files/microchip/xc32/v2.50/bin/bin/../../lib/gcc/pic32c/6.2.1/v7e-m/fpv5/hard\libgcc.a(_udivmoddi4.o)
 .ARM.attributes
                0x0000000000000ab8       0x20 c:/program files/microchip/xc32/v2.50/bin/bin/../../lib/gcc/pic32c/6.2.1/v7e-m/fpv5/hard\libgcc.a(_dvmd_tls.o)
 .ARM.attributes
                0x0000000000000ad8       0x32 c:/program files/microchip/xc32/v2.50/bin/bin/../../lib/gcc/pic32c/6.2.1/../../../../pic32c/lib/v7e-m/fpv5/hard\libg_nano.a(lib_a-atof.o)
 .ARM.attributes
                0x0000000000000b0a       0x32 c:/program files/microchip/xc32/v2.50/bin/bin/../../lib/gcc/pic32c/6.2.1/../../../../pic32c/lib/v7e-m/fpv5/hard\libg_nano.a(lib_a-atoi.o)
 .ARM.attributes
                0x0000000000000b3c       0x32 c:/program files/microchip/xc32/v2.50/bin/bin/../../lib/gcc/pic32c/6.2.1/../../../../pic32c/lib/v7e-m/fpv5/hard\libg_nano.a(lib_a-init.o)
 .ARM.attributes
                0x0000000000000b6e       0x32 c:/program files/microchip/xc32/v2.50/bin/bin/../../lib/gcc/pic32c/6.2.1/../../../../pic32c/lib/v7e-m/fpv5/hard\libg_nano.a(lib_a-itoa.o)
 .ARM.attributes
                0x0000000000000ba0       0x32 c:/program files/microchip/xc32/v2.50/bin/bin/../../lib/gcc/pic32c/6.2.1/../../../../pic32c/lib/v7e-m/fpv5/hard\libg_nano.a(lib_a-locale.o)
 .ARM.attributes
                0x0000000000000bd2       0x32 c:/program files/microchip/xc32/v2.50/bin/bin/../../lib/gcc/pic32c/6.2.1/../../../../pic32c/lib/v7e-m/fpv5/hard\libg_nano.a(lib_a-malloc.o)
 .ARM.attributes
                0x0000000000000c04       0x32 c:/program files/microchip/xc32/v2.50/bin/bin/../../lib/gcc/pic32c/6.2.1/../../../../pic32c/lib/v7e-m/fpv5/hard\libg_nano.a(lib_a-mbtowc_r.o)
 .ARM.attributes
                0x0000000000000c36       0x32 c:/program files/microchip/xc32/v2.50/bin/bin/../../lib/gcc/pic32c/6.2.1/../../../../pic32c/lib/v7e-m/fpv5/hard\libg_nano.a(lib_a-memcpy-stub.o)
 .ARM.attributes
                0x0000000000000c68       0x32 c:/program files/microchip/xc32/v2.50/bin/bin/../../lib/gcc/pic32c/6.2.1/../../../../pic32c/lib/v7e-m/fpv5/hard\libg_nano.a(lib_a-memset.o)
 .ARM.attributes
                0x0000000000000c9a       0x32 c:/program files/microchip/xc32/v2.50/bin/bin/../../lib/gcc/pic32c/6.2.1/../../../../pic32c/lib/v7e-m/fpv5/hard\libg_nano.a(lib_a-nano-mallocr.o)
 .ARM.attributes
                0x0000000000000ccc       0x32 c:/program files/microchip/xc32/v2.50/bin/bin/../../lib/gcc/pic32c/6.2.1/../../../../pic32c/lib/v7e-m/fpv5/hard\libg_nano.a(lib_a-sbrkr.o)
 .ARM.attributes
                0x0000000000000cfe       0x32 c:/program files/microchip/xc32/v2.50/bin/bin/../../lib/gcc/pic32c/6.2.1/../../../../pic32c/lib/v7e-m/fpv5/hard\libg_nano.a(lib_a-strchr.o)
 .ARM.attributes
                0x0000000000000d30       0x32 c:/program files/microchip/xc32/v2.50/bin/bin/../../lib/gcc/pic32c/6.2.1/../../../../pic32c/lib/v7e-m/fpv5/hard\libg_nano.a(lib_a-strcpy.o)
 .ARM.attributes
                0x0000000000000d62       0x19 c:/program files/microchip/xc32/v2.50/bin/bin/../../lib/gcc/pic32c/6.2.1/../../../../pic32c/lib/v7e-m/fpv5/hard\libg_nano.a(lib_a-strlen.o)
 .ARM.attributes
                0x0000000000000d7b       0x32 c:/program files/microchip/xc32/v2.50/bin/bin/../../lib/gcc/pic32c/6.2.1/../../../../pic32c/lib/v7e-m/fpv5/hard\libg_nano.a(lib_a-strncmp.o)
 .ARM.attributes
                0x0000000000000dad       0x32 c:/program files/microchip/xc32/v2.50/bin/bin/../../lib/gcc/pic32c/6.2.1/../../../../pic32c/lib/v7e-m/fpv5/hard\libg_nano.a(lib_a-strncpy.o)
 .ARM.attributes
                0x0000000000000ddf       0x32 c:/program files/microchip/xc32/v2.50/bin/bin/../../lib/gcc/pic32c/6.2.1/../../../../pic32c/lib/v7e-m/fpv5/hard\libg_nano.a(lib_a-strtod.o)
 .ARM.attributes
                0x0000000000000e11       0x32 c:/program files/microchip/xc32/v2.50/bin/bin/../../lib/gcc/pic32c/6.2.1/../../../../pic32c/lib/v7e-m/fpv5/hard\libg_nano.a(lib_a-strtol.o)
 .ARM.attributes
                0x0000000000000e43       0x32 c:/program files/microchip/xc32/v2.50/bin/bin/../../lib/gcc/pic32c/6.2.1/../../../../pic32c/lib/v7e-m/fpv5/hard\libg_nano.a(lib_a-utoa.o)
 .ARM.attributes
                0x0000000000000e75       0x32 c:/program files/microchip/xc32/v2.50/bin/bin/../../lib/gcc/pic32c/6.2.1/../../../../pic32c/lib/v7e-m/fpv5/hard\libg_nano.a(lib_a-wctomb_r.o)
 .ARM.attributes
                0x0000000000000ea7       0x32 c:/program files/microchip/xc32/v2.50/bin/bin/../../lib/gcc/pic32c/6.2.1/../../../../pic32c/lib/v7e-m/fpv5/hard\libg_nano.a(lib_a-ctype_.o)
 .ARM.attributes
                0x0000000000000ed9       0x32 c:/program files/microchip/xc32/v2.50/bin/bin/../../lib/gcc/pic32c/6.2.1/../../../../pic32c/lib/v7e-m/fpv5/hard\libg_nano.a(lib_a-gdtoa-gethex.o)
 .ARM.attributes
                0x0000000000000f0b       0x32 c:/program files/microchip/xc32/v2.50/bin/bin/../../lib/gcc/pic32c/6.2.1/../../../../pic32c/lib/v7e-m/fpv5/hard\libg_nano.a(lib_a-gdtoa-hexnan.o)
 .ARM.attributes
                0x0000000000000f3d       0x32 c:/program files/microchip/xc32/v2.50/bin/bin/../../lib/gcc/pic32c/6.2.1/../../../../pic32c/lib/v7e-m/fpv5/hard\libg_nano.a(lib_a-impure.o)
 .ARM.attributes
                0x0000000000000f6f       0x32 c:/program files/microchip/xc32/v2.50/bin/bin/../../lib/gcc/pic32c/6.2.1/../../../../pic32c/lib/v7e-m/fpv5/hard\libg_nano.a(lib_a-localeconv.o)
 .ARM.attributes
                0x0000000000000fa1       0x32 c:/program files/microchip/xc32/v2.50/bin/bin/../../lib/gcc/pic32c/6.2.1/../../../../pic32c/lib/v7e-m/fpv5/hard\libg_nano.a(lib_a-mlock.o)
 .ARM.attributes
                0x0000000000000fd3       0x32 c:/program files/microchip/xc32/v2.50/bin/bin/../../lib/gcc/pic32c/6.2.1/../../../../pic32c/lib/v7e-m/fpv5/hard\libg_nano.a(lib_a-mprec.o)
 .ARM.attributes
                0x0000000000001005       0x32 c:/program files/microchip/xc32/v2.50/bin/bin/../../lib/gcc/pic32c/6.2.1/../../../../pic32c/lib/v7e-m/fpv5/hard\libg_nano.a(lib_a-nano-callocr.o)
 .ARM.attributes
                0x0000000000001037       0x32 c:/program files/microchip/xc32/v2.50/bin/bin/../../lib/gcc/pic32c/6.2.1/../../../../pic32c/lib/v7e-m/fpv5/hard\libg_nano.a(lib_a-reent.o)
 .ARM.attributes
                0x0000000000001069       0x32 c:/program files/microchip/xc32/v2.50/bin/bin/../../lib/gcc/pic32c/6.2.1/../../../../pic32c/lib/v7e-m/fpv5/hard\libm_nano.a(lib_a-s_cos.o)
 .ARM.attributes
                0x000000000000109b       0x32 c:/program files/microchip/xc32/v2.50/bin/bin/../../lib/gcc/pic32c/6.2.1/../../../../pic32c/lib/v7e-m/fpv5/hard\libm_nano.a(lib_a-s_sin.o)
 .ARM.attributes
                0x00000000000010cd       0x32 c:/program files/microchip/xc32/v2.50/bin/bin/../../lib/gcc/pic32c/6.2.1/../../../../pic32c/lib/v7e-m/fpv5/hard\libm_nano.a(lib_a-w_atan2.o)
 .ARM.attributes
                0x00000000000010ff       0x32 c:/program files/microchip/xc32/v2.50/bin/bin/../../lib/gcc/pic32c/6.2.1/../../../../pic32c/lib/v7e-m/fpv5/hard\libm_nano.a(lib_a-w_sqrt.o)
 .ARM.attributes
                0x0000000000001131       0x32 c:/program files/microchip/xc32/v2.50/bin/bin/../../lib/gcc/pic32c/6.2.1/../../../../pic32c/lib/v7e-m/fpv5/hard\libm_nano.a(lib_a-e_atan2.o)
 .ARM.attributes
                0x0000000000001163       0x32 c:/program files/microchip/xc32/v2.50/bin/bin/../../lib/gcc/pic32c/6.2.1/../../../../pic32c/lib/v7e-m/fpv5/hard\libm_nano.a(lib_a-e_rem_pio2.o)
 .ARM.attributes
                0x0000000000001195       0x32 c:/program files/microchip/xc32/v2.50/bin/bin/../../lib/gcc/pic32c/6.2.1/../../../../pic32c/lib/v7e-m/fpv5/hard\libm_nano.a(lib_a-e_sqrt.o)
 .ARM.attributes
                0x00000000000011c7       0x32 c:/program files/microchip/xc32/v2.50/bin/bin/../../lib/gcc/pic32c/6.2.1/../../../../pic32c/lib/v7e-m/fpv5/hard\libm_nano.a(lib_a-k_cos.o)
 .ARM.attributes
                0x00000000000011f9       0x32 c:/program files/microchip/xc32/v2.50/bin/bin/../../lib/gcc/pic32c/6.2.1/../../../../pic32c/lib/v7e-m/fpv5/hard\libm_nano.a(lib_a-k_rem_pio2.o)
 .ARM.attributes
                0x000000000000122b       0x32 c:/program files/microchip/xc32/v2.50/bin/bin/../../lib/gcc/pic32c/6.2.1/../../../../pic32c/lib/v7e-m/fpv5/hard\libm_nano.a(lib_a-k_sin.o)
 .ARM.attributes
                0x000000000000125d       0x32 c:/program files/microchip/xc32/v2.50/bin/bin/../../lib/gcc/pic32c/6.2.1/../../../../pic32c/lib/v7e-m/fpv5/hard\libm_nano.a(lib_a-s_atan.o)
 .ARM.attributes
                0x000000000000128f       0x32 c:/program files/microchip/xc32/v2.50/bin/bin/../../lib/gcc/pic32c/6.2.1/../../../../pic32c/lib/v7e-m/fpv5/hard\libm_nano.a(lib_a-s_fabs.o)
 .ARM.attributes
                0x00000000000012c1       0x32 c:/program files/microchip/xc32/v2.50/bin/bin/../../lib/gcc/pic32c/6.2.1/../../../../pic32c/lib/v7e-m/fpv5/hard\libm_nano.a(lib_a-s_floor.o)
 .ARM.attributes
                0x00000000000012f3       0x32 c:/program files/microchip/xc32/v2.50/bin/bin/../../lib/gcc/pic32c/6.2.1/../../../../pic32c/lib/v7e-m/fpv5/hard\libm_nano.a(lib_a-s_lib_ver.o)
 .ARM.attributes
                0x0000000000001325       0x32 c:/program files/microchip/xc32/v2.50/bin/bin/../../lib/gcc/pic32c/6.2.1/../../../../pic32c/lib/v7e-m/fpv5/hard\libm_nano.a(lib_a-s_matherr.o)
 .ARM.attributes
                0x0000000000001357       0x32 c:/program files/microchip/xc32/v2.50/bin/bin/../../lib/gcc/pic32c/6.2.1/../../../../pic32c/lib/v7e-m/fpv5/hard\libm_nano.a(lib_a-s_scalbn.o)
 .ARM.attributes
                0x0000000000001389       0x32 c:/program files/microchip/xc32/v2.50/bin/bin/../../lib/gcc/pic32c/6.2.1/../../../../pic32c/lib/v7e-m/fpv5/hard\libm_nano.a(lib_a-s_copysign.o)
 .ARM.attributes
                0x00000000000013bb       0x32 c:/program files/microchip/xc32/v2.50/bin/bin/../../lib/gcc/pic32c/6.2.1/../../../../pic32c/lib/v7e-m/fpv5/hard\libc_nano.a(lib_a-errno.o)
 .ARM.attributes
                0x00000000000013ed       0x32 c:/program files/microchip/xc32/v2.50/bin/bin/../../lib/gcc/pic32c/6.2.1/../../../../pic32c/lib/v7e-m/fpv5/hard\libpic32c.a(sbrk.o)
 .ARM.attributes
                0x000000000000141f       0x20 c:/program files/microchip/xc32/v2.50/bin/bin/../../lib/gcc/pic32c/6.2.1/v7e-m/fpv5/hard/crtn.o

.comment        0x0000000000000000       0x3c
 .comment       0x0000000000000000       0x3c c:/program files/microchip/xc32/v2.50/bin/bin/../../lib/gcc/pic32c/6.2.1/v7e-m/fpv5/hard/crtbegin.o
                                         0x3d (size before relaxing)
 .comment       0x000000000000003c       0x3d build/sam_e70_xult/debug/_ext/957281314/drv_i2c.o
 .comment       0x000000000000003c       0x3d build/sam_e70_xult/debug/_ext/1565510230/drv_sdmmc_file_system.o
 .comment       0x000000000000003c       0x3d build/sam_e70_xult/debug/_ext/1565510230/drv_sdmmc.o
 .comment       0x000000000000003c       0x3d build/sam_e70_xult/debug/_ext/716655881/drv_usart.o
 .comment       0x000000000000003c       0x3d build/sam_e70_xult/debug/_ext/1613695899/osal_freertos.o
 .comment       0x000000000000003c       0x3d build/sam_e70_xult/debug/_ext/1055500827/plib_clk.o
 .comment       0x000000000000003c       0x3d build/sam_e70_xult/debug/_ext/1055499099/plib_efc.o
 .comment       0x000000000000003c       0x3d build/sam_e70_xult/debug/_ext/719181653/plib_hsmci.o
 .comment       0x000000000000003c       0x3d build/sam_e70_xult/debug/_ext/1639550079/plib_nvic.o
 .comment       0x000000000000003c       0x3d build/sam_e70_xult/debug/_ext/1055488423/plib_pio.o
 .comment       0x000000000000003c       0x3d build/sam_e70_xult/debug/_ext/1055487991/plib_pwm0.o
 .comment       0x000000000000003c       0x3d build/sam_e70_xult/debug/_ext/865331892/plib_tc3.o
 .comment       0x000000000000003c       0x3d build/sam_e70_xult/debug/_ext/1539215101/plib_twihs0_master.o
 .comment       0x000000000000003c       0x3d build/sam_e70_xult/debug/_ext/707186936/plib_usart1.o
 .comment       0x000000000000003c       0x3d build/sam_e70_xult/debug/_ext/707186936/plib_usart0.o
 .comment       0x000000000000003c       0x3d build/sam_e70_xult/debug/_ext/707186936/plib_usart2.o
 .comment       0x000000000000003c       0x3d build/sam_e70_xult/debug/_ext/704852250/plib_xdmac.o
 .comment       0x000000000000003c       0x3d build/sam_e70_xult/debug/_ext/876653320/sys_cache.o
 .comment       0x000000000000003c       0x3d build/sam_e70_xult/debug/_ext/984150034/sys_dma.o
 .comment       0x000000000000003c       0x3d build/sam_e70_xult/debug/_ext/1043829778/ff.o
 .comment       0x000000000000003c       0x3d build/sam_e70_xult/debug/_ext/1043829778/ffunicode.o
 .comment       0x000000000000003c       0x3d build/sam_e70_xult/debug/_ext/1893760823/diskio.o
 .comment       0x000000000000003c       0x3d build/sam_e70_xult/debug/_ext/1305476372/sys_fs.o
 .comment       0x000000000000003c       0x3d build/sam_e70_xult/debug/_ext/1305476372/sys_fs_media_manager.o
 .comment       0x000000000000003c       0x3d build/sam_e70_xult/debug/_ext/1305476372/sys_fs_fat_interface.o
 .comment       0x000000000000003c       0x3d build/sam_e70_xult/debug/_ext/766002106/sys_int.o
 .comment       0x000000000000003c       0x3d build/sam_e70_xult/debug/_ext/327803284/sys_time.o
 .comment       0x000000000000003c       0x3d build/sam_e70_xult/debug/_ext/1728594169/initialization.o
 .comment       0x000000000000003c       0x3d build/sam_e70_xult/debug/_ext/1728594169/interrupts.o
 .comment       0x000000000000003c       0x3d build/sam_e70_xult/debug/_ext/1728594169/exceptions.o
 .comment       0x000000000000003c       0x3d build/sam_e70_xult/debug/_ext/1728594169/startup_xc32.o
 .comment       0x000000000000003c       0x3d build/sam_e70_xult/debug/_ext/1728594169/freertos_hooks.o
 .comment       0x000000000000003c       0x3d build/sam_e70_xult/debug/_ext/1728594169/tasks.o
 .comment       0x000000000000003c       0x3d build/sam_e70_xult/debug/_ext/977623654/port.o
 .comment       0x000000000000003c       0x3d build/sam_e70_xult/debug/_ext/1665200909/heap_1.o
 .comment       0x000000000000003c       0x3d build/sam_e70_xult/debug/_ext/404212886/list.o
 .comment       0x000000000000003c       0x3d build/sam_e70_xult/debug/_ext/404212886/queue.o
 .comment       0x000000000000003c       0x3d build/sam_e70_xult/debug/_ext/404212886/FreeRTOS_tasks.o
 .comment       0x000000000000003c       0x3d build/sam_e70_xult/debug/_ext/1360937237/main.o
 .comment       0x000000000000003c       0x3d build/sam_e70_xult/debug/_ext/1360937237/app_communication.o
 .comment       0x000000000000003c       0x3d build/sam_e70_xult/debug/_ext/1360937237/app_mast_control.o
 .comment       0x000000000000003c       0x3d build/sam_e70_xult/debug/_ext/1360937237/app_course_algorithm.o
 .comment       0x000000000000003c       0x3d build/sam_e70_xult/debug/_ext/1360937237/app_rudder_control.o
 .comment       0x000000000000003c       0x3d build/sam_e70_xult/debug/_ext/1360937237/app_anemometer.o
 .comment       0x000000000000003c       0x3d build/sam_e70_xult/debug/_ext/1360937237/app_gps.o
 .comment       0x000000000000003c       0x3d build/sam_e70_xult/debug/_ext/1360937237/app_imu.o
 .comment       0x000000000000003c       0x3d c:/program files/microchip/xc32/v2.50/bin/bin/../../lib/gcc/pic32c/6.2.1/../../../../pic32c/lib/v7e-m/fpv5/hard\libpic32c.a(data_init.o)
 .comment       0x000000000000003c       0x3d c:/program files/microchip/xc32/v2.50/bin/bin/../../lib/gcc/pic32c/6.2.1/v7e-m/fpv5/hard\libgcc.a(_udivmoddi4.o)
 .comment       0x000000000000003c       0x3d c:/program files/microchip/xc32/v2.50/bin/bin/../../lib/gcc/pic32c/6.2.1/../../../../pic32c/lib/v7e-m/fpv5/hard\libg_nano.a(lib_a-atof.o)
 .comment       0x000000000000003c       0x3d c:/program files/microchip/xc32/v2.50/bin/bin/../../lib/gcc/pic32c/6.2.1/../../../../pic32c/lib/v7e-m/fpv5/hard\libg_nano.a(lib_a-atoi.o)
 .comment       0x000000000000003c       0x3d c:/program files/microchip/xc32/v2.50/bin/bin/../../lib/gcc/pic32c/6.2.1/../../../../pic32c/lib/v7e-m/fpv5/hard\libg_nano.a(lib_a-init.o)
 .comment       0x000000000000003c       0x3d c:/program files/microchip/xc32/v2.50/bin/bin/../../lib/gcc/pic32c/6.2.1/../../../../pic32c/lib/v7e-m/fpv5/hard\libg_nano.a(lib_a-itoa.o)
 .comment       0x000000000000003c       0x3d c:/program files/microchip/xc32/v2.50/bin/bin/../../lib/gcc/pic32c/6.2.1/../../../../pic32c/lib/v7e-m/fpv5/hard\libg_nano.a(lib_a-locale.o)
 .comment       0x000000000000003c       0x3d c:/program files/microchip/xc32/v2.50/bin/bin/../../lib/gcc/pic32c/6.2.1/../../../../pic32c/lib/v7e-m/fpv5/hard\libg_nano.a(lib_a-malloc.o)
 .comment       0x000000000000003c       0x3d c:/program files/microchip/xc32/v2.50/bin/bin/../../lib/gcc/pic32c/6.2.1/../../../../pic32c/lib/v7e-m/fpv5/hard\libg_nano.a(lib_a-mbtowc_r.o)
 .comment       0x000000000000003c       0x3d c:/program files/microchip/xc32/v2.50/bin/bin/../../lib/gcc/pic32c/6.2.1/../../../../pic32c/lib/v7e-m/fpv5/hard\libg_nano.a(lib_a-memcpy-stub.o)
 .comment       0x000000000000003c       0x3d c:/program files/microchip/xc32/v2.50/bin/bin/../../lib/gcc/pic32c/6.2.1/../../../../pic32c/lib/v7e-m/fpv5/hard\libg_nano.a(lib_a-memset.o)
 .comment       0x000000000000003c       0x3d c:/program files/microchip/xc32/v2.50/bin/bin/../../lib/gcc/pic32c/6.2.1/../../../../pic32c/lib/v7e-m/fpv5/hard\libg_nano.a(lib_a-nano-mallocr.o)
 .comment       0x000000000000003c       0x3d c:/program files/microchip/xc32/v2.50/bin/bin/../../lib/gcc/pic32c/6.2.1/../../../../pic32c/lib/v7e-m/fpv5/hard\libg_nano.a(lib_a-sbrkr.o)
 .comment       0x000000000000003c       0x3d c:/program files/microchip/xc32/v2.50/bin/bin/../../lib/gcc/pic32c/6.2.1/../../../../pic32c/lib/v7e-m/fpv5/hard\libg_nano.a(lib_a-strchr.o)
 .comment       0x000000000000003c       0x3d c:/program files/microchip/xc32/v2.50/bin/bin/../../lib/gcc/pic32c/6.2.1/../../../../pic32c/lib/v7e-m/fpv5/hard\libg_nano.a(lib_a-strcpy.o)
 .comment       0x000000000000003c       0x3d c:/program files/microchip/xc32/v2.50/bin/bin/../../lib/gcc/pic32c/6.2.1/../../../../pic32c/lib/v7e-m/fpv5/hard\libg_nano.a(lib_a-strncmp.o)
 .comment       0x000000000000003c       0x3d c:/program files/microchip/xc32/v2.50/bin/bin/../../lib/gcc/pic32c/6.2.1/../../../../pic32c/lib/v7e-m/fpv5/hard\libg_nano.a(lib_a-strncpy.o)
 .comment       0x000000000000003c       0x3d c:/program files/microchip/xc32/v2.50/bin/bin/../../lib/gcc/pic32c/6.2.1/../../../../pic32c/lib/v7e-m/fpv5/hard\libg_nano.a(lib_a-strtod.o)
 .comment       0x000000000000003c       0x3d c:/program files/microchip/xc32/v2.50/bin/bin/../../lib/gcc/pic32c/6.2.1/../../../../pic32c/lib/v7e-m/fpv5/hard\libg_nano.a(lib_a-strtol.o)
 .comment       0x000000000000003c       0x3d c:/program files/microchip/xc32/v2.50/bin/bin/../../lib/gcc/pic32c/6.2.1/../../../../pic32c/lib/v7e-m/fpv5/hard\libg_nano.a(lib_a-utoa.o)
 .comment       0x000000000000003c       0x3d c:/program files/microchip/xc32/v2.50/bin/bin/../../lib/gcc/pic32c/6.2.1/../../../../pic32c/lib/v7e-m/fpv5/hard\libg_nano.a(lib_a-wctomb_r.o)
 .comment       0x000000000000003c       0x3d c:/program files/microchip/xc32/v2.50/bin/bin/../../lib/gcc/pic32c/6.2.1/../../../../pic32c/lib/v7e-m/fpv5/hard\libg_nano.a(lib_a-ctype_.o)
 .comment       0x000000000000003c       0x3d c:/program files/microchip/xc32/v2.50/bin/bin/../../lib/gcc/pic32c/6.2.1/../../../../pic32c/lib/v7e-m/fpv5/hard\libg_nano.a(lib_a-gdtoa-gethex.o)
 .comment       0x000000000000003c       0x3d c:/program files/microchip/xc32/v2.50/bin/bin/../../lib/gcc/pic32c/6.2.1/../../../../pic32c/lib/v7e-m/fpv5/hard\libg_nano.a(lib_a-gdtoa-hexnan.o)
 .comment       0x000000000000003c       0x3d c:/program files/microchip/xc32/v2.50/bin/bin/../../lib/gcc/pic32c/6.2.1/../../../../pic32c/lib/v7e-m/fpv5/hard\libg_nano.a(lib_a-impure.o)
 .comment       0x000000000000003c       0x3d c:/program files/microchip/xc32/v2.50/bin/bin/../../lib/gcc/pic32c/6.2.1/../../../../pic32c/lib/v7e-m/fpv5/hard\libg_nano.a(lib_a-localeconv.o)
 .comment       0x000000000000003c       0x3d c:/program files/microchip/xc32/v2.50/bin/bin/../../lib/gcc/pic32c/6.2.1/../../../../pic32c/lib/v7e-m/fpv5/hard\libg_nano.a(lib_a-mlock.o)
 .comment       0x000000000000003c       0x3d c:/program files/microchip/xc32/v2.50/bin/bin/../../lib/gcc/pic32c/6.2.1/../../../../pic32c/lib/v7e-m/fpv5/hard\libg_nano.a(lib_a-mprec.o)
 .comment       0x000000000000003c       0x3d c:/program files/microchip/xc32/v2.50/bin/bin/../../lib/gcc/pic32c/6.2.1/../../../../pic32c/lib/v7e-m/fpv5/hard\libg_nano.a(lib_a-nano-callocr.o)
 .comment       0x000000000000003c       0x3d c:/program files/microchip/xc32/v2.50/bin/bin/../../lib/gcc/pic32c/6.2.1/../../../../pic32c/lib/v7e-m/fpv5/hard\libg_nano.a(lib_a-reent.o)
 .comment       0x000000000000003c       0x3d c:/program files/microchip/xc32/v2.50/bin/bin/../../lib/gcc/pic32c/6.2.1/../../../../pic32c/lib/v7e-m/fpv5/hard\libm_nano.a(lib_a-s_cos.o)
 .comment       0x000000000000003c       0x3d c:/program files/microchip/xc32/v2.50/bin/bin/../../lib/gcc/pic32c/6.2.1/../../../../pic32c/lib/v7e-m/fpv5/hard\libm_nano.a(lib_a-s_sin.o)
 .comment       0x000000000000003c       0x3d c:/program files/microchip/xc32/v2.50/bin/bin/../../lib/gcc/pic32c/6.2.1/../../../../pic32c/lib/v7e-m/fpv5/hard\libm_nano.a(lib_a-w_atan2.o)
 .comment       0x000000000000003c       0x3d c:/program files/microchip/xc32/v2.50/bin/bin/../../lib/gcc/pic32c/6.2.1/../../../../pic32c/lib/v7e-m/fpv5/hard\libm_nano.a(lib_a-w_sqrt.o)
 .comment       0x000000000000003c       0x3d c:/program files/microchip/xc32/v2.50/bin/bin/../../lib/gcc/pic32c/6.2.1/../../../../pic32c/lib/v7e-m/fpv5/hard\libm_nano.a(lib_a-e_atan2.o)
 .comment       0x000000000000003c       0x3d c:/program files/microchip/xc32/v2.50/bin/bin/../../lib/gcc/pic32c/6.2.1/../../../../pic32c/lib/v7e-m/fpv5/hard\libm_nano.a(lib_a-e_rem_pio2.o)
 .comment       0x000000000000003c       0x3d c:/program files/microchip/xc32/v2.50/bin/bin/../../lib/gcc/pic32c/6.2.1/../../../../pic32c/lib/v7e-m/fpv5/hard\libm_nano.a(lib_a-e_sqrt.o)
 .comment       0x000000000000003c       0x3d c:/program files/microchip/xc32/v2.50/bin/bin/../../lib/gcc/pic32c/6.2.1/../../../../pic32c/lib/v7e-m/fpv5/hard\libm_nano.a(lib_a-k_cos.o)
 .comment       0x000000000000003c       0x3d c:/program files/microchip/xc32/v2.50/bin/bin/../../lib/gcc/pic32c/6.2.1/../../../../pic32c/lib/v7e-m/fpv5/hard\libm_nano.a(lib_a-k_rem_pio2.o)
 .comment       0x000000000000003c       0x3d c:/program files/microchip/xc32/v2.50/bin/bin/../../lib/gcc/pic32c/6.2.1/../../../../pic32c/lib/v7e-m/fpv5/hard\libm_nano.a(lib_a-k_sin.o)
 .comment       0x000000000000003c       0x3d c:/program files/microchip/xc32/v2.50/bin/bin/../../lib/gcc/pic32c/6.2.1/../../../../pic32c/lib/v7e-m/fpv5/hard\libm_nano.a(lib_a-s_atan.o)
 .comment       0x000000000000003c       0x3d c:/program files/microchip/xc32/v2.50/bin/bin/../../lib/gcc/pic32c/6.2.1/../../../../pic32c/lib/v7e-m/fpv5/hard\libm_nano.a(lib_a-s_fabs.o)
 .comment       0x000000000000003c       0x3d c:/program files/microchip/xc32/v2.50/bin/bin/../../lib/gcc/pic32c/6.2.1/../../../../pic32c/lib/v7e-m/fpv5/hard\libm_nano.a(lib_a-s_floor.o)
 .comment       0x000000000000003c       0x3d c:/program files/microchip/xc32/v2.50/bin/bin/../../lib/gcc/pic32c/6.2.1/../../../../pic32c/lib/v7e-m/fpv5/hard\libm_nano.a(lib_a-s_lib_ver.o)
 .comment       0x000000000000003c       0x3d c:/program files/microchip/xc32/v2.50/bin/bin/../../lib/gcc/pic32c/6.2.1/../../../../pic32c/lib/v7e-m/fpv5/hard\libm_nano.a(lib_a-s_matherr.o)
 .comment       0x000000000000003c       0x3d c:/program files/microchip/xc32/v2.50/bin/bin/../../lib/gcc/pic32c/6.2.1/../../../../pic32c/lib/v7e-m/fpv5/hard\libm_nano.a(lib_a-s_scalbn.o)
 .comment       0x000000000000003c       0x3d c:/program files/microchip/xc32/v2.50/bin/bin/../../lib/gcc/pic32c/6.2.1/../../../../pic32c/lib/v7e-m/fpv5/hard\libm_nano.a(lib_a-s_copysign.o)
 .comment       0x000000000000003c       0x3d c:/program files/microchip/xc32/v2.50/bin/bin/../../lib/gcc/pic32c/6.2.1/../../../../pic32c/lib/v7e-m/fpv5/hard\libc_nano.a(lib_a-errno.o)
 .comment       0x000000000000003c       0x3d c:/program files/microchip/xc32/v2.50/bin/bin/../../lib/gcc/pic32c/6.2.1/../../../../pic32c/lib/v7e-m/fpv5/hard\libpic32c.a(sbrk.o)

.debug_info     0x0000000000000000    0x8a2ef
 .debug_info    0x0000000000000000     0x17c3 build/sam_e70_xult/debug/_ext/957281314/drv_i2c.o
 .debug_info    0x00000000000017c3      0xc8d build/sam_e70_xult/debug/_ext/1565510230/drv_sdmmc_file_system.o
 .debug_info    0x0000000000002450     0x5519 build/sam_e70_xult/debug/_ext/1565510230/drv_sdmmc.o
 .debug_info    0x0000000000007969     0x2203 build/sam_e70_xult/debug/_ext/716655881/drv_usart.o
 .debug_info    0x0000000000009b6c      0xba8 build/sam_e70_xult/debug/_ext/1613695899/osal_freertos.o
 .debug_info    0x000000000000a714      0x8ac build/sam_e70_xult/debug/_ext/1055500827/plib_clk.o
 .debug_info    0x000000000000afc0     0x1315 build/sam_e70_xult/debug/_ext/1055499099/plib_efc.o
 .debug_info    0x000000000000c2d5     0x1d23 build/sam_e70_xult/debug/_ext/719181653/plib_hsmci.o
 .debug_info    0x000000000000dff8     0x13c3 build/sam_e70_xult/debug/_ext/1639550079/plib_nvic.o
 .debug_info    0x000000000000f3bb     0x1959 build/sam_e70_xult/debug/_ext/1055488423/plib_pio.o
 .debug_info    0x0000000000010d14     0x11cc build/sam_e70_xult/debug/_ext/1055487991/plib_pwm0.o
 .debug_info    0x0000000000011ee0      0x99f build/sam_e70_xult/debug/_ext/865331892/plib_tc3.o
 .debug_info    0x000000000001287f      0xd09 build/sam_e70_xult/debug/_ext/1539215101/plib_twihs0_master.o
 .debug_info    0x0000000000013588      0xfd0 build/sam_e70_xult/debug/_ext/707186936/plib_usart1.o
 .debug_info    0x0000000000014558      0xfd0 build/sam_e70_xult/debug/_ext/707186936/plib_usart0.o
 .debug_info    0x0000000000015528      0xfd0 build/sam_e70_xult/debug/_ext/707186936/plib_usart2.o
 .debug_info    0x00000000000164f8      0xcb4 build/sam_e70_xult/debug/_ext/704852250/plib_xdmac.o
 .debug_info    0x00000000000171ac     0x13ae build/sam_e70_xult/debug/_ext/876653320/sys_cache.o
 .debug_info    0x000000000001855a      0x8fb build/sam_e70_xult/debug/_ext/984150034/sys_dma.o
 .debug_info    0x0000000000018e55     0x5d5f build/sam_e70_xult/debug/_ext/1043829778/ff.o
 .debug_info    0x000000000001ebb4      0x61b build/sam_e70_xult/debug/_ext/1043829778/ffunicode.o
 .debug_info    0x000000000001f1cf     0x1bd9 build/sam_e70_xult/debug/_ext/1893760823/diskio.o
 .debug_info    0x0000000000020da8     0x4908 build/sam_e70_xult/debug/_ext/1305476372/sys_fs.o
 .debug_info    0x00000000000256b0     0x2e38 build/sam_e70_xult/debug/_ext/1305476372/sys_fs_media_manager.o
 .debug_info    0x00000000000284e8     0x218b build/sam_e70_xult/debug/_ext/1305476372/sys_fs_fat_interface.o
 .debug_info    0x000000000002a673      0xcb1 build/sam_e70_xult/debug/_ext/766002106/sys_int.o
 .debug_info    0x000000000002b324     0x355e build/sam_e70_xult/debug/_ext/327803284/sys_time.o
 .debug_info    0x000000000002e882     0x573f build/sam_e70_xult/debug/_ext/1728594169/initialization.o
 .debug_info    0x0000000000033fc1     0x25f0 build/sam_e70_xult/debug/_ext/1728594169/interrupts.o
 .debug_info    0x00000000000365b1     0x1a78 build/sam_e70_xult/debug/_ext/1728594169/exceptions.o
 .debug_info    0x0000000000038029      0xd5b build/sam_e70_xult/debug/_ext/1728594169/startup_xc32.o
 .debug_info    0x0000000000038d84      0x55a build/sam_e70_xult/debug/_ext/1728594169/freertos_hooks.o
 .debug_info    0x00000000000392de     0x223a build/sam_e70_xult/debug/_ext/1728594169/tasks.o
 .debug_info    0x000000000003b518      0x783 build/sam_e70_xult/debug/_ext/977623654/port.o
 .debug_info    0x000000000003bc9b     0x1056 build/sam_e70_xult/debug/_ext/1665200909/heap_1.o
 .debug_info    0x000000000003ccf1     0x117b build/sam_e70_xult/debug/_ext/404212886/list.o
 .debug_info    0x000000000003de6c     0x29bd build/sam_e70_xult/debug/_ext/404212886/queue.o
 .debug_info    0x0000000000040829     0x360c build/sam_e70_xult/debug/_ext/404212886/FreeRTOS_tasks.o
 .debug_info    0x0000000000043e35     0x19cd build/sam_e70_xult/debug/_ext/1360937237/main.o
 .debug_info    0x0000000000045802     0x1a8a build/sam_e70_xult/debug/_ext/1360937237/app_communication.o
 .debug_info    0x000000000004728c     0x34e1 build/sam_e70_xult/debug/_ext/1360937237/app_mast_control.o
 .debug_info    0x000000000004a76d     0x1e31 build/sam_e70_xult/debug/_ext/1360937237/app_course_algorithm.o
 .debug_info    0x000000000004c59e     0x3658 build/sam_e70_xult/debug/_ext/1360937237/app_rudder_control.o
 .debug_info    0x000000000004fbf6     0x1a67 build/sam_e70_xult/debug/_ext/1360937237/app_anemometer.o
 .debug_info    0x000000000005165d     0x1c84 build/sam_e70_xult/debug/_ext/1360937237/app_gps.o
 .debug_info    0x00000000000532e1     0x1729 build/sam_e70_xult/debug/_ext/1360937237/app_imu.o
 .debug_info    0x0000000000054a0a      0x296 c:/program files/microchip/xc32/v2.50/bin/bin/../../lib/gcc/pic32c/6.2.1/../../../../pic32c/lib/v7e-m/fpv5/hard\libpic32c.a(data_init.o)
 .debug_info    0x0000000000054ca0       0xfa c:/program files/microchip/xc32/v2.50/bin/bin/../../lib/gcc/pic32c/6.2.1/v7e-m/fpv5/hard\libgcc.a(_aeabi_uldivmod.o)
 .debug_info    0x0000000000054d9a     0x168d c:/program files/microchip/xc32/v2.50/bin/bin/../../lib/gcc/pic32c/6.2.1/v7e-m/fpv5/hard\libgcc.a(_udivmoddi4.o)
 .debug_info    0x0000000000056427       0xfe c:/program files/microchip/xc32/v2.50/bin/bin/../../lib/gcc/pic32c/6.2.1/v7e-m/fpv5/hard\libgcc.a(_dvmd_tls.o)
 .debug_info    0x0000000000056525      0xe43 c:/program files/microchip/xc32/v2.50/bin/bin/../../lib/gcc/pic32c/6.2.1/../../../../pic32c/lib/v7e-m/fpv5/hard\libg_nano.a(lib_a-atof.o)
 .debug_info    0x0000000000057368      0xeac c:/program files/microchip/xc32/v2.50/bin/bin/../../lib/gcc/pic32c/6.2.1/../../../../pic32c/lib/v7e-m/fpv5/hard\libg_nano.a(lib_a-atoi.o)
 .debug_info    0x0000000000058214      0x421 c:/program files/microchip/xc32/v2.50/bin/bin/../../lib/gcc/pic32c/6.2.1/../../../../pic32c/lib/v7e-m/fpv5/hard\libg_nano.a(lib_a-init.o)
 .debug_info    0x0000000000058635      0xedf c:/program files/microchip/xc32/v2.50/bin/bin/../../lib/gcc/pic32c/6.2.1/../../../../pic32c/lib/v7e-m/fpv5/hard\libg_nano.a(lib_a-itoa.o)
 .debug_info    0x0000000000059514     0x18a0 c:/program files/microchip/xc32/v2.50/bin/bin/../../lib/gcc/pic32c/6.2.1/../../../../pic32c/lib/v7e-m/fpv5/hard\libg_nano.a(lib_a-locale.o)
 .debug_info    0x000000000005adb4      0xe97 c:/program files/microchip/xc32/v2.50/bin/bin/../../lib/gcc/pic32c/6.2.1/../../../../pic32c/lib/v7e-m/fpv5/hard\libg_nano.a(lib_a-malloc.o)
 .debug_info    0x000000000005bc4b     0x1784 c:/program files/microchip/xc32/v2.50/bin/bin/../../lib/gcc/pic32c/6.2.1/../../../../pic32c/lib/v7e-m/fpv5/hard\libg_nano.a(lib_a-mbtowc_r.o)
 .debug_info    0x000000000005d3cf      0xe6d c:/program files/microchip/xc32/v2.50/bin/bin/../../lib/gcc/pic32c/6.2.1/../../../../pic32c/lib/v7e-m/fpv5/hard\libg_nano.a(lib_a-memcpy-stub.o)
 .debug_info    0x000000000005e23c     0x15b0 c:/program files/microchip/xc32/v2.50/bin/bin/../../lib/gcc/pic32c/6.2.1/../../../../pic32c/lib/v7e-m/fpv5/hard\libg_nano.a(lib_a-memset.o)
 .debug_info    0x000000000005f7ec     0x125b c:/program files/microchip/xc32/v2.50/bin/bin/../../lib/gcc/pic32c/6.2.1/../../../../pic32c/lib/v7e-m/fpv5/hard\libg_nano.a(lib_a-nano-mallocr.o)
 .debug_info    0x0000000000060a47      0xee4 c:/program files/microchip/xc32/v2.50/bin/bin/../../lib/gcc/pic32c/6.2.1/../../../../pic32c/lib/v7e-m/fpv5/hard\libg_nano.a(lib_a-sbrkr.o)
 .debug_info    0x000000000006192b      0xe31 c:/program files/microchip/xc32/v2.50/bin/bin/../../lib/gcc/pic32c/6.2.1/../../../../pic32c/lib/v7e-m/fpv5/hard\libg_nano.a(lib_a-strchr.o)
 .debug_info    0x000000000006275c      0xe10 c:/program files/microchip/xc32/v2.50/bin/bin/../../lib/gcc/pic32c/6.2.1/../../../../pic32c/lib/v7e-m/fpv5/hard\libg_nano.a(lib_a-strcpy.o)
 .debug_info    0x000000000006356c      0x127 c:/program files/microchip/xc32/v2.50/bin/bin/../../lib/gcc/pic32c/6.2.1/../../../../pic32c/lib/v7e-m/fpv5/hard\libg_nano.a(lib_a-strlen.o)
 .debug_info    0x0000000000063693      0xe29 c:/program files/microchip/xc32/v2.50/bin/bin/../../lib/gcc/pic32c/6.2.1/../../../../pic32c/lib/v7e-m/fpv5/hard\libg_nano.a(lib_a-strncmp.o)
 .debug_info    0x00000000000644bc      0xe51 c:/program files/microchip/xc32/v2.50/bin/bin/../../lib/gcc/pic32c/6.2.1/../../../../pic32c/lib/v7e-m/fpv5/hard\libg_nano.a(lib_a-strncpy.o)
 .debug_info    0x000000000006530d     0x2660 c:/program files/microchip/xc32/v2.50/bin/bin/../../lib/gcc/pic32c/6.2.1/../../../../pic32c/lib/v7e-m/fpv5/hard\libg_nano.a(lib_a-strtod.o)
 .debug_info    0x000000000006796d     0x1938 c:/program files/microchip/xc32/v2.50/bin/bin/../../lib/gcc/pic32c/6.2.1/../../../../pic32c/lib/v7e-m/fpv5/hard\libg_nano.a(lib_a-strtol.o)
 .debug_info    0x00000000000692a5      0xf36 c:/program files/microchip/xc32/v2.50/bin/bin/../../lib/gcc/pic32c/6.2.1/../../../../pic32c/lib/v7e-m/fpv5/hard\libg_nano.a(lib_a-utoa.o)
 .debug_info    0x000000000006a1db     0x174f c:/program files/microchip/xc32/v2.50/bin/bin/../../lib/gcc/pic32c/6.2.1/../../../../pic32c/lib/v7e-m/fpv5/hard\libg_nano.a(lib_a-wctomb_r.o)
 .debug_info    0x000000000006b92a     0x1581 c:/program files/microchip/xc32/v2.50/bin/bin/../../lib/gcc/pic32c/6.2.1/../../../../pic32c/lib/v7e-m/fpv5/hard\libg_nano.a(lib_a-ctype_.o)
 .debug_info    0x000000000006ceab     0x1f21 c:/program files/microchip/xc32/v2.50/bin/bin/../../lib/gcc/pic32c/6.2.1/../../../../pic32c/lib/v7e-m/fpv5/hard\libg_nano.a(lib_a-gdtoa-gethex.o)
 .debug_info    0x000000000006edcc     0x1a03 c:/program files/microchip/xc32/v2.50/bin/bin/../../lib/gcc/pic32c/6.2.1/../../../../pic32c/lib/v7e-m/fpv5/hard\libg_nano.a(lib_a-gdtoa-hexnan.o)
 .debug_info    0x00000000000707cf      0xdf4 c:/program files/microchip/xc32/v2.50/bin/bin/../../lib/gcc/pic32c/6.2.1/../../../../pic32c/lib/v7e-m/fpv5/hard\libg_nano.a(lib_a-impure.o)
 .debug_info    0x00000000000715c3     0x16b5 c:/program files/microchip/xc32/v2.50/bin/bin/../../lib/gcc/pic32c/6.2.1/../../../../pic32c/lib/v7e-m/fpv5/hard\libg_nano.a(lib_a-localeconv.o)
 .debug_info    0x0000000000072c78      0xe31 c:/program files/microchip/xc32/v2.50/bin/bin/../../lib/gcc/pic32c/6.2.1/../../../../pic32c/lib/v7e-m/fpv5/hard\libg_nano.a(lib_a-mlock.o)
 .debug_info    0x0000000000073aa9     0x258a c:/program files/microchip/xc32/v2.50/bin/bin/../../lib/gcc/pic32c/6.2.1/../../../../pic32c/lib/v7e-m/fpv5/hard\libg_nano.a(lib_a-mprec.o)
 .debug_info    0x0000000000076033     0x10e3 c:/program files/microchip/xc32/v2.50/bin/bin/../../lib/gcc/pic32c/6.2.1/../../../../pic32c/lib/v7e-m/fpv5/hard\libg_nano.a(lib_a-nano-callocr.o)
 .debug_info    0x0000000000077116      0xfec c:/program files/microchip/xc32/v2.50/bin/bin/../../lib/gcc/pic32c/6.2.1/../../../../pic32c/lib/v7e-m/fpv5/hard\libg_nano.a(lib_a-reent.o)
 .debug_info    0x0000000000078102      0xfe5 c:/program files/microchip/xc32/v2.50/bin/bin/../../lib/gcc/pic32c/6.2.1/../../../../pic32c/lib/v7e-m/fpv5/hard\libm_nano.a(lib_a-s_cos.o)
 .debug_info    0x00000000000790e7      0xfe5 c:/program files/microchip/xc32/v2.50/bin/bin/../../lib/gcc/pic32c/6.2.1/../../../../pic32c/lib/v7e-m/fpv5/hard\libm_nano.a(lib_a-s_sin.o)
 .debug_info    0x000000000007a0cc      0xf11 c:/program files/microchip/xc32/v2.50/bin/bin/../../lib/gcc/pic32c/6.2.1/../../../../pic32c/lib/v7e-m/fpv5/hard\libm_nano.a(lib_a-w_atan2.o)
 .debug_info    0x000000000007afdd      0xfd4 c:/program files/microchip/xc32/v2.50/bin/bin/../../lib/gcc/pic32c/6.2.1/../../../../pic32c/lib/v7e-m/fpv5/hard\libm_nano.a(lib_a-w_sqrt.o)
 .debug_info    0x000000000007bfb1     0x1110 c:/program files/microchip/xc32/v2.50/bin/bin/../../lib/gcc/pic32c/6.2.1/../../../../pic32c/lib/v7e-m/fpv5/hard\libm_nano.a(lib_a-e_atan2.o)
 .debug_info    0x000000000007d0c1     0x124e c:/program files/microchip/xc32/v2.50/bin/bin/../../lib/gcc/pic32c/6.2.1/../../../../pic32c/lib/v7e-m/fpv5/hard\libm_nano.a(lib_a-e_rem_pio2.o)
 .debug_info    0x000000000007e30f     0x1038 c:/program files/microchip/xc32/v2.50/bin/bin/../../lib/gcc/pic32c/6.2.1/../../../../pic32c/lib/v7e-m/fpv5/hard\libm_nano.a(lib_a-e_sqrt.o)
 .debug_info    0x000000000007f347     0x1034 c:/program files/microchip/xc32/v2.50/bin/bin/../../lib/gcc/pic32c/6.2.1/../../../../pic32c/lib/v7e-m/fpv5/hard\libm_nano.a(lib_a-k_cos.o)
 .debug_info    0x000000000008037b     0x11c0 c:/program files/microchip/xc32/v2.50/bin/bin/../../lib/gcc/pic32c/6.2.1/../../../../pic32c/lib/v7e-m/fpv5/hard\libm_nano.a(lib_a-k_rem_pio2.o)
 .debug_info    0x000000000008153b     0x100d c:/program files/microchip/xc32/v2.50/bin/bin/../../lib/gcc/pic32c/6.2.1/../../../../pic32c/lib/v7e-m/fpv5/hard\libm_nano.a(lib_a-k_sin.o)
 .debug_info    0x0000000000082548     0x10bb c:/program files/microchip/xc32/v2.50/bin/bin/../../lib/gcc/pic32c/6.2.1/../../../../pic32c/lib/v7e-m/fpv5/hard\libm_nano.a(lib_a-s_atan.o)
 .debug_info    0x0000000000083603      0xf44 c:/program files/microchip/xc32/v2.50/bin/bin/../../lib/gcc/pic32c/6.2.1/../../../../pic32c/lib/v7e-m/fpv5/hard\libm_nano.a(lib_a-s_fabs.o)
 .debug_info    0x0000000000084547      0xfae c:/program files/microchip/xc32/v2.50/bin/bin/../../lib/gcc/pic32c/6.2.1/../../../../pic32c/lib/v7e-m/fpv5/hard\libm_nano.a(lib_a-s_floor.o)
 .debug_info    0x00000000000854f5      0xe64 c:/program files/microchip/xc32/v2.50/bin/bin/../../lib/gcc/pic32c/6.2.1/../../../../pic32c/lib/v7e-m/fpv5/hard\libm_nano.a(lib_a-s_lib_ver.o)
 .debug_info    0x0000000000086359      0xf18 c:/program files/microchip/xc32/v2.50/bin/bin/../../lib/gcc/pic32c/6.2.1/../../../../pic32c/lib/v7e-m/fpv5/hard\libm_nano.a(lib_a-s_matherr.o)
 .debug_info    0x0000000000087271     0x1058 c:/program files/microchip/xc32/v2.50/bin/bin/../../lib/gcc/pic32c/6.2.1/../../../../pic32c/lib/v7e-m/fpv5/hard\libm_nano.a(lib_a-s_scalbn.o)
 .debug_info    0x00000000000882c9      0xf7b c:/program files/microchip/xc32/v2.50/bin/bin/../../lib/gcc/pic32c/6.2.1/../../../../pic32c/lib/v7e-m/fpv5/hard\libm_nano.a(lib_a-s_copysign.o)
 .debug_info    0x0000000000089244      0xe31 c:/program files/microchip/xc32/v2.50/bin/bin/../../lib/gcc/pic32c/6.2.1/../../../../pic32c/lib/v7e-m/fpv5/hard\libc_nano.a(lib_a-errno.o)
 .debug_info    0x000000000008a075      0x27a c:/program files/microchip/xc32/v2.50/bin/bin/../../lib/gcc/pic32c/6.2.1/../../../../pic32c/lib/v7e-m/fpv5/hard\libpic32c.a(sbrk.o)

.debug_abbrev   0x0000000000000000     0xce82
 .debug_abbrev  0x0000000000000000      0x33c build/sam_e70_xult/debug/_ext/957281314/drv_i2c.o
 .debug_abbrev  0x000000000000033c      0x155 build/sam_e70_xult/debug/_ext/1565510230/drv_sdmmc_file_system.o
 .debug_abbrev  0x0000000000000491      0x55a build/sam_e70_xult/debug/_ext/1565510230/drv_sdmmc.o
 .debug_abbrev  0x00000000000009eb      0x3a7 build/sam_e70_xult/debug/_ext/716655881/drv_usart.o
 .debug_abbrev  0x0000000000000d92      0x1c2 build/sam_e70_xult/debug/_ext/1613695899/osal_freertos.o
 .debug_abbrev  0x0000000000000f54       0xc0 build/sam_e70_xult/debug/_ext/1055500827/plib_clk.o
 .debug_abbrev  0x0000000000001014      0x2b4 build/sam_e70_xult/debug/_ext/1055499099/plib_efc.o
 .debug_abbrev  0x00000000000012c8      0x348 build/sam_e70_xult/debug/_ext/719181653/plib_hsmci.o
 .debug_abbrev  0x0000000000001610      0x1cd build/sam_e70_xult/debug/_ext/1639550079/plib_nvic.o
 .debug_abbrev  0x00000000000017dd      0x241 build/sam_e70_xult/debug/_ext/1055488423/plib_pio.o
 .debug_abbrev  0x0000000000001a1e      0x1e1 build/sam_e70_xult/debug/_ext/1055487991/plib_pwm0.o
 .debug_abbrev  0x0000000000001bff      0x182 build/sam_e70_xult/debug/_ext/865331892/plib_tc3.o
 .debug_abbrev  0x0000000000001d81      0x29c build/sam_e70_xult/debug/_ext/1539215101/plib_twihs0_master.o
 .debug_abbrev  0x000000000000201d      0x2cf build/sam_e70_xult/debug/_ext/707186936/plib_usart1.o
 .debug_abbrev  0x00000000000022ec      0x2cf build/sam_e70_xult/debug/_ext/707186936/plib_usart0.o
 .debug_abbrev  0x00000000000025bb      0x2cf build/sam_e70_xult/debug/_ext/707186936/plib_usart2.o
 .debug_abbrev  0x000000000000288a      0x1fa build/sam_e70_xult/debug/_ext/704852250/plib_xdmac.o
 .debug_abbrev  0x0000000000002a84      0x1ec build/sam_e70_xult/debug/_ext/876653320/sys_cache.o
 .debug_abbrev  0x0000000000002c70       0xcf build/sam_e70_xult/debug/_ext/984150034/sys_dma.o
 .debug_abbrev  0x0000000000002d3f      0x33e build/sam_e70_xult/debug/_ext/1043829778/ff.o
 .debug_abbrev  0x000000000000307d      0x128 build/sam_e70_xult/debug/_ext/1043829778/ffunicode.o
 .debug_abbrev  0x00000000000031a5      0x37b build/sam_e70_xult/debug/_ext/1893760823/diskio.o
 .debug_abbrev  0x0000000000003520      0x482 build/sam_e70_xult/debug/_ext/1305476372/sys_fs.o
 .debug_abbrev  0x00000000000039a2      0x4ba build/sam_e70_xult/debug/_ext/1305476372/sys_fs_media_manager.o
 .debug_abbrev  0x0000000000003e5c      0x274 build/sam_e70_xult/debug/_ext/1305476372/sys_fs_fat_interface.o
 .debug_abbrev  0x00000000000040d0      0x218 build/sam_e70_xult/debug/_ext/766002106/sys_int.o
 .debug_abbrev  0x00000000000042e8      0x5a0 build/sam_e70_xult/debug/_ext/327803284/sys_time.o
 .debug_abbrev  0x0000000000004888      0x313 build/sam_e70_xult/debug/_ext/1728594169/initialization.o
 .debug_abbrev  0x0000000000004b9b      0x1db build/sam_e70_xult/debug/_ext/1728594169/interrupts.o
 .debug_abbrev  0x0000000000004d76      0x1d0 build/sam_e70_xult/debug/_ext/1728594169/exceptions.o
 .debug_abbrev  0x0000000000004f46      0x1fd build/sam_e70_xult/debug/_ext/1728594169/startup_xc32.o
 .debug_abbrev  0x0000000000005143      0x121 build/sam_e70_xult/debug/_ext/1728594169/freertos_hooks.o
 .debug_abbrev  0x0000000000005264      0x242 build/sam_e70_xult/debug/_ext/1728594169/tasks.o
 .debug_abbrev  0x00000000000054a6      0x1f2 build/sam_e70_xult/debug/_ext/977623654/port.o
 .debug_abbrev  0x0000000000005698      0x26f build/sam_e70_xult/debug/_ext/1665200909/heap_1.o
 .debug_abbrev  0x0000000000005907      0x231 build/sam_e70_xult/debug/_ext/404212886/list.o
 .debug_abbrev  0x0000000000005b38      0x400 build/sam_e70_xult/debug/_ext/404212886/queue.o
 .debug_abbrev  0x0000000000005f38      0x49e build/sam_e70_xult/debug/_ext/404212886/FreeRTOS_tasks.o
 .debug_abbrev  0x00000000000063d6      0x207 build/sam_e70_xult/debug/_ext/1360937237/main.o
 .debug_abbrev  0x00000000000065dd      0x294 build/sam_e70_xult/debug/_ext/1360937237/app_communication.o
 .debug_abbrev  0x0000000000006871      0x31f build/sam_e70_xult/debug/_ext/1360937237/app_mast_control.o
 .debug_abbrev  0x0000000000006b90      0x2ac build/sam_e70_xult/debug/_ext/1360937237/app_course_algorithm.o
 .debug_abbrev  0x0000000000006e3c      0x2f4 build/sam_e70_xult/debug/_ext/1360937237/app_rudder_control.o
 .debug_abbrev  0x0000000000007130      0x2ed build/sam_e70_xult/debug/_ext/1360937237/app_anemometer.o
 .debug_abbrev  0x000000000000741d      0x2cb build/sam_e70_xult/debug/_ext/1360937237/app_gps.o
 .debug_abbrev  0x00000000000076e8      0x2c1 build/sam_e70_xult/debug/_ext/1360937237/app_imu.o
 .debug_abbrev  0x00000000000079a9       0x2a c:/program files/microchip/xc32/v2.50/bin/bin/../../lib/gcc/pic32c/6.2.1/../../../../pic32c/lib/v7e-m/fpv5/hard\libpic32c.a(data_init.o)
 .debug_abbrev  0x00000000000079d3       0x14 c:/program files/microchip/xc32/v2.50/bin/bin/../../lib/gcc/pic32c/6.2.1/v7e-m/fpv5/hard\libgcc.a(_aeabi_uldivmod.o)
 .debug_abbrev  0x00000000000079e7      0x163 c:/program files/microchip/xc32/v2.50/bin/bin/../../lib/gcc/pic32c/6.2.1/v7e-m/fpv5/hard\libgcc.a(_udivmoddi4.o)
 .debug_abbrev  0x0000000000007b4a       0x14 c:/program files/microchip/xc32/v2.50/bin/bin/../../lib/gcc/pic32c/6.2.1/v7e-m/fpv5/hard\libgcc.a(_dvmd_tls.o)
 .debug_abbrev  0x0000000000007b5e      0x187 c:/program files/microchip/xc32/v2.50/bin/bin/../../lib/gcc/pic32c/6.2.1/../../../../pic32c/lib/v7e-m/fpv5/hard\libg_nano.a(lib_a-atof.o)
 .debug_abbrev  0x0000000000007ce5      0x199 c:/program files/microchip/xc32/v2.50/bin/bin/../../lib/gcc/pic32c/6.2.1/../../../../pic32c/lib/v7e-m/fpv5/hard\libg_nano.a(lib_a-atoi.o)
 .debug_abbrev  0x0000000000007e7e       0xa3 c:/program files/microchip/xc32/v2.50/bin/bin/../../lib/gcc/pic32c/6.2.1/../../../../pic32c/lib/v7e-m/fpv5/hard\libg_nano.a(lib_a-init.o)
 .debug_abbrev  0x0000000000007f21      0x1bd c:/program files/microchip/xc32/v2.50/bin/bin/../../lib/gcc/pic32c/6.2.1/../../../../pic32c/lib/v7e-m/fpv5/hard\libg_nano.a(lib_a-itoa.o)
 .debug_abbrev  0x00000000000080de      0x256 c:/program files/microchip/xc32/v2.50/bin/bin/../../lib/gcc/pic32c/6.2.1/../../../../pic32c/lib/v7e-m/fpv5/hard\libg_nano.a(lib_a-locale.o)
 .debug_abbrev  0x0000000000008334      0x1b3 c:/program files/microchip/xc32/v2.50/bin/bin/../../lib/gcc/pic32c/6.2.1/../../../../pic32c/lib/v7e-m/fpv5/hard\libg_nano.a(lib_a-malloc.o)
 .debug_abbrev  0x00000000000084e7      0x1be c:/program files/microchip/xc32/v2.50/bin/bin/../../lib/gcc/pic32c/6.2.1/../../../../pic32c/lib/v7e-m/fpv5/hard\libg_nano.a(lib_a-mbtowc_r.o)
 .debug_abbrev  0x00000000000086a5      0x17c c:/program files/microchip/xc32/v2.50/bin/bin/../../lib/gcc/pic32c/6.2.1/../../../../pic32c/lib/v7e-m/fpv5/hard\libg_nano.a(lib_a-memcpy-stub.o)
 .debug_abbrev  0x0000000000008821      0x170 c:/program files/microchip/xc32/v2.50/bin/bin/../../lib/gcc/pic32c/6.2.1/../../../../pic32c/lib/v7e-m/fpv5/hard\libg_nano.a(lib_a-memset.o)
 .debug_abbrev  0x0000000000008991      0x281 c:/program files/microchip/xc32/v2.50/bin/bin/../../lib/gcc/pic32c/6.2.1/../../../../pic32c/lib/v7e-m/fpv5/hard\libg_nano.a(lib_a-nano-mallocr.o)
 .debug_abbrev  0x0000000000008c12      0x1a8 c:/program files/microchip/xc32/v2.50/bin/bin/../../lib/gcc/pic32c/6.2.1/../../../../pic32c/lib/v7e-m/fpv5/hard\libg_nano.a(lib_a-sbrkr.o)
 .debug_abbrev  0x0000000000008dba      0x168 c:/program files/microchip/xc32/v2.50/bin/bin/../../lib/gcc/pic32c/6.2.1/../../../../pic32c/lib/v7e-m/fpv5/hard\libg_nano.a(lib_a-strchr.o)
 .debug_abbrev  0x0000000000008f22      0x157 c:/program files/microchip/xc32/v2.50/bin/bin/../../lib/gcc/pic32c/6.2.1/../../../../pic32c/lib/v7e-m/fpv5/hard\libg_nano.a(lib_a-strcpy.o)
 .debug_abbrev  0x0000000000009079       0x14 c:/program files/microchip/xc32/v2.50/bin/bin/../../lib/gcc/pic32c/6.2.1/../../../../pic32c/lib/v7e-m/fpv5/hard\libg_nano.a(lib_a-strlen.o)
 .debug_abbrev  0x000000000000908d      0x148 c:/program files/microchip/xc32/v2.50/bin/bin/../../lib/gcc/pic32c/6.2.1/../../../../pic32c/lib/v7e-m/fpv5/hard\libg_nano.a(lib_a-strncmp.o)
 .debug_abbrev  0x00000000000091d5      0x166 c:/program files/microchip/xc32/v2.50/bin/bin/../../lib/gcc/pic32c/6.2.1/../../../../pic32c/lib/v7e-m/fpv5/hard\libg_nano.a(lib_a-strncpy.o)
 .debug_abbrev  0x000000000000933b      0x32c c:/program files/microchip/xc32/v2.50/bin/bin/../../lib/gcc/pic32c/6.2.1/../../../../pic32c/lib/v7e-m/fpv5/hard\libg_nano.a(lib_a-strtod.o)
 .debug_abbrev  0x0000000000009667      0x217 c:/program files/microchip/xc32/v2.50/bin/bin/../../lib/gcc/pic32c/6.2.1/../../../../pic32c/lib/v7e-m/fpv5/hard\libg_nano.a(lib_a-strtol.o)
 .debug_abbrev  0x000000000000987e      0x1c8 c:/program files/microchip/xc32/v2.50/bin/bin/../../lib/gcc/pic32c/6.2.1/../../../../pic32c/lib/v7e-m/fpv5/hard\libg_nano.a(lib_a-utoa.o)
 .debug_abbrev  0x0000000000009a46      0x1da c:/program files/microchip/xc32/v2.50/bin/bin/../../lib/gcc/pic32c/6.2.1/../../../../pic32c/lib/v7e-m/fpv5/hard\libg_nano.a(lib_a-wctomb_r.o)
 .debug_abbrev  0x0000000000009c20      0x131 c:/program files/microchip/xc32/v2.50/bin/bin/../../lib/gcc/pic32c/6.2.1/../../../../pic32c/lib/v7e-m/fpv5/hard\libg_nano.a(lib_a-ctype_.o)
 .debug_abbrev  0x0000000000009d51      0x2df c:/program files/microchip/xc32/v2.50/bin/bin/../../lib/gcc/pic32c/6.2.1/../../../../pic32c/lib/v7e-m/fpv5/hard\libg_nano.a(lib_a-gdtoa-gethex.o)
 .debug_abbrev  0x000000000000a030      0x206 c:/program files/microchip/xc32/v2.50/bin/bin/../../lib/gcc/pic32c/6.2.1/../../../../pic32c/lib/v7e-m/fpv5/hard\libg_nano.a(lib_a-gdtoa-hexnan.o)
 .debug_abbrev  0x000000000000a236      0x131 c:/program files/microchip/xc32/v2.50/bin/bin/../../lib/gcc/pic32c/6.2.1/../../../../pic32c/lib/v7e-m/fpv5/hard\libg_nano.a(lib_a-impure.o)
 .debug_abbrev  0x000000000000a367      0x1d6 c:/program files/microchip/xc32/v2.50/bin/bin/../../lib/gcc/pic32c/6.2.1/../../../../pic32c/lib/v7e-m/fpv5/hard\libg_nano.a(lib_a-localeconv.o)
 .debug_abbrev  0x000000000000a53d      0x165 c:/program files/microchip/xc32/v2.50/bin/bin/../../lib/gcc/pic32c/6.2.1/../../../../pic32c/lib/v7e-m/fpv5/hard\libg_nano.a(lib_a-mlock.o)
 .debug_abbrev  0x000000000000a6a2      0x2e4 c:/program files/microchip/xc32/v2.50/bin/bin/../../lib/gcc/pic32c/6.2.1/../../../../pic32c/lib/v7e-m/fpv5/hard\libg_nano.a(lib_a-mprec.o)
 .debug_abbrev  0x000000000000a986      0x1b9 c:/program files/microchip/xc32/v2.50/bin/bin/../../lib/gcc/pic32c/6.2.1/../../../../pic32c/lib/v7e-m/fpv5/hard\libg_nano.a(lib_a-nano-callocr.o)
 .debug_abbrev  0x000000000000ab3f      0x1f8 c:/program files/microchip/xc32/v2.50/bin/bin/../../lib/gcc/pic32c/6.2.1/../../../../pic32c/lib/v7e-m/fpv5/hard\libg_nano.a(lib_a-reent.o)
 .debug_abbrev  0x000000000000ad37      0x20f c:/program files/microchip/xc32/v2.50/bin/bin/../../lib/gcc/pic32c/6.2.1/../../../../pic32c/lib/v7e-m/fpv5/hard\libm_nano.a(lib_a-s_cos.o)
 .debug_abbrev  0x000000000000af46      0x20f c:/program files/microchip/xc32/v2.50/bin/bin/../../lib/gcc/pic32c/6.2.1/../../../../pic32c/lib/v7e-m/fpv5/hard\libm_nano.a(lib_a-s_sin.o)
 .debug_abbrev  0x000000000000b155      0x1af c:/program files/microchip/xc32/v2.50/bin/bin/../../lib/gcc/pic32c/6.2.1/../../../../pic32c/lib/v7e-m/fpv5/hard\libm_nano.a(lib_a-w_atan2.o)
 .debug_abbrev  0x000000000000b304      0x1fb c:/program files/microchip/xc32/v2.50/bin/bin/../../lib/gcc/pic32c/6.2.1/../../../../pic32c/lib/v7e-m/fpv5/hard\libm_nano.a(lib_a-w_sqrt.o)
 .debug_abbrev  0x000000000000b4ff      0x21e c:/program files/microchip/xc32/v2.50/bin/bin/../../lib/gcc/pic32c/6.2.1/../../../../pic32c/lib/v7e-m/fpv5/hard\libm_nano.a(lib_a-e_atan2.o)
 .debug_abbrev  0x000000000000b71d      0x238 c:/program files/microchip/xc32/v2.50/bin/bin/../../lib/gcc/pic32c/6.2.1/../../../../pic32c/lib/v7e-m/fpv5/hard\libm_nano.a(lib_a-e_rem_pio2.o)
 .debug_abbrev  0x000000000000b955      0x1d1 c:/program files/microchip/xc32/v2.50/bin/bin/../../lib/gcc/pic32c/6.2.1/../../../../pic32c/lib/v7e-m/fpv5/hard\libm_nano.a(lib_a-e_sqrt.o)
 .debug_abbrev  0x000000000000bb26      0x1e0 c:/program files/microchip/xc32/v2.50/bin/bin/../../lib/gcc/pic32c/6.2.1/../../../../pic32c/lib/v7e-m/fpv5/hard\libm_nano.a(lib_a-k_cos.o)
 .debug_abbrev  0x000000000000bd06      0x1ed c:/program files/microchip/xc32/v2.50/bin/bin/../../lib/gcc/pic32c/6.2.1/../../../../pic32c/lib/v7e-m/fpv5/hard\libm_nano.a(lib_a-k_rem_pio2.o)
 .debug_abbrev  0x000000000000bef3      0x1d5 c:/program files/microchip/xc32/v2.50/bin/bin/../../lib/gcc/pic32c/6.2.1/../../../../pic32c/lib/v7e-m/fpv5/hard\libm_nano.a(lib_a-k_sin.o)
 .debug_abbrev  0x000000000000c0c8      0x208 c:/program files/microchip/xc32/v2.50/bin/bin/../../lib/gcc/pic32c/6.2.1/../../../../pic32c/lib/v7e-m/fpv5/hard\libm_nano.a(lib_a-s_atan.o)
 .debug_abbrev  0x000000000000c2d0      0x1cd c:/program files/microchip/xc32/v2.50/bin/bin/../../lib/gcc/pic32c/6.2.1/../../../../pic32c/lib/v7e-m/fpv5/hard\libm_nano.a(lib_a-s_fabs.o)
 .debug_abbrev  0x000000000000c49d      0x1cf c:/program files/microchip/xc32/v2.50/bin/bin/../../lib/gcc/pic32c/6.2.1/../../../../pic32c/lib/v7e-m/fpv5/hard\libm_nano.a(lib_a-s_floor.o)
 .debug_abbrev  0x000000000000c66c      0x149 c:/program files/microchip/xc32/v2.50/bin/bin/../../lib/gcc/pic32c/6.2.1/../../../../pic32c/lib/v7e-m/fpv5/hard\libm_nano.a(lib_a-s_lib_ver.o)
 .debug_abbrev  0x000000000000c7b5      0x17c c:/program files/microchip/xc32/v2.50/bin/bin/../../lib/gcc/pic32c/6.2.1/../../../../pic32c/lib/v7e-m/fpv5/hard\libm_nano.a(lib_a-s_matherr.o)
 .debug_abbrev  0x000000000000c931      0x1fc c:/program files/microchip/xc32/v2.50/bin/bin/../../lib/gcc/pic32c/6.2.1/../../../../pic32c/lib/v7e-m/fpv5/hard\libm_nano.a(lib_a-s_scalbn.o)
 .debug_abbrev  0x000000000000cb2d      0x1dc c:/program files/microchip/xc32/v2.50/bin/bin/../../lib/gcc/pic32c/6.2.1/../../../../pic32c/lib/v7e-m/fpv5/hard\libm_nano.a(lib_a-s_copysign.o)
 .debug_abbrev  0x000000000000cd09      0x14f c:/program files/microchip/xc32/v2.50/bin/bin/../../lib/gcc/pic32c/6.2.1/../../../../pic32c/lib/v7e-m/fpv5/hard\libc_nano.a(lib_a-errno.o)
 .debug_abbrev  0x000000000000ce58       0x2a c:/program files/microchip/xc32/v2.50/bin/bin/../../lib/gcc/pic32c/6.2.1/../../../../pic32c/lib/v7e-m/fpv5/hard\libpic32c.a(sbrk.o)

.debug_loc      0x0000000000000000    0x274bc
 .debug_loc     0x0000000000000000      0xa31 build/sam_e70_xult/debug/_ext/957281314/drv_i2c.o
 .debug_loc     0x0000000000000a31       0x41 build/sam_e70_xult/debug/_ext/1565510230/drv_sdmmc_file_system.o
 .debug_loc     0x0000000000000a72     0x1be5 build/sam_e70_xult/debug/_ext/1565510230/drv_sdmmc.o
 .debug_loc     0x0000000000002657      0xb95 build/sam_e70_xult/debug/_ext/716655881/drv_usart.o
 .debug_loc     0x00000000000031ec      0x636 build/sam_e70_xult/debug/_ext/1613695899/osal_freertos.o
 .debug_loc     0x0000000000003822      0x33e build/sam_e70_xult/debug/_ext/1055499099/plib_efc.o
 .debug_loc     0x0000000000003b60      0x4c2 build/sam_e70_xult/debug/_ext/719181653/plib_hsmci.o
 .debug_loc     0x0000000000004022      0x315 build/sam_e70_xult/debug/_ext/1639550079/plib_nvic.o
 .debug_loc     0x0000000000004337      0x2e9 build/sam_e70_xult/debug/_ext/1055488423/plib_pio.o
 .debug_loc     0x0000000000004620      0x1bf build/sam_e70_xult/debug/_ext/1055487991/plib_pwm0.o
 .debug_loc     0x00000000000047df       0x42 build/sam_e70_xult/debug/_ext/865331892/plib_tc3.o
 .debug_loc     0x0000000000004821      0x55d build/sam_e70_xult/debug/_ext/1539215101/plib_twihs0_master.o
 .debug_loc     0x0000000000004d7e      0x4e4 build/sam_e70_xult/debug/_ext/707186936/plib_usart1.o
 .debug_loc     0x0000000000005262      0x4e4 build/sam_e70_xult/debug/_ext/707186936/plib_usart0.o
 .debug_loc     0x0000000000005746      0x4e4 build/sam_e70_xult/debug/_ext/707186936/plib_usart2.o
 .debug_loc     0x0000000000005c2a      0x2f0 build/sam_e70_xult/debug/_ext/704852250/plib_xdmac.o
 .debug_loc     0x0000000000005f1a      0x503 build/sam_e70_xult/debug/_ext/876653320/sys_cache.o
 .debug_loc     0x000000000000641d      0x16b build/sam_e70_xult/debug/_ext/984150034/sys_dma.o
 .debug_loc     0x0000000000006588     0x7d44 build/sam_e70_xult/debug/_ext/1043829778/ff.o
 .debug_loc     0x000000000000e2cc      0x477 build/sam_e70_xult/debug/_ext/1043829778/ffunicode.o
 .debug_loc     0x000000000000e743      0x84f build/sam_e70_xult/debug/_ext/1893760823/diskio.o
 .debug_loc     0x000000000000ef92     0x444a build/sam_e70_xult/debug/_ext/1305476372/sys_fs.o
 .debug_loc     0x00000000000133dc     0x142f build/sam_e70_xult/debug/_ext/1305476372/sys_fs_media_manager.o
 .debug_loc     0x000000000001480b     0x1781 build/sam_e70_xult/debug/_ext/1305476372/sys_fs_fat_interface.o
 .debug_loc     0x0000000000015f8c      0x148 build/sam_e70_xult/debug/_ext/766002106/sys_int.o
 .debug_loc     0x00000000000160d4     0x1f60 build/sam_e70_xult/debug/_ext/327803284/sys_time.o
 .debug_loc     0x0000000000018034       0x41 build/sam_e70_xult/debug/_ext/1728594169/initialization.o
 .debug_loc     0x0000000000018075       0x6d build/sam_e70_xult/debug/_ext/1728594169/startup_xc32.o
 .debug_loc     0x00000000000180e2       0x7a build/sam_e70_xult/debug/_ext/1728594169/freertos_hooks.o
 .debug_loc     0x000000000001815c      0x281 build/sam_e70_xult/debug/_ext/1728594169/tasks.o
 .debug_loc     0x00000000000183dd      0x122 build/sam_e70_xult/debug/_ext/977623654/port.o
 .debug_loc     0x00000000000184ff       0x74 build/sam_e70_xult/debug/_ext/1665200909/heap_1.o
 .debug_loc     0x0000000000018573       0x9c build/sam_e70_xult/debug/_ext/404212886/list.o
 .debug_loc     0x000000000001860f     0x1335 build/sam_e70_xult/debug/_ext/404212886/queue.o
 .debug_loc     0x0000000000019944     0x1cdf build/sam_e70_xult/debug/_ext/404212886/FreeRTOS_tasks.o
 .debug_loc     0x000000000001b623       0x20 build/sam_e70_xult/debug/_ext/1360937237/main.o
 .debug_loc     0x000000000001b643      0x249 build/sam_e70_xult/debug/_ext/1360937237/app_communication.o
 .debug_loc     0x000000000001b88c       0xd4 build/sam_e70_xult/debug/_ext/1360937237/app_mast_control.o
 .debug_loc     0x000000000001b960      0x6eb build/sam_e70_xult/debug/_ext/1360937237/app_course_algorithm.o
 .debug_loc     0x000000000001c04b      0x11f build/sam_e70_xult/debug/_ext/1360937237/app_rudder_control.o
 .debug_loc     0x000000000001c16a     0x1595 build/sam_e70_xult/debug/_ext/1360937237/app_anemometer.o
 .debug_loc     0x000000000001d6ff      0x643 build/sam_e70_xult/debug/_ext/1360937237/app_gps.o
 .debug_loc     0x000000000001dd42      0x2a0 build/sam_e70_xult/debug/_ext/1360937237/app_imu.o
 .debug_loc     0x000000000001dfe2      0xc35 c:/program files/microchip/xc32/v2.50/bin/bin/../../lib/gcc/pic32c/6.2.1/v7e-m/fpv5/hard\libgcc.a(_udivmoddi4.o)
 .debug_loc     0x000000000001ec17       0x21 c:/program files/microchip/xc32/v2.50/bin/bin/../../lib/gcc/pic32c/6.2.1/../../../../pic32c/lib/v7e-m/fpv5/hard\libg_nano.a(lib_a-atof.o)
 .debug_loc     0x000000000001ec38       0x63 c:/program files/microchip/xc32/v2.50/bin/bin/../../lib/gcc/pic32c/6.2.1/../../../../pic32c/lib/v7e-m/fpv5/hard\libg_nano.a(lib_a-atoi.o)
 .debug_loc     0x000000000001ec9b       0x74 c:/program files/microchip/xc32/v2.50/bin/bin/../../lib/gcc/pic32c/6.2.1/../../../../pic32c/lib/v7e-m/fpv5/hard\libg_nano.a(lib_a-init.o)
 .debug_loc     0x000000000001ed0f      0x1c9 c:/program files/microchip/xc32/v2.50/bin/bin/../../lib/gcc/pic32c/6.2.1/../../../../pic32c/lib/v7e-m/fpv5/hard\libg_nano.a(lib_a-itoa.o)
 .debug_loc     0x000000000001eed8      0x17b c:/program files/microchip/xc32/v2.50/bin/bin/../../lib/gcc/pic32c/6.2.1/../../../../pic32c/lib/v7e-m/fpv5/hard\libg_nano.a(lib_a-locale.o)
 .debug_loc     0x000000000001f053       0x58 c:/program files/microchip/xc32/v2.50/bin/bin/../../lib/gcc/pic32c/6.2.1/../../../../pic32c/lib/v7e-m/fpv5/hard\libg_nano.a(lib_a-malloc.o)
 .debug_loc     0x000000000001f0ab      0x229 c:/program files/microchip/xc32/v2.50/bin/bin/../../lib/gcc/pic32c/6.2.1/../../../../pic32c/lib/v7e-m/fpv5/hard\libg_nano.a(lib_a-mbtowc_r.o)
 .debug_loc     0x000000000001f2d4       0xb2 c:/program files/microchip/xc32/v2.50/bin/bin/../../lib/gcc/pic32c/6.2.1/../../../../pic32c/lib/v7e-m/fpv5/hard\libg_nano.a(lib_a-memcpy-stub.o)
 .debug_loc     0x000000000001f386       0x4c c:/program files/microchip/xc32/v2.50/bin/bin/../../lib/gcc/pic32c/6.2.1/../../../../pic32c/lib/v7e-m/fpv5/hard\libg_nano.a(lib_a-memset.o)
 .debug_loc     0x000000000001f3d2      0x326 c:/program files/microchip/xc32/v2.50/bin/bin/../../lib/gcc/pic32c/6.2.1/../../../../pic32c/lib/v7e-m/fpv5/hard\libg_nano.a(lib_a-nano-mallocr.o)
 .debug_loc     0x000000000001f6f8       0x6d c:/program files/microchip/xc32/v2.50/bin/bin/../../lib/gcc/pic32c/6.2.1/../../../../pic32c/lib/v7e-m/fpv5/hard\libg_nano.a(lib_a-sbrkr.o)
 .debug_loc     0x000000000001f765       0x6b c:/program files/microchip/xc32/v2.50/bin/bin/../../lib/gcc/pic32c/6.2.1/../../../../pic32c/lib/v7e-m/fpv5/hard\libg_nano.a(lib_a-strchr.o)
 .debug_loc     0x000000000001f7d0       0x21 c:/program files/microchip/xc32/v2.50/bin/bin/../../lib/gcc/pic32c/6.2.1/../../../../pic32c/lib/v7e-m/fpv5/hard\libg_nano.a(lib_a-strcpy.o)
 .debug_loc     0x000000000001f7f1      0x103 c:/program files/microchip/xc32/v2.50/bin/bin/../../lib/gcc/pic32c/6.2.1/../../../../pic32c/lib/v7e-m/fpv5/hard\libg_nano.a(lib_a-strncmp.o)
 .debug_loc     0x000000000001f8f4      0x116 c:/program files/microchip/xc32/v2.50/bin/bin/../../lib/gcc/pic32c/6.2.1/../../../../pic32c/lib/v7e-m/fpv5/hard\libg_nano.a(lib_a-strncpy.o)
 .debug_loc     0x000000000001fa0a     0x19b2 c:/program files/microchip/xc32/v2.50/bin/bin/../../lib/gcc/pic32c/6.2.1/../../../../pic32c/lib/v7e-m/fpv5/hard\libg_nano.a(lib_a-strtod.o)
 .debug_loc     0x00000000000213bc      0x545 c:/program files/microchip/xc32/v2.50/bin/bin/../../lib/gcc/pic32c/6.2.1/../../../../pic32c/lib/v7e-m/fpv5/hard\libg_nano.a(lib_a-strtol.o)
 .debug_loc     0x0000000000021901      0x202 c:/program files/microchip/xc32/v2.50/bin/bin/../../lib/gcc/pic32c/6.2.1/../../../../pic32c/lib/v7e-m/fpv5/hard\libg_nano.a(lib_a-utoa.o)
 .debug_loc     0x0000000000021b03      0x116 c:/program files/microchip/xc32/v2.50/bin/bin/../../lib/gcc/pic32c/6.2.1/../../../../pic32c/lib/v7e-m/fpv5/hard\libg_nano.a(lib_a-wctomb_r.o)
 .debug_loc     0x0000000000021c19      0xc70 c:/program files/microchip/xc32/v2.50/bin/bin/../../lib/gcc/pic32c/6.2.1/../../../../pic32c/lib/v7e-m/fpv5/hard\libg_nano.a(lib_a-gdtoa-gethex.o)
 .debug_loc     0x0000000000022889      0x47b c:/program files/microchip/xc32/v2.50/bin/bin/../../lib/gcc/pic32c/6.2.1/../../../../pic32c/lib/v7e-m/fpv5/hard\libg_nano.a(lib_a-gdtoa-hexnan.o)
 .debug_loc     0x0000000000022d04       0x63 c:/program files/microchip/xc32/v2.50/bin/bin/../../lib/gcc/pic32c/6.2.1/../../../../pic32c/lib/v7e-m/fpv5/hard\libg_nano.a(lib_a-localeconv.o)
 .debug_loc     0x0000000000022d67     0x1c64 c:/program files/microchip/xc32/v2.50/bin/bin/../../lib/gcc/pic32c/6.2.1/../../../../pic32c/lib/v7e-m/fpv5/hard\libg_nano.a(lib_a-mprec.o)
 .debug_loc     0x00000000000249cb       0xa1 c:/program files/microchip/xc32/v2.50/bin/bin/../../lib/gcc/pic32c/6.2.1/../../../../pic32c/lib/v7e-m/fpv5/hard\libg_nano.a(lib_a-nano-callocr.o)
 .debug_loc     0x0000000000024a6c      0x15e c:/program files/microchip/xc32/v2.50/bin/bin/../../lib/gcc/pic32c/6.2.1/../../../../pic32c/lib/v7e-m/fpv5/hard\libg_nano.a(lib_a-reent.o)
 .debug_loc     0x0000000000024bca       0xe5 c:/program files/microchip/xc32/v2.50/bin/bin/../../lib/gcc/pic32c/6.2.1/../../../../pic32c/lib/v7e-m/fpv5/hard\libm_nano.a(lib_a-s_cos.o)
 .debug_loc     0x0000000000024caf       0xe5 c:/program files/microchip/xc32/v2.50/bin/bin/../../lib/gcc/pic32c/6.2.1/../../../../pic32c/lib/v7e-m/fpv5/hard\libm_nano.a(lib_a-s_sin.o)
 .debug_loc     0x0000000000024d94       0x56 c:/program files/microchip/xc32/v2.50/bin/bin/../../lib/gcc/pic32c/6.2.1/../../../../pic32c/lib/v7e-m/fpv5/hard\libm_nano.a(lib_a-w_atan2.o)
 .debug_loc     0x0000000000024dea       0xd7 c:/program files/microchip/xc32/v2.50/bin/bin/../../lib/gcc/pic32c/6.2.1/../../../../pic32c/lib/v7e-m/fpv5/hard\libm_nano.a(lib_a-w_sqrt.o)
 .debug_loc     0x0000000000024ec1      0x752 c:/program files/microchip/xc32/v2.50/bin/bin/../../lib/gcc/pic32c/6.2.1/../../../../pic32c/lib/v7e-m/fpv5/hard\libm_nano.a(lib_a-e_atan2.o)
 .debug_loc     0x0000000000025613      0x670 c:/program files/microchip/xc32/v2.50/bin/bin/../../lib/gcc/pic32c/6.2.1/../../../../pic32c/lib/v7e-m/fpv5/hard\libm_nano.a(lib_a-e_rem_pio2.o)
 .debug_loc     0x0000000000025c83      0x3a1 c:/program files/microchip/xc32/v2.50/bin/bin/../../lib/gcc/pic32c/6.2.1/../../../../pic32c/lib/v7e-m/fpv5/hard\libm_nano.a(lib_a-e_sqrt.o)
 .debug_loc     0x0000000000026024      0x138 c:/program files/microchip/xc32/v2.50/bin/bin/../../lib/gcc/pic32c/6.2.1/../../../../pic32c/lib/v7e-m/fpv5/hard\libm_nano.a(lib_a-k_cos.o)
 .debug_loc     0x000000000002615c      0xa29 c:/program files/microchip/xc32/v2.50/bin/bin/../../lib/gcc/pic32c/6.2.1/../../../../pic32c/lib/v7e-m/fpv5/hard\libm_nano.a(lib_a-k_rem_pio2.o)
 .debug_loc     0x0000000000026b85      0x101 c:/program files/microchip/xc32/v2.50/bin/bin/../../lib/gcc/pic32c/6.2.1/../../../../pic32c/lib/v7e-m/fpv5/hard\libm_nano.a(lib_a-k_sin.o)
 .debug_loc     0x0000000000026c86      0x257 c:/program files/microchip/xc32/v2.50/bin/bin/../../lib/gcc/pic32c/6.2.1/../../../../pic32c/lib/v7e-m/fpv5/hard\libm_nano.a(lib_a-s_atan.o)
 .debug_loc     0x0000000000026edd       0x3d c:/program files/microchip/xc32/v2.50/bin/bin/../../lib/gcc/pic32c/6.2.1/../../../../pic32c/lib/v7e-m/fpv5/hard\libm_nano.a(lib_a-s_fabs.o)
 .debug_loc     0x0000000000026f1a      0x263 c:/program files/microchip/xc32/v2.50/bin/bin/../../lib/gcc/pic32c/6.2.1/../../../../pic32c/lib/v7e-m/fpv5/hard\libm_nano.a(lib_a-s_floor.o)
 .debug_loc     0x000000000002717d       0x21 c:/program files/microchip/xc32/v2.50/bin/bin/../../lib/gcc/pic32c/6.2.1/../../../../pic32c/lib/v7e-m/fpv5/hard\libm_nano.a(lib_a-s_matherr.o)
 .debug_loc     0x000000000002719e      0x2e1 c:/program files/microchip/xc32/v2.50/bin/bin/../../lib/gcc/pic32c/6.2.1/../../../../pic32c/lib/v7e-m/fpv5/hard\libm_nano.a(lib_a-s_scalbn.o)
 .debug_loc     0x000000000002747f       0x3d c:/program files/microchip/xc32/v2.50/bin/bin/../../lib/gcc/pic32c/6.2.1/../../../../pic32c/lib/v7e-m/fpv5/hard\libm_nano.a(lib_a-s_copysign.o)

.debug_aranges  0x0000000000000000     0x1de8
 .debug_aranges
                0x0000000000000000       0x78 build/sam_e70_xult/debug/_ext/957281314/drv_i2c.o
 .debug_aranges
                0x0000000000000078       0x20 build/sam_e70_xult/debug/_ext/1565510230/drv_sdmmc_file_system.o
 .debug_aranges
                0x0000000000000098       0xb0 build/sam_e70_xult/debug/_ext/1565510230/drv_sdmmc.o
 .debug_aranges
                0x0000000000000148       0x80 build/sam_e70_xult/debug/_ext/716655881/drv_usart.o
 .debug_aranges
                0x00000000000001c8       0x90 build/sam_e70_xult/debug/_ext/1613695899/osal_freertos.o
 .debug_aranges
                0x0000000000000258       0x20 build/sam_e70_xult/debug/_ext/1055500827/plib_clk.o
 .debug_aranges
                0x0000000000000278       0x60 build/sam_e70_xult/debug/_ext/1055499099/plib_efc.o
 .debug_aranges
                0x00000000000002d8       0x98 build/sam_e70_xult/debug/_ext/719181653/plib_hsmci.o
 .debug_aranges
                0x0000000000000370       0x38 build/sam_e70_xult/debug/_ext/1639550079/plib_nvic.o
 .debug_aranges
                0x00000000000003a8       0x98 build/sam_e70_xult/debug/_ext/1055488423/plib_pio.o
 .debug_aranges
                0x0000000000000440       0x90 build/sam_e70_xult/debug/_ext/1055487991/plib_pwm0.o
 .debug_aranges
                0x00000000000004d0       0x68 build/sam_e70_xult/debug/_ext/865331892/plib_tc3.o
 .debug_aranges
                0x0000000000000538       0x70 build/sam_e70_xult/debug/_ext/1539215101/plib_twihs0_master.o
 .debug_aranges
                0x00000000000005a8       0x88 build/sam_e70_xult/debug/_ext/707186936/plib_usart1.o
 .debug_aranges
                0x0000000000000630       0x88 build/sam_e70_xult/debug/_ext/707186936/plib_usart0.o
 .debug_aranges
                0x00000000000006b8       0x88 build/sam_e70_xult/debug/_ext/707186936/plib_usart2.o
 .debug_aranges
                0x0000000000000740       0x70 build/sam_e70_xult/debug/_ext/704852250/plib_xdmac.o
 .debug_aranges
                0x00000000000007b0       0x80 build/sam_e70_xult/debug/_ext/876653320/sys_cache.o
 .debug_aranges
                0x0000000000000830       0x28 build/sam_e70_xult/debug/_ext/984150034/sys_dma.o
 .debug_aranges
                0x0000000000000858      0x220 build/sam_e70_xult/debug/_ext/1043829778/ff.o
 .debug_aranges
                0x0000000000000a78       0x30 build/sam_e70_xult/debug/_ext/1043829778/ffunicode.o
 .debug_aranges
                0x0000000000000aa8       0x58 build/sam_e70_xult/debug/_ext/1893760823/diskio.o
 .debug_aranges
                0x0000000000000b00      0x170 build/sam_e70_xult/debug/_ext/1305476372/sys_fs.o
 .debug_aranges
                0x0000000000000c70       0x98 build/sam_e70_xult/debug/_ext/1305476372/sys_fs_media_manager.o
 .debug_aranges
                0x0000000000000d08      0x130 build/sam_e70_xult/debug/_ext/1305476372/sys_fs_fat_interface.o
 .debug_aranges
                0x0000000000000e38       0x40 build/sam_e70_xult/debug/_ext/766002106/sys_int.o
 .debug_aranges
                0x0000000000000e78      0x130 build/sam_e70_xult/debug/_ext/327803284/sys_time.o
 .debug_aranges
                0x0000000000000fa8       0x20 build/sam_e70_xult/debug/_ext/1728594169/initialization.o
 .debug_aranges
                0x0000000000000fc8       0x20 build/sam_e70_xult/debug/_ext/1728594169/interrupts.o
 .debug_aranges
                0x0000000000000fe8       0x48 build/sam_e70_xult/debug/_ext/1728594169/exceptions.o
 .debug_aranges
                0x0000000000001030       0x28 build/sam_e70_xult/debug/_ext/1728594169/startup_xc32.o
 .debug_aranges
                0x0000000000001058       0x40 build/sam_e70_xult/debug/_ext/1728594169/freertos_hooks.o
 .debug_aranges
                0x0000000000001098       0x68 build/sam_e70_xult/debug/_ext/1728594169/tasks.o
 .debug_aranges
                0x0000000000001100       0x78 build/sam_e70_xult/debug/_ext/977623654/port.o
 .debug_aranges
                0x0000000000001178       0x38 build/sam_e70_xult/debug/_ext/1665200909/heap_1.o
 .debug_aranges
                0x00000000000011b0       0x40 build/sam_e70_xult/debug/_ext/404212886/list.o
 .debug_aranges
                0x00000000000011f0       0xc8 build/sam_e70_xult/debug/_ext/404212886/queue.o
 .debug_aranges
                0x00000000000012b8      0x178 build/sam_e70_xult/debug/_ext/404212886/FreeRTOS_tasks.o
 .debug_aranges
                0x0000000000001430       0x20 build/sam_e70_xult/debug/_ext/1360937237/main.o
 .debug_aranges
                0x0000000000001450       0x40 build/sam_e70_xult/debug/_ext/1360937237/app_communication.o
 .debug_aranges
                0x0000000000001490       0x48 build/sam_e70_xult/debug/_ext/1360937237/app_mast_control.o
 .debug_aranges
                0x00000000000014d8       0x38 build/sam_e70_xult/debug/_ext/1360937237/app_course_algorithm.o
 .debug_aranges
                0x0000000000001510       0x38 build/sam_e70_xult/debug/_ext/1360937237/app_rudder_control.o
 .debug_aranges
                0x0000000000001548       0x40 build/sam_e70_xult/debug/_ext/1360937237/app_anemometer.o
 .debug_aranges
                0x0000000000001588       0x60 build/sam_e70_xult/debug/_ext/1360937237/app_gps.o
 .debug_aranges
                0x00000000000015e8       0x38 build/sam_e70_xult/debug/_ext/1360937237/app_imu.o
 .debug_aranges
                0x0000000000001620       0x20 c:/program files/microchip/xc32/v2.50/bin/bin/../../lib/gcc/pic32c/6.2.1/../../../../pic32c/lib/v7e-m/fpv5/hard\libpic32c.a(data_init.o)
 .debug_aranges
                0x0000000000001640       0x20 c:/program files/microchip/xc32/v2.50/bin/bin/../../lib/gcc/pic32c/6.2.1/v7e-m/fpv5/hard\libgcc.a(_aeabi_uldivmod.o)
 .debug_aranges
                0x0000000000001660       0x20 c:/program files/microchip/xc32/v2.50/bin/bin/../../lib/gcc/pic32c/6.2.1/v7e-m/fpv5/hard\libgcc.a(_udivmoddi4.o)
 .debug_aranges
                0x0000000000001680       0x20 c:/program files/microchip/xc32/v2.50/bin/bin/../../lib/gcc/pic32c/6.2.1/v7e-m/fpv5/hard\libgcc.a(_dvmd_tls.o)
 .debug_aranges
                0x00000000000016a0       0x20 c:/program files/microchip/xc32/v2.50/bin/bin/../../lib/gcc/pic32c/6.2.1/../../../../pic32c/lib/v7e-m/fpv5/hard\libg_nano.a(lib_a-atof.o)
 .debug_aranges
                0x00000000000016c0       0x28 c:/program files/microchip/xc32/v2.50/bin/bin/../../lib/gcc/pic32c/6.2.1/../../../../pic32c/lib/v7e-m/fpv5/hard\libg_nano.a(lib_a-atoi.o)
 .debug_aranges
                0x00000000000016e8       0x20 c:/program files/microchip/xc32/v2.50/bin/bin/../../lib/gcc/pic32c/6.2.1/../../../../pic32c/lib/v7e-m/fpv5/hard\libg_nano.a(lib_a-init.o)
 .debug_aranges
                0x0000000000001708       0x28 c:/program files/microchip/xc32/v2.50/bin/bin/../../lib/gcc/pic32c/6.2.1/../../../../pic32c/lib/v7e-m/fpv5/hard\libg_nano.a(lib_a-itoa.o)
 .debug_aranges
                0x0000000000001730       0x40 c:/program files/microchip/xc32/v2.50/bin/bin/../../lib/gcc/pic32c/6.2.1/../../../../pic32c/lib/v7e-m/fpv5/hard\libg_nano.a(lib_a-locale.o)
 .debug_aranges
                0x0000000000001770       0x28 c:/program files/microchip/xc32/v2.50/bin/bin/../../lib/gcc/pic32c/6.2.1/../../../../pic32c/lib/v7e-m/fpv5/hard\libg_nano.a(lib_a-malloc.o)
 .debug_aranges
                0x0000000000001798       0x28 c:/program files/microchip/xc32/v2.50/bin/bin/../../lib/gcc/pic32c/6.2.1/../../../../pic32c/lib/v7e-m/fpv5/hard\libg_nano.a(lib_a-mbtowc_r.o)
 .debug_aranges
                0x00000000000017c0       0x20 c:/program files/microchip/xc32/v2.50/bin/bin/../../lib/gcc/pic32c/6.2.1/../../../../pic32c/lib/v7e-m/fpv5/hard\libg_nano.a(lib_a-memcpy-stub.o)
 .debug_aranges
                0x00000000000017e0       0x20 c:/program files/microchip/xc32/v2.50/bin/bin/../../lib/gcc/pic32c/6.2.1/../../../../pic32c/lib/v7e-m/fpv5/hard\libg_nano.a(lib_a-memset.o)
 .debug_aranges
                0x0000000000001800       0x20 c:/program files/microchip/xc32/v2.50/bin/bin/../../lib/gcc/pic32c/6.2.1/../../../../pic32c/lib/v7e-m/fpv5/hard\libg_nano.a(lib_a-nano-mallocr.o)
 .debug_aranges
                0x0000000000001820       0x20 c:/program files/microchip/xc32/v2.50/bin/bin/../../lib/gcc/pic32c/6.2.1/../../../../pic32c/lib/v7e-m/fpv5/hard\libg_nano.a(lib_a-sbrkr.o)
 .debug_aranges
                0x0000000000001840       0x20 c:/program files/microchip/xc32/v2.50/bin/bin/../../lib/gcc/pic32c/6.2.1/../../../../pic32c/lib/v7e-m/fpv5/hard\libg_nano.a(lib_a-strchr.o)
 .debug_aranges
                0x0000000000001860       0x20 c:/program files/microchip/xc32/v2.50/bin/bin/../../lib/gcc/pic32c/6.2.1/../../../../pic32c/lib/v7e-m/fpv5/hard\libg_nano.a(lib_a-strcpy.o)
 .debug_aranges
                0x0000000000001880       0x20 c:/program files/microchip/xc32/v2.50/bin/bin/../../lib/gcc/pic32c/6.2.1/../../../../pic32c/lib/v7e-m/fpv5/hard\libg_nano.a(lib_a-strlen.o)
 .debug_aranges
                0x00000000000018a0       0x20 c:/program files/microchip/xc32/v2.50/bin/bin/../../lib/gcc/pic32c/6.2.1/../../../../pic32c/lib/v7e-m/fpv5/hard\libg_nano.a(lib_a-strncmp.o)
 .debug_aranges
                0x00000000000018c0       0x20 c:/program files/microchip/xc32/v2.50/bin/bin/../../lib/gcc/pic32c/6.2.1/../../../../pic32c/lib/v7e-m/fpv5/hard\libg_nano.a(lib_a-strncpy.o)
 .debug_aranges
                0x00000000000018e0       0x50 c:/program files/microchip/xc32/v2.50/bin/bin/../../lib/gcc/pic32c/6.2.1/../../../../pic32c/lib/v7e-m/fpv5/hard\libg_nano.a(lib_a-strtod.o)
 .debug_aranges
                0x0000000000001930       0x38 c:/program files/microchip/xc32/v2.50/bin/bin/../../lib/gcc/pic32c/6.2.1/../../../../pic32c/lib/v7e-m/fpv5/hard\libg_nano.a(lib_a-strtol.o)
 .debug_aranges
                0x0000000000001968       0x28 c:/program files/microchip/xc32/v2.50/bin/bin/../../lib/gcc/pic32c/6.2.1/../../../../pic32c/lib/v7e-m/fpv5/hard\libg_nano.a(lib_a-utoa.o)
 .debug_aranges
                0x0000000000001990       0x28 c:/program files/microchip/xc32/v2.50/bin/bin/../../lib/gcc/pic32c/6.2.1/../../../../pic32c/lib/v7e-m/fpv5/hard\libg_nano.a(lib_a-wctomb_r.o)
 .debug_aranges
                0x00000000000019b8       0x18 c:/program files/microchip/xc32/v2.50/bin/bin/../../lib/gcc/pic32c/6.2.1/../../../../pic32c/lib/v7e-m/fpv5/hard\libg_nano.a(lib_a-ctype_.o)
 .debug_aranges
                0x00000000000019d0       0x30 c:/program files/microchip/xc32/v2.50/bin/bin/../../lib/gcc/pic32c/6.2.1/../../../../pic32c/lib/v7e-m/fpv5/hard\libg_nano.a(lib_a-gdtoa-gethex.o)
 .debug_aranges
                0x0000000000001a00       0x30 c:/program files/microchip/xc32/v2.50/bin/bin/../../lib/gcc/pic32c/6.2.1/../../../../pic32c/lib/v7e-m/fpv5/hard\libg_nano.a(lib_a-gdtoa-hexnan.o)
 .debug_aranges
                0x0000000000001a30       0x18 c:/program files/microchip/xc32/v2.50/bin/bin/../../lib/gcc/pic32c/6.2.1/../../../../pic32c/lib/v7e-m/fpv5/hard\libg_nano.a(lib_a-impure.o)
 .debug_aranges
                0x0000000000001a48       0x30 c:/program files/microchip/xc32/v2.50/bin/bin/../../lib/gcc/pic32c/6.2.1/../../../../pic32c/lib/v7e-m/fpv5/hard\libg_nano.a(lib_a-localeconv.o)
 .debug_aranges
                0x0000000000001a78       0x20 c:/program files/microchip/xc32/v2.50/bin/bin/../../lib/gcc/pic32c/6.2.1/../../../../pic32c/lib/v7e-m/fpv5/hard\libg_nano.a(lib_a-mlock.o)
 .debug_aranges
                0x0000000000001a98       0xb0 c:/program files/microchip/xc32/v2.50/bin/bin/../../lib/gcc/pic32c/6.2.1/../../../../pic32c/lib/v7e-m/fpv5/hard\libg_nano.a(lib_a-mprec.o)
 .debug_aranges
                0x0000000000001b48       0x20 c:/program files/microchip/xc32/v2.50/bin/bin/../../lib/gcc/pic32c/6.2.1/../../../../pic32c/lib/v7e-m/fpv5/hard\libg_nano.a(lib_a-nano-callocr.o)
 .debug_aranges
                0x0000000000001b68       0x28 c:/program files/microchip/xc32/v2.50/bin/bin/../../lib/gcc/pic32c/6.2.1/../../../../pic32c/lib/v7e-m/fpv5/hard\libg_nano.a(lib_a-reent.o)
 .debug_aranges
                0x0000000000001b90       0x20 c:/program files/microchip/xc32/v2.50/bin/bin/../../lib/gcc/pic32c/6.2.1/../../../../pic32c/lib/v7e-m/fpv5/hard\libm_nano.a(lib_a-s_cos.o)
 .debug_aranges
                0x0000000000001bb0       0x20 c:/program files/microchip/xc32/v2.50/bin/bin/../../lib/gcc/pic32c/6.2.1/../../../../pic32c/lib/v7e-m/fpv5/hard\libm_nano.a(lib_a-s_sin.o)
 .debug_aranges
                0x0000000000001bd0       0x20 c:/program files/microchip/xc32/v2.50/bin/bin/../../lib/gcc/pic32c/6.2.1/../../../../pic32c/lib/v7e-m/fpv5/hard\libm_nano.a(lib_a-w_atan2.o)
 .debug_aranges
                0x0000000000001bf0       0x20 c:/program files/microchip/xc32/v2.50/bin/bin/../../lib/gcc/pic32c/6.2.1/../../../../pic32c/lib/v7e-m/fpv5/hard\libm_nano.a(lib_a-w_sqrt.o)
 .debug_aranges
                0x0000000000001c10       0x20 c:/program files/microchip/xc32/v2.50/bin/bin/../../lib/gcc/pic32c/6.2.1/../../../../pic32c/lib/v7e-m/fpv5/hard\libm_nano.a(lib_a-e_atan2.o)
 .debug_aranges
                0x0000000000001c30       0x20 c:/program files/microchip/xc32/v2.50/bin/bin/../../lib/gcc/pic32c/6.2.1/../../../../pic32c/lib/v7e-m/fpv5/hard\libm_nano.a(lib_a-e_rem_pio2.o)
 .debug_aranges
                0x0000000000001c50       0x20 c:/program files/microchip/xc32/v2.50/bin/bin/../../lib/gcc/pic32c/6.2.1/../../../../pic32c/lib/v7e-m/fpv5/hard\libm_nano.a(lib_a-e_sqrt.o)
 .debug_aranges
                0x0000000000001c70       0x20 c:/program files/microchip/xc32/v2.50/bin/bin/../../lib/gcc/pic32c/6.2.1/../../../../pic32c/lib/v7e-m/fpv5/hard\libm_nano.a(lib_a-k_cos.o)
 .debug_aranges
                0x0000000000001c90       0x20 c:/program files/microchip/xc32/v2.50/bin/bin/../../lib/gcc/pic32c/6.2.1/../../../../pic32c/lib/v7e-m/fpv5/hard\libm_nano.a(lib_a-k_rem_pio2.o)
 .debug_aranges
                0x0000000000001cb0       0x20 c:/program files/microchip/xc32/v2.50/bin/bin/../../lib/gcc/pic32c/6.2.1/../../../../pic32c/lib/v7e-m/fpv5/hard\libm_nano.a(lib_a-k_sin.o)
 .debug_aranges
                0x0000000000001cd0       0x20 c:/program files/microchip/xc32/v2.50/bin/bin/../../lib/gcc/pic32c/6.2.1/../../../../pic32c/lib/v7e-m/fpv5/hard\libm_nano.a(lib_a-s_atan.o)
 .debug_aranges
                0x0000000000001cf0       0x20 c:/program files/microchip/xc32/v2.50/bin/bin/../../lib/gcc/pic32c/6.2.1/../../../../pic32c/lib/v7e-m/fpv5/hard\libm_nano.a(lib_a-s_fabs.o)
 .debug_aranges
                0x0000000000001d10       0x20 c:/program files/microchip/xc32/v2.50/bin/bin/../../lib/gcc/pic32c/6.2.1/../../../../pic32c/lib/v7e-m/fpv5/hard\libm_nano.a(lib_a-s_floor.o)
 .debug_aranges
                0x0000000000001d30       0x18 c:/program files/microchip/xc32/v2.50/bin/bin/../../lib/gcc/pic32c/6.2.1/../../../../pic32c/lib/v7e-m/fpv5/hard\libm_nano.a(lib_a-s_lib_ver.o)
 .debug_aranges
                0x0000000000001d48       0x20 c:/program files/microchip/xc32/v2.50/bin/bin/../../lib/gcc/pic32c/6.2.1/../../../../pic32c/lib/v7e-m/fpv5/hard\libm_nano.a(lib_a-s_matherr.o)
 .debug_aranges
                0x0000000000001d68       0x20 c:/program files/microchip/xc32/v2.50/bin/bin/../../lib/gcc/pic32c/6.2.1/../../../../pic32c/lib/v7e-m/fpv5/hard\libm_nano.a(lib_a-s_scalbn.o)
 .debug_aranges
                0x0000000000001d88       0x20 c:/program files/microchip/xc32/v2.50/bin/bin/../../lib/gcc/pic32c/6.2.1/../../../../pic32c/lib/v7e-m/fpv5/hard\libm_nano.a(lib_a-s_copysign.o)
 .debug_aranges
                0x0000000000001da8       0x20 c:/program files/microchip/xc32/v2.50/bin/bin/../../lib/gcc/pic32c/6.2.1/../../../../pic32c/lib/v7e-m/fpv5/hard\libc_nano.a(lib_a-errno.o)
 .debug_aranges
                0x0000000000001dc8       0x20 c:/program files/microchip/xc32/v2.50/bin/bin/../../lib/gcc/pic32c/6.2.1/../../../../pic32c/lib/v7e-m/fpv5/hard\libpic32c.a(sbrk.o)

.debug_ranges   0x0000000000000000     0x1f00
 .debug_ranges  0x0000000000000000       0x68 build/sam_e70_xult/debug/_ext/957281314/drv_i2c.o
 .debug_ranges  0x0000000000000068       0x10 build/sam_e70_xult/debug/_ext/1565510230/drv_sdmmc_file_system.o
 .debug_ranges  0x0000000000000078      0x100 build/sam_e70_xult/debug/_ext/1565510230/drv_sdmmc.o
 .debug_ranges  0x0000000000000178       0x88 build/sam_e70_xult/debug/_ext/716655881/drv_usart.o
 .debug_ranges  0x0000000000000200       0x80 build/sam_e70_xult/debug/_ext/1613695899/osal_freertos.o
 .debug_ranges  0x0000000000000280       0x10 build/sam_e70_xult/debug/_ext/1055500827/plib_clk.o
 .debug_ranges  0x0000000000000290       0x50 build/sam_e70_xult/debug/_ext/1055499099/plib_efc.o
 .debug_ranges  0x00000000000002e0       0x88 build/sam_e70_xult/debug/_ext/719181653/plib_hsmci.o
 .debug_ranges  0x0000000000000368       0x28 build/sam_e70_xult/debug/_ext/1639550079/plib_nvic.o
 .debug_ranges  0x0000000000000390       0x88 build/sam_e70_xult/debug/_ext/1055488423/plib_pio.o
 .debug_ranges  0x0000000000000418       0x80 build/sam_e70_xult/debug/_ext/1055487991/plib_pwm0.o
 .debug_ranges  0x0000000000000498       0x58 build/sam_e70_xult/debug/_ext/865331892/plib_tc3.o
 .debug_ranges  0x00000000000004f0       0x60 build/sam_e70_xult/debug/_ext/1539215101/plib_twihs0_master.o
 .debug_ranges  0x0000000000000550       0x78 build/sam_e70_xult/debug/_ext/707186936/plib_usart1.o
 .debug_ranges  0x00000000000005c8       0x78 build/sam_e70_xult/debug/_ext/707186936/plib_usart0.o
 .debug_ranges  0x0000000000000640       0x78 build/sam_e70_xult/debug/_ext/707186936/plib_usart2.o
 .debug_ranges  0x00000000000006b8       0x60 build/sam_e70_xult/debug/_ext/704852250/plib_xdmac.o
 .debug_ranges  0x0000000000000718       0xa0 build/sam_e70_xult/debug/_ext/876653320/sys_cache.o
 .debug_ranges  0x00000000000007b8       0x18 build/sam_e70_xult/debug/_ext/984150034/sys_dma.o
 .debug_ranges  0x00000000000007d0      0x3a8 build/sam_e70_xult/debug/_ext/1043829778/ff.o
 .debug_ranges  0x0000000000000b78       0x20 build/sam_e70_xult/debug/_ext/1043829778/ffunicode.o
 .debug_ranges  0x0000000000000b98       0x60 build/sam_e70_xult/debug/_ext/1893760823/diskio.o
 .debug_ranges  0x0000000000000bf8      0x160 build/sam_e70_xult/debug/_ext/1305476372/sys_fs.o
 .debug_ranges  0x0000000000000d58      0x108 build/sam_e70_xult/debug/_ext/1305476372/sys_fs_media_manager.o
 .debug_ranges  0x0000000000000e60      0x120 build/sam_e70_xult/debug/_ext/1305476372/sys_fs_fat_interface.o
 .debug_ranges  0x0000000000000f80       0x30 build/sam_e70_xult/debug/_ext/766002106/sys_int.o
 .debug_ranges  0x0000000000000fb0      0x168 build/sam_e70_xult/debug/_ext/327803284/sys_time.o
 .debug_ranges  0x0000000000001118       0x10 build/sam_e70_xult/debug/_ext/1728594169/initialization.o
 .debug_ranges  0x0000000000001128       0x10 build/sam_e70_xult/debug/_ext/1728594169/interrupts.o
 .debug_ranges  0x0000000000001138       0x38 build/sam_e70_xult/debug/_ext/1728594169/exceptions.o
 .debug_ranges  0x0000000000001170       0x18 build/sam_e70_xult/debug/_ext/1728594169/startup_xc32.o
 .debug_ranges  0x0000000000001188       0x30 build/sam_e70_xult/debug/_ext/1728594169/freertos_hooks.o
 .debug_ranges  0x00000000000011b8       0x58 build/sam_e70_xult/debug/_ext/1728594169/tasks.o
 .debug_ranges  0x0000000000001210       0x68 build/sam_e70_xult/debug/_ext/977623654/port.o
 .debug_ranges  0x0000000000001278       0x28 build/sam_e70_xult/debug/_ext/1665200909/heap_1.o
 .debug_ranges  0x00000000000012a0       0x30 build/sam_e70_xult/debug/_ext/404212886/list.o
 .debug_ranges  0x00000000000012d0      0x1b8 build/sam_e70_xult/debug/_ext/404212886/queue.o
 .debug_ranges  0x0000000000001488      0x288 build/sam_e70_xult/debug/_ext/404212886/FreeRTOS_tasks.o
 .debug_ranges  0x0000000000001710       0x10 build/sam_e70_xult/debug/_ext/1360937237/main.o
 .debug_ranges  0x0000000000001720       0x30 build/sam_e70_xult/debug/_ext/1360937237/app_communication.o
 .debug_ranges  0x0000000000001750       0x38 build/sam_e70_xult/debug/_ext/1360937237/app_mast_control.o
 .debug_ranges  0x0000000000001788       0x28 build/sam_e70_xult/debug/_ext/1360937237/app_course_algorithm.o
 .debug_ranges  0x00000000000017b0       0x28 build/sam_e70_xult/debug/_ext/1360937237/app_rudder_control.o
 .debug_ranges  0x00000000000017d8       0x30 build/sam_e70_xult/debug/_ext/1360937237/app_anemometer.o
 .debug_ranges  0x0000000000001808       0x50 build/sam_e70_xult/debug/_ext/1360937237/app_gps.o
 .debug_ranges  0x0000000000001858       0x28 build/sam_e70_xult/debug/_ext/1360937237/app_imu.o
 .debug_ranges  0x0000000000001880       0x10 c:/program files/microchip/xc32/v2.50/bin/bin/../../lib/gcc/pic32c/6.2.1/../../../../pic32c/lib/v7e-m/fpv5/hard\libpic32c.a(data_init.o)
 .debug_ranges  0x0000000000001890       0xa8 c:/program files/microchip/xc32/v2.50/bin/bin/../../lib/gcc/pic32c/6.2.1/v7e-m/fpv5/hard\libgcc.a(_udivmoddi4.o)
 .debug_ranges  0x0000000000001938       0x10 c:/program files/microchip/xc32/v2.50/bin/bin/../../lib/gcc/pic32c/6.2.1/../../../../pic32c/lib/v7e-m/fpv5/hard\libg_nano.a(lib_a-atof.o)
 .debug_ranges  0x0000000000001948       0x18 c:/program files/microchip/xc32/v2.50/bin/bin/../../lib/gcc/pic32c/6.2.1/../../../../pic32c/lib/v7e-m/fpv5/hard\libg_nano.a(lib_a-atoi.o)
 .debug_ranges  0x0000000000001960       0x10 c:/program files/microchip/xc32/v2.50/bin/bin/../../lib/gcc/pic32c/6.2.1/../../../../pic32c/lib/v7e-m/fpv5/hard\libg_nano.a(lib_a-init.o)
 .debug_ranges  0x0000000000001970       0x18 c:/program files/microchip/xc32/v2.50/bin/bin/../../lib/gcc/pic32c/6.2.1/../../../../pic32c/lib/v7e-m/fpv5/hard\libg_nano.a(lib_a-itoa.o)
 .debug_ranges  0x0000000000001988       0x30 c:/program files/microchip/xc32/v2.50/bin/bin/../../lib/gcc/pic32c/6.2.1/../../../../pic32c/lib/v7e-m/fpv5/hard\libg_nano.a(lib_a-locale.o)
 .debug_ranges  0x00000000000019b8       0x18 c:/program files/microchip/xc32/v2.50/bin/bin/../../lib/gcc/pic32c/6.2.1/../../../../pic32c/lib/v7e-m/fpv5/hard\libg_nano.a(lib_a-malloc.o)
 .debug_ranges  0x00000000000019d0       0x18 c:/program files/microchip/xc32/v2.50/bin/bin/../../lib/gcc/pic32c/6.2.1/../../../../pic32c/lib/v7e-m/fpv5/hard\libg_nano.a(lib_a-mbtowc_r.o)
 .debug_ranges  0x00000000000019e8       0x10 c:/program files/microchip/xc32/v2.50/bin/bin/../../lib/gcc/pic32c/6.2.1/../../../../pic32c/lib/v7e-m/fpv5/hard\libg_nano.a(lib_a-memcpy-stub.o)
 .debug_ranges  0x00000000000019f8       0x10 c:/program files/microchip/xc32/v2.50/bin/bin/../../lib/gcc/pic32c/6.2.1/../../../../pic32c/lib/v7e-m/fpv5/hard\libg_nano.a(lib_a-memset.o)
 .debug_ranges  0x0000000000001a08       0x58 c:/program files/microchip/xc32/v2.50/bin/bin/../../lib/gcc/pic32c/6.2.1/../../../../pic32c/lib/v7e-m/fpv5/hard\libg_nano.a(lib_a-nano-mallocr.o)
 .debug_ranges  0x0000000000001a60       0x10 c:/program files/microchip/xc32/v2.50/bin/bin/../../lib/gcc/pic32c/6.2.1/../../../../pic32c/lib/v7e-m/fpv5/hard\libg_nano.a(lib_a-sbrkr.o)
 .debug_ranges  0x0000000000001a70       0x10 c:/program files/microchip/xc32/v2.50/bin/bin/../../lib/gcc/pic32c/6.2.1/../../../../pic32c/lib/v7e-m/fpv5/hard\libg_nano.a(lib_a-strchr.o)
 .debug_ranges  0x0000000000001a80       0x10 c:/program files/microchip/xc32/v2.50/bin/bin/../../lib/gcc/pic32c/6.2.1/../../../../pic32c/lib/v7e-m/fpv5/hard\libg_nano.a(lib_a-strcpy.o)
 .debug_ranges  0x0000000000001a90       0x10 c:/program files/microchip/xc32/v2.50/bin/bin/../../lib/gcc/pic32c/6.2.1/../../../../pic32c/lib/v7e-m/fpv5/hard\libg_nano.a(lib_a-strncmp.o)
 .debug_ranges  0x0000000000001aa0       0x10 c:/program files/microchip/xc32/v2.50/bin/bin/../../lib/gcc/pic32c/6.2.1/../../../../pic32c/lib/v7e-m/fpv5/hard\libg_nano.a(lib_a-strncpy.o)
 .debug_ranges  0x0000000000001ab0       0x98 c:/program files/microchip/xc32/v2.50/bin/bin/../../lib/gcc/pic32c/6.2.1/../../../../pic32c/lib/v7e-m/fpv5/hard\libg_nano.a(lib_a-strtod.o)
 .debug_ranges  0x0000000000001b48       0x28 c:/program files/microchip/xc32/v2.50/bin/bin/../../lib/gcc/pic32c/6.2.1/../../../../pic32c/lib/v7e-m/fpv5/hard\libg_nano.a(lib_a-strtol.o)
 .debug_ranges  0x0000000000001b70       0x18 c:/program files/microchip/xc32/v2.50/bin/bin/../../lib/gcc/pic32c/6.2.1/../../../../pic32c/lib/v7e-m/fpv5/hard\libg_nano.a(lib_a-utoa.o)
 .debug_ranges  0x0000000000001b88       0x18 c:/program files/microchip/xc32/v2.50/bin/bin/../../lib/gcc/pic32c/6.2.1/../../../../pic32c/lib/v7e-m/fpv5/hard\libg_nano.a(lib_a-wctomb_r.o)
 .debug_ranges  0x0000000000001ba0       0x50 c:/program files/microchip/xc32/v2.50/bin/bin/../../lib/gcc/pic32c/6.2.1/../../../../pic32c/lib/v7e-m/fpv5/hard\libg_nano.a(lib_a-gdtoa-gethex.o)
 .debug_ranges  0x0000000000001bf0       0x20 c:/program files/microchip/xc32/v2.50/bin/bin/../../lib/gcc/pic32c/6.2.1/../../../../pic32c/lib/v7e-m/fpv5/hard\libg_nano.a(lib_a-gdtoa-hexnan.o)
 .debug_ranges  0x0000000000001c10       0x20 c:/program files/microchip/xc32/v2.50/bin/bin/../../lib/gcc/pic32c/6.2.1/../../../../pic32c/lib/v7e-m/fpv5/hard\libg_nano.a(lib_a-localeconv.o)
 .debug_ranges  0x0000000000001c30       0x10 c:/program files/microchip/xc32/v2.50/bin/bin/../../lib/gcc/pic32c/6.2.1/../../../../pic32c/lib/v7e-m/fpv5/hard\libg_nano.a(lib_a-mlock.o)
 .debug_ranges  0x0000000000001c40       0xd0 c:/program files/microchip/xc32/v2.50/bin/bin/../../lib/gcc/pic32c/6.2.1/../../../../pic32c/lib/v7e-m/fpv5/hard\libg_nano.a(lib_a-mprec.o)
 .debug_ranges  0x0000000000001d10       0x10 c:/program files/microchip/xc32/v2.50/bin/bin/../../lib/gcc/pic32c/6.2.1/../../../../pic32c/lib/v7e-m/fpv5/hard\libg_nano.a(lib_a-nano-callocr.o)
 .debug_ranges  0x0000000000001d20       0x48 c:/program files/microchip/xc32/v2.50/bin/bin/../../lib/gcc/pic32c/6.2.1/../../../../pic32c/lib/v7e-m/fpv5/hard\libg_nano.a(lib_a-reent.o)
 .debug_ranges  0x0000000000001d68       0x10 c:/program files/microchip/xc32/v2.50/bin/bin/../../lib/gcc/pic32c/6.2.1/../../../../pic32c/lib/v7e-m/fpv5/hard\libm_nano.a(lib_a-s_cos.o)
 .debug_ranges  0x0000000000001d78       0x10 c:/program files/microchip/xc32/v2.50/bin/bin/../../lib/gcc/pic32c/6.2.1/../../../../pic32c/lib/v7e-m/fpv5/hard\libm_nano.a(lib_a-s_sin.o)
 .debug_ranges  0x0000000000001d88       0x10 c:/program files/microchip/xc32/v2.50/bin/bin/../../lib/gcc/pic32c/6.2.1/../../../../pic32c/lib/v7e-m/fpv5/hard\libm_nano.a(lib_a-w_atan2.o)
 .debug_ranges  0x0000000000001d98       0x10 c:/program files/microchip/xc32/v2.50/bin/bin/../../lib/gcc/pic32c/6.2.1/../../../../pic32c/lib/v7e-m/fpv5/hard\libm_nano.a(lib_a-w_sqrt.o)
 .debug_ranges  0x0000000000001da8       0x10 c:/program files/microchip/xc32/v2.50/bin/bin/../../lib/gcc/pic32c/6.2.1/../../../../pic32c/lib/v7e-m/fpv5/hard\libm_nano.a(lib_a-e_atan2.o)
 .debug_ranges  0x0000000000001db8       0x28 c:/program files/microchip/xc32/v2.50/bin/bin/../../lib/gcc/pic32c/6.2.1/../../../../pic32c/lib/v7e-m/fpv5/hard\libm_nano.a(lib_a-e_rem_pio2.o)
 .debug_ranges  0x0000000000001de0       0x28 c:/program files/microchip/xc32/v2.50/bin/bin/../../lib/gcc/pic32c/6.2.1/../../../../pic32c/lib/v7e-m/fpv5/hard\libm_nano.a(lib_a-e_sqrt.o)
 .debug_ranges  0x0000000000001e08       0x10 c:/program files/microchip/xc32/v2.50/bin/bin/../../lib/gcc/pic32c/6.2.1/../../../../pic32c/lib/v7e-m/fpv5/hard\libm_nano.a(lib_a-k_cos.o)
 .debug_ranges  0x0000000000001e18       0x10 c:/program files/microchip/xc32/v2.50/bin/bin/../../lib/gcc/pic32c/6.2.1/../../../../pic32c/lib/v7e-m/fpv5/hard\libm_nano.a(lib_a-k_rem_pio2.o)
 .debug_ranges  0x0000000000001e28       0x10 c:/program files/microchip/xc32/v2.50/bin/bin/../../lib/gcc/pic32c/6.2.1/../../../../pic32c/lib/v7e-m/fpv5/hard\libm_nano.a(lib_a-k_sin.o)
 .debug_ranges  0x0000000000001e38       0x28 c:/program files/microchip/xc32/v2.50/bin/bin/../../lib/gcc/pic32c/6.2.1/../../../../pic32c/lib/v7e-m/fpv5/hard\libm_nano.a(lib_a-s_atan.o)
 .debug_ranges  0x0000000000001e60       0x10 c:/program files/microchip/xc32/v2.50/bin/bin/../../lib/gcc/pic32c/6.2.1/../../../../pic32c/lib/v7e-m/fpv5/hard\libm_nano.a(lib_a-s_fabs.o)
 .debug_ranges  0x0000000000001e70       0x28 c:/program files/microchip/xc32/v2.50/bin/bin/../../lib/gcc/pic32c/6.2.1/../../../../pic32c/lib/v7e-m/fpv5/hard\libm_nano.a(lib_a-s_floor.o)
 .debug_ranges  0x0000000000001e98       0x10 c:/program files/microchip/xc32/v2.50/bin/bin/../../lib/gcc/pic32c/6.2.1/../../../../pic32c/lib/v7e-m/fpv5/hard\libm_nano.a(lib_a-s_matherr.o)
 .debug_ranges  0x0000000000001ea8       0x28 c:/program files/microchip/xc32/v2.50/bin/bin/../../lib/gcc/pic32c/6.2.1/../../../../pic32c/lib/v7e-m/fpv5/hard\libm_nano.a(lib_a-s_scalbn.o)
 .debug_ranges  0x0000000000001ed0       0x10 c:/program files/microchip/xc32/v2.50/bin/bin/../../lib/gcc/pic32c/6.2.1/../../../../pic32c/lib/v7e-m/fpv5/hard\libm_nano.a(lib_a-s_copysign.o)
 .debug_ranges  0x0000000000001ee0       0x10 c:/program files/microchip/xc32/v2.50/bin/bin/../../lib/gcc/pic32c/6.2.1/../../../../pic32c/lib/v7e-m/fpv5/hard\libc_nano.a(lib_a-errno.o)
 .debug_ranges  0x0000000000001ef0       0x10 c:/program files/microchip/xc32/v2.50/bin/bin/../../lib/gcc/pic32c/6.2.1/../../../../pic32c/lib/v7e-m/fpv5/hard\libpic32c.a(sbrk.o)

.debug_line     0x0000000000000000    0x14f07
 .debug_line    0x0000000000000000      0x496 build/sam_e70_xult/debug/_ext/957281314/drv_i2c.o
 .debug_line    0x0000000000000496      0x1fb build/sam_e70_xult/debug/_ext/1565510230/drv_sdmmc_file_system.o
 .debug_line    0x0000000000000691      0x8fb build/sam_e70_xult/debug/_ext/1565510230/drv_sdmmc.o
 .debug_line    0x0000000000000f8c      0x575 build/sam_e70_xult/debug/_ext/716655881/drv_usart.o
 .debug_line    0x0000000000001501      0x370 build/sam_e70_xult/debug/_ext/1613695899/osal_freertos.o
 .debug_line    0x0000000000001871      0x171 build/sam_e70_xult/debug/_ext/1055500827/plib_clk.o
 .debug_line    0x00000000000019e2      0x29a build/sam_e70_xult/debug/_ext/1055499099/plib_efc.o
 .debug_line    0x0000000000001c7c      0x3f3 build/sam_e70_xult/debug/_ext/719181653/plib_hsmci.o
 .debug_line    0x000000000000206f      0x24f build/sam_e70_xult/debug/_ext/1639550079/plib_nvic.o
 .debug_line    0x00000000000022be      0x2d8 build/sam_e70_xult/debug/_ext/1055488423/plib_pio.o
 .debug_line    0x0000000000002596      0x278 build/sam_e70_xult/debug/_ext/1055487991/plib_pwm0.o
 .debug_line    0x000000000000280e      0x219 build/sam_e70_xult/debug/_ext/865331892/plib_tc3.o
 .debug_line    0x0000000000002a27      0x37a build/sam_e70_xult/debug/_ext/1539215101/plib_twihs0_master.o
 .debug_line    0x0000000000002da1      0x359 build/sam_e70_xult/debug/_ext/707186936/plib_usart1.o
 .debug_line    0x00000000000030fa      0x359 build/sam_e70_xult/debug/_ext/707186936/plib_usart0.o
 .debug_line    0x0000000000003453      0x359 build/sam_e70_xult/debug/_ext/707186936/plib_usart2.o
 .debug_line    0x00000000000037ac      0x2b2 build/sam_e70_xult/debug/_ext/704852250/plib_xdmac.o
 .debug_line    0x0000000000003a5e      0x452 build/sam_e70_xult/debug/_ext/876653320/sys_cache.o
 .debug_line    0x0000000000003eb0      0x16d build/sam_e70_xult/debug/_ext/984150034/sys_dma.o
 .debug_line    0x000000000000401d     0x13ee build/sam_e70_xult/debug/_ext/1043829778/ff.o
 .debug_line    0x000000000000540b      0x1b3 build/sam_e70_xult/debug/_ext/1043829778/ffunicode.o
 .debug_line    0x00000000000055be      0x36d build/sam_e70_xult/debug/_ext/1893760823/diskio.o
 .debug_line    0x000000000000592b      0xb65 build/sam_e70_xult/debug/_ext/1305476372/sys_fs.o
 .debug_line    0x0000000000006490      0x63c build/sam_e70_xult/debug/_ext/1305476372/sys_fs_media_manager.o
 .debug_line    0x0000000000006acc      0x503 build/sam_e70_xult/debug/_ext/1305476372/sys_fs_fat_interface.o
 .debug_line    0x0000000000006fcf      0x251 build/sam_e70_xult/debug/_ext/766002106/sys_int.o
 .debug_line    0x0000000000007220      0x7c8 build/sam_e70_xult/debug/_ext/327803284/sys_time.o
 .debug_line    0x00000000000079e8      0x9c2 build/sam_e70_xult/debug/_ext/1728594169/initialization.o
 .debug_line    0x00000000000083aa      0x396 build/sam_e70_xult/debug/_ext/1728594169/interrupts.o
 .debug_line    0x0000000000008740      0x3c4 build/sam_e70_xult/debug/_ext/1728594169/exceptions.o
 .debug_line    0x0000000000008b04      0x297 build/sam_e70_xult/debug/_ext/1728594169/startup_xc32.o
 .debug_line    0x0000000000008d9b      0x1ca build/sam_e70_xult/debug/_ext/1728594169/freertos_hooks.o
 .debug_line    0x0000000000008f65      0x524 build/sam_e70_xult/debug/_ext/1728594169/tasks.o
 .debug_line    0x0000000000009489      0x271 build/sam_e70_xult/debug/_ext/977623654/port.o
 .debug_line    0x00000000000096fa      0x23b build/sam_e70_xult/debug/_ext/1665200909/heap_1.o
 .debug_line    0x0000000000009935      0x29e build/sam_e70_xult/debug/_ext/404212886/list.o
 .debug_line    0x0000000000009bd3      0x65a build/sam_e70_xult/debug/_ext/404212886/queue.o
 .debug_line    0x000000000000a22d      0x8fb build/sam_e70_xult/debug/_ext/404212886/FreeRTOS_tasks.o
 .debug_line    0x000000000000ab28      0x36a build/sam_e70_xult/debug/_ext/1360937237/main.o
 .debug_line    0x000000000000ae92      0x3a1 build/sam_e70_xult/debug/_ext/1360937237/app_communication.o
 .debug_line    0x000000000000b233      0x4ec build/sam_e70_xult/debug/_ext/1360937237/app_mast_control.o
 .debug_line    0x000000000000b71f      0x372 build/sam_e70_xult/debug/_ext/1360937237/app_course_algorithm.o
 .debug_line    0x000000000000ba91      0x594 build/sam_e70_xult/debug/_ext/1360937237/app_rudder_control.o
 .debug_line    0x000000000000c025      0x38c build/sam_e70_xult/debug/_ext/1360937237/app_anemometer.o
 .debug_line    0x000000000000c3b1      0x402 build/sam_e70_xult/debug/_ext/1360937237/app_gps.o
 .debug_line    0x000000000000c7b3      0x357 build/sam_e70_xult/debug/_ext/1360937237/app_imu.o
 .debug_line    0x000000000000cb0a       0xd8 c:/program files/microchip/xc32/v2.50/bin/bin/../../lib/gcc/pic32c/6.2.1/../../../../pic32c/lib/v7e-m/fpv5/hard\libpic32c.a(data_init.o)
 .debug_line    0x000000000000cbe2       0x9c c:/program files/microchip/xc32/v2.50/bin/bin/../../lib/gcc/pic32c/6.2.1/v7e-m/fpv5/hard\libgcc.a(_aeabi_uldivmod.o)
 .debug_line    0x000000000000cc7e      0x32c c:/program files/microchip/xc32/v2.50/bin/bin/../../lib/gcc/pic32c/6.2.1/v7e-m/fpv5/hard\libgcc.a(_udivmoddi4.o)
 .debug_line    0x000000000000cfaa       0x9c c:/program files/microchip/xc32/v2.50/bin/bin/../../lib/gcc/pic32c/6.2.1/v7e-m/fpv5/hard\libgcc.a(_dvmd_tls.o)
 .debug_line    0x000000000000d046      0x1ff c:/program files/microchip/xc32/v2.50/bin/bin/../../lib/gcc/pic32c/6.2.1/../../../../pic32c/lib/v7e-m/fpv5/hard\libg_nano.a(lib_a-atof.o)
 .debug_line    0x000000000000d245      0x210 c:/program files/microchip/xc32/v2.50/bin/bin/../../lib/gcc/pic32c/6.2.1/../../../../pic32c/lib/v7e-m/fpv5/hard\libg_nano.a(lib_a-atoi.o)
 .debug_line    0x000000000000d455      0x11d c:/program files/microchip/xc32/v2.50/bin/bin/../../lib/gcc/pic32c/6.2.1/../../../../pic32c/lib/v7e-m/fpv5/hard\libg_nano.a(lib_a-init.o)
 .debug_line    0x000000000000d572      0x225 c:/program files/microchip/xc32/v2.50/bin/bin/../../lib/gcc/pic32c/6.2.1/../../../../pic32c/lib/v7e-m/fpv5/hard\libg_nano.a(lib_a-itoa.o)
 .debug_line    0x000000000000d797      0x327 c:/program files/microchip/xc32/v2.50/bin/bin/../../lib/gcc/pic32c/6.2.1/../../../../pic32c/lib/v7e-m/fpv5/hard\libg_nano.a(lib_a-locale.o)
 .debug_line    0x000000000000dabe      0x21e c:/program files/microchip/xc32/v2.50/bin/bin/../../lib/gcc/pic32c/6.2.1/../../../../pic32c/lib/v7e-m/fpv5/hard\libg_nano.a(lib_a-malloc.o)
 .debug_line    0x000000000000dcdc      0x2d5 c:/program files/microchip/xc32/v2.50/bin/bin/../../lib/gcc/pic32c/6.2.1/../../../../pic32c/lib/v7e-m/fpv5/hard\libg_nano.a(lib_a-mbtowc_r.o)
 .debug_line    0x000000000000dfb1      0x218 c:/program files/microchip/xc32/v2.50/bin/bin/../../lib/gcc/pic32c/6.2.1/../../../../pic32c/lib/v7e-m/fpv5/hard\libg_nano.a(lib_a-memcpy-stub.o)
 .debug_line    0x000000000000e1c9      0x2ae c:/program files/microchip/xc32/v2.50/bin/bin/../../lib/gcc/pic32c/6.2.1/../../../../pic32c/lib/v7e-m/fpv5/hard\libg_nano.a(lib_a-memset.o)
 .debug_line    0x000000000000e477      0x257 c:/program files/microchip/xc32/v2.50/bin/bin/../../lib/gcc/pic32c/6.2.1/../../../../pic32c/lib/v7e-m/fpv5/hard\libg_nano.a(lib_a-nano-mallocr.o)
 .debug_line    0x000000000000e6ce      0x212 c:/program files/microchip/xc32/v2.50/bin/bin/../../lib/gcc/pic32c/6.2.1/../../../../pic32c/lib/v7e-m/fpv5/hard\libg_nano.a(lib_a-sbrkr.o)
 .debug_line    0x000000000000e8e0      0x208 c:/program files/microchip/xc32/v2.50/bin/bin/../../lib/gcc/pic32c/6.2.1/../../../../pic32c/lib/v7e-m/fpv5/hard\libg_nano.a(lib_a-strchr.o)
 .debug_line    0x000000000000eae8      0x205 c:/program files/microchip/xc32/v2.50/bin/bin/../../lib/gcc/pic32c/6.2.1/../../../../pic32c/lib/v7e-m/fpv5/hard\libg_nano.a(lib_a-strcpy.o)
 .debug_line    0x000000000000eced       0xb1 c:/program files/microchip/xc32/v2.50/bin/bin/../../lib/gcc/pic32c/6.2.1/../../../../pic32c/lib/v7e-m/fpv5/hard\libg_nano.a(lib_a-strlen.o)
 .debug_line    0x000000000000ed9e      0x20e c:/program files/microchip/xc32/v2.50/bin/bin/../../lib/gcc/pic32c/6.2.1/../../../../pic32c/lib/v7e-m/fpv5/hard\libg_nano.a(lib_a-strncmp.o)
 .debug_line    0x000000000000efac      0x20e c:/program files/microchip/xc32/v2.50/bin/bin/../../lib/gcc/pic32c/6.2.1/../../../../pic32c/lib/v7e-m/fpv5/hard\libg_nano.a(lib_a-strncpy.o)
 .debug_line    0x000000000000f1ba      0x70a c:/program files/microchip/xc32/v2.50/bin/bin/../../lib/gcc/pic32c/6.2.1/../../../../pic32c/lib/v7e-m/fpv5/hard\libg_nano.a(lib_a-strtod.o)
 .debug_line    0x000000000000f8c4      0x33e c:/program files/microchip/xc32/v2.50/bin/bin/../../lib/gcc/pic32c/6.2.1/../../../../pic32c/lib/v7e-m/fpv5/hard\libg_nano.a(lib_a-strtol.o)
 .debug_line    0x000000000000fc02      0x229 c:/program files/microchip/xc32/v2.50/bin/bin/../../lib/gcc/pic32c/6.2.1/../../../../pic32c/lib/v7e-m/fpv5/hard\libg_nano.a(lib_a-utoa.o)
 .debug_line    0x000000000000fe2b      0x2d4 c:/program files/microchip/xc32/v2.50/bin/bin/../../lib/gcc/pic32c/6.2.1/../../../../pic32c/lib/v7e-m/fpv5/hard\libg_nano.a(lib_a-wctomb_r.o)
 .debug_line    0x00000000000100ff      0x21e c:/program files/microchip/xc32/v2.50/bin/bin/../../lib/gcc/pic32c/6.2.1/../../../../pic32c/lib/v7e-m/fpv5/hard\libg_nano.a(lib_a-ctype_.o)
 .debug_line    0x000000000001031d      0x4a1 c:/program files/microchip/xc32/v2.50/bin/bin/../../lib/gcc/pic32c/6.2.1/../../../../pic32c/lib/v7e-m/fpv5/hard\libg_nano.a(lib_a-gdtoa-gethex.o)
 .debug_line    0x00000000000107be      0x342 c:/program files/microchip/xc32/v2.50/bin/bin/../../lib/gcc/pic32c/6.2.1/../../../../pic32c/lib/v7e-m/fpv5/hard\libg_nano.a(lib_a-gdtoa-hexnan.o)
 .debug_line    0x0000000000010b00      0x17e c:/program files/microchip/xc32/v2.50/bin/bin/../../lib/gcc/pic32c/6.2.1/../../../../pic32c/lib/v7e-m/fpv5/hard\libg_nano.a(lib_a-impure.o)
 .debug_line    0x0000000000010c7e      0x261 c:/program files/microchip/xc32/v2.50/bin/bin/../../lib/gcc/pic32c/6.2.1/../../../../pic32c/lib/v7e-m/fpv5/hard\libg_nano.a(lib_a-localeconv.o)
 .debug_line    0x0000000000010edf      0x18d c:/program files/microchip/xc32/v2.50/bin/bin/../../lib/gcc/pic32c/6.2.1/../../../../pic32c/lib/v7e-m/fpv5/hard\libg_nano.a(lib_a-mlock.o)
 .debug_line    0x000000000001106c      0x6a2 c:/program files/microchip/xc32/v2.50/bin/bin/../../lib/gcc/pic32c/6.2.1/../../../../pic32c/lib/v7e-m/fpv5/hard\libg_nano.a(lib_a-mprec.o)
 .debug_line    0x000000000001170e      0x217 c:/program files/microchip/xc32/v2.50/bin/bin/../../lib/gcc/pic32c/6.2.1/../../../../pic32c/lib/v7e-m/fpv5/hard\libg_nano.a(lib_a-nano-callocr.o)
 .debug_line    0x0000000000011925      0x241 c:/program files/microchip/xc32/v2.50/bin/bin/../../lib/gcc/pic32c/6.2.1/../../../../pic32c/lib/v7e-m/fpv5/hard\libg_nano.a(lib_a-reent.o)
 .debug_line    0x0000000000011b66      0x30e c:/program files/microchip/xc32/v2.50/bin/bin/../../lib/gcc/pic32c/6.2.1/../../../../pic32c/lib/v7e-m/fpv5/hard\libm_nano.a(lib_a-s_cos.o)
 .debug_line    0x0000000000011e74      0x310 c:/program files/microchip/xc32/v2.50/bin/bin/../../lib/gcc/pic32c/6.2.1/../../../../pic32c/lib/v7e-m/fpv5/hard\libm_nano.a(lib_a-s_sin.o)
 .debug_line    0x0000000000012184      0x281 c:/program files/microchip/xc32/v2.50/bin/bin/../../lib/gcc/pic32c/6.2.1/../../../../pic32c/lib/v7e-m/fpv5/hard\libm_nano.a(lib_a-w_atan2.o)
 .debug_line    0x0000000000012405      0x295 c:/program files/microchip/xc32/v2.50/bin/bin/../../lib/gcc/pic32c/6.2.1/../../../../pic32c/lib/v7e-m/fpv5/hard\libm_nano.a(lib_a-w_sqrt.o)
 .debug_line    0x000000000001269a      0x33f c:/program files/microchip/xc32/v2.50/bin/bin/../../lib/gcc/pic32c/6.2.1/../../../../pic32c/lib/v7e-m/fpv5/hard\libm_nano.a(lib_a-e_atan2.o)
 .debug_line    0x00000000000129d9      0x374 c:/program files/microchip/xc32/v2.50/bin/bin/../../lib/gcc/pic32c/6.2.1/../../../../pic32c/lib/v7e-m/fpv5/hard\libm_nano.a(lib_a-e_rem_pio2.o)
 .debug_line    0x0000000000012d4d      0x357 c:/program files/microchip/xc32/v2.50/bin/bin/../../lib/gcc/pic32c/6.2.1/../../../../pic32c/lib/v7e-m/fpv5/hard\libm_nano.a(lib_a-e_sqrt.o)
 .debug_line    0x00000000000130a4      0x310 c:/program files/microchip/xc32/v2.50/bin/bin/../../lib/gcc/pic32c/6.2.1/../../../../pic32c/lib/v7e-m/fpv5/hard\libm_nano.a(lib_a-k_cos.o)
 .debug_line    0x00000000000133b4      0x364 c:/program files/microchip/xc32/v2.50/bin/bin/../../lib/gcc/pic32c/6.2.1/../../../../pic32c/lib/v7e-m/fpv5/hard\libm_nano.a(lib_a-k_rem_pio2.o)
 .debug_line    0x0000000000013718      0x302 c:/program files/microchip/xc32/v2.50/bin/bin/../../lib/gcc/pic32c/6.2.1/../../../../pic32c/lib/v7e-m/fpv5/hard\libm_nano.a(lib_a-k_sin.o)
 .debug_line    0x0000000000013a1a      0x32c c:/program files/microchip/xc32/v2.50/bin/bin/../../lib/gcc/pic32c/6.2.1/../../../../pic32c/lib/v7e-m/fpv5/hard\libm_nano.a(lib_a-s_atan.o)
 .debug_line    0x0000000000013d46      0x2f8 c:/program files/microchip/xc32/v2.50/bin/bin/../../lib/gcc/pic32c/6.2.1/../../../../pic32c/lib/v7e-m/fpv5/hard\libm_nano.a(lib_a-s_fabs.o)
 .debug_line    0x000000000001403e      0x34d c:/program files/microchip/xc32/v2.50/bin/bin/../../lib/gcc/pic32c/6.2.1/../../../../pic32c/lib/v7e-m/fpv5/hard\libm_nano.a(lib_a-s_floor.o)
 .debug_line    0x000000000001438b      0x1f1 c:/program files/microchip/xc32/v2.50/bin/bin/../../lib/gcc/pic32c/6.2.1/../../../../pic32c/lib/v7e-m/fpv5/hard\libm_nano.a(lib_a-s_lib_ver.o)
 .debug_line    0x000000000001457c      0x202 c:/program files/microchip/xc32/v2.50/bin/bin/../../lib/gcc/pic32c/6.2.1/../../../../pic32c/lib/v7e-m/fpv5/hard\libm_nano.a(lib_a-s_matherr.o)
 .debug_line    0x000000000001477e      0x2bd c:/program files/microchip/xc32/v2.50/bin/bin/../../lib/gcc/pic32c/6.2.1/../../../../pic32c/lib/v7e-m/fpv5/hard\libm_nano.a(lib_a-s_scalbn.o)
 .debug_line    0x0000000000014a3b      0x292 c:/program files/microchip/xc32/v2.50/bin/bin/../../lib/gcc/pic32c/6.2.1/../../../../pic32c/lib/v7e-m/fpv5/hard\libm_nano.a(lib_a-s_copysign.o)
 .debug_line    0x0000000000014ccd      0x198 c:/program files/microchip/xc32/v2.50/bin/bin/../../lib/gcc/pic32c/6.2.1/../../../../pic32c/lib/v7e-m/fpv5/hard\libc_nano.a(lib_a-errno.o)
 .debug_line    0x0000000000014e65       0xa2 c:/program files/microchip/xc32/v2.50/bin/bin/../../lib/gcc/pic32c/6.2.1/../../../../pic32c/lib/v7e-m/fpv5/hard\libpic32c.a(sbrk.o)

.debug_str      0x0000000000000000     0x2c3d
 .debug_str     0x0000000000000000       0xdf build/sam_e70_xult/debug/_ext/957281314/drv_i2c.o
 .debug_str     0x00000000000000df       0x1e build/sam_e70_xult/debug/_ext/1565510230/drv_sdmmc_file_system.o
 .debug_str     0x00000000000000fd      0x288 build/sam_e70_xult/debug/_ext/1565510230/drv_sdmmc.o
 .debug_str     0x0000000000000385      0x1aa build/sam_e70_xult/debug/_ext/716655881/drv_usart.o
 .debug_str     0x000000000000052f      0x13b build/sam_e70_xult/debug/_ext/1613695899/osal_freertos.o
 .debug_str     0x000000000000066a        0x0 build/sam_e70_xult/debug/_ext/1055500827/plib_clk.o
 .debug_str     0x000000000000066a       0x22 build/sam_e70_xult/debug/_ext/1055499099/plib_efc.o
 .debug_str     0x000000000000068c       0x65 build/sam_e70_xult/debug/_ext/719181653/plib_hsmci.o
 .debug_str     0x00000000000006f1       0x28 build/sam_e70_xult/debug/_ext/1639550079/plib_nvic.o
 .debug_str     0x0000000000000719       0x59 build/sam_e70_xult/debug/_ext/1055488423/plib_pio.o
 .debug_str     0x0000000000000772       0x14 build/sam_e70_xult/debug/_ext/1055487991/plib_pwm0.o
 .debug_str     0x0000000000000786        0xa build/sam_e70_xult/debug/_ext/865331892/plib_tc3.o
 .debug_str     0x0000000000000790       0x11 build/sam_e70_xult/debug/_ext/1539215101/plib_twihs0_master.o
 .debug_str     0x00000000000007a1       0x1c build/sam_e70_xult/debug/_ext/707186936/plib_usart1.o
 .debug_str     0x00000000000007bd       0x1c build/sam_e70_xult/debug/_ext/707186936/plib_usart0.o
 .debug_str     0x00000000000007d9       0x1c build/sam_e70_xult/debug/_ext/707186936/plib_usart2.o
 .debug_str     0x00000000000007f5       0x1d build/sam_e70_xult/debug/_ext/704852250/plib_xdmac.o
 .debug_str     0x0000000000000812       0x1c build/sam_e70_xult/debug/_ext/876653320/sys_cache.o
 .debug_str     0x000000000000082e       0x32 build/sam_e70_xult/debug/_ext/984150034/sys_dma.o
 .debug_str     0x0000000000000860       0x80 build/sam_e70_xult/debug/_ext/1043829778/ff.o
 .debug_str     0x00000000000008e0        0x0 build/sam_e70_xult/debug/_ext/1043829778/ffunicode.o
 .debug_str     0x00000000000008e0      0x122 build/sam_e70_xult/debug/_ext/1893760823/diskio.o
 .debug_str     0x0000000000000a02      0x161 build/sam_e70_xult/debug/_ext/1305476372/sys_fs.o
 .debug_str     0x0000000000000b63       0xe0 build/sam_e70_xult/debug/_ext/1305476372/sys_fs_media_manager.o
 .debug_str     0x0000000000000c43       0x96 build/sam_e70_xult/debug/_ext/1305476372/sys_fs_fat_interface.o
 .debug_str     0x0000000000000cd9       0x32 build/sam_e70_xult/debug/_ext/766002106/sys_int.o
 .debug_str     0x0000000000000d0b      0x16e build/sam_e70_xult/debug/_ext/327803284/sys_time.o
 .debug_str     0x0000000000000e79      0x31d build/sam_e70_xult/debug/_ext/1728594169/initialization.o
 .debug_str     0x0000000000001196       0x32 build/sam_e70_xult/debug/_ext/1728594169/interrupts.o
 .debug_str     0x00000000000011c8       0x32 build/sam_e70_xult/debug/_ext/1728594169/exceptions.o
 .debug_str     0x00000000000011fa       0x2f build/sam_e70_xult/debug/_ext/1728594169/startup_xc32.o
 .debug_str     0x0000000000001229       0x25 build/sam_e70_xult/debug/_ext/1728594169/freertos_hooks.o
 .debug_str     0x000000000000124e      0x11b build/sam_e70_xult/debug/_ext/1728594169/tasks.o
 .debug_str     0x0000000000001369       0x26 build/sam_e70_xult/debug/_ext/977623654/port.o
 .debug_str     0x000000000000138f       0x4a build/sam_e70_xult/debug/_ext/1665200909/heap_1.o
 .debug_str     0x00000000000013d9       0x39 build/sam_e70_xult/debug/_ext/404212886/list.o
 .debug_str     0x0000000000001412      0x28d build/sam_e70_xult/debug/_ext/404212886/queue.o
 .debug_str     0x000000000000169f      0x283 build/sam_e70_xult/debug/_ext/404212886/FreeRTOS_tasks.o
 .debug_str     0x0000000000001922       0x4b build/sam_e70_xult/debug/_ext/1360937237/main.o
 .debug_str     0x000000000000196d       0x85 build/sam_e70_xult/debug/_ext/1360937237/app_communication.o
 .debug_str     0x00000000000019f2      0x104 build/sam_e70_xult/debug/_ext/1360937237/app_mast_control.o
 .debug_str     0x0000000000001af6       0x46 build/sam_e70_xult/debug/_ext/1360937237/app_course_algorithm.o
 .debug_str     0x0000000000001b3c      0x166 build/sam_e70_xult/debug/_ext/1360937237/app_rudder_control.o
 .debug_str     0x0000000000001ca2       0x51 build/sam_e70_xult/debug/_ext/1360937237/app_anemometer.o
 .debug_str     0x0000000000001cf3       0x5a build/sam_e70_xult/debug/_ext/1360937237/app_gps.o
 .debug_str     0x0000000000001d4d       0x46 build/sam_e70_xult/debug/_ext/1360937237/app_imu.o
 .debug_str     0x0000000000001d93        0x0 c:/program files/microchip/xc32/v2.50/bin/bin/../../lib/gcc/pic32c/6.2.1/../../../../pic32c/lib/v7e-m/fpv5/hard\libpic32c.a(data_init.o)
 .debug_str     0x0000000000001d93        0x0 c:/program files/microchip/xc32/v2.50/bin/bin/../../lib/gcc/pic32c/6.2.1/v7e-m/fpv5/hard\libgcc.a(_udivmoddi4.o)
 .debug_str     0x0000000000001d93        0x9 c:/program files/microchip/xc32/v2.50/bin/bin/../../lib/gcc/pic32c/6.2.1/../../../../pic32c/lib/v7e-m/fpv5/hard\libg_nano.a(lib_a-atof.o)
 .debug_str     0x0000000000001d9c       0x13 c:/program files/microchip/xc32/v2.50/bin/bin/../../lib/gcc/pic32c/6.2.1/../../../../pic32c/lib/v7e-m/fpv5/hard\libg_nano.a(lib_a-atoi.o)
 .debug_str     0x0000000000001daf        0x0 c:/program files/microchip/xc32/v2.50/bin/bin/../../lib/gcc/pic32c/6.2.1/../../../../pic32c/lib/v7e-m/fpv5/hard\libg_nano.a(lib_a-init.o)
 .debug_str     0x0000000000001daf        0x9 c:/program files/microchip/xc32/v2.50/bin/bin/../../lib/gcc/pic32c/6.2.1/../../../../pic32c/lib/v7e-m/fpv5/hard\libg_nano.a(lib_a-itoa.o)
 .debug_str     0x0000000000001db8      0x134 c:/program files/microchip/xc32/v2.50/bin/bin/../../lib/gcc/pic32c/6.2.1/../../../../pic32c/lib/v7e-m/fpv5/hard\libg_nano.a(lib_a-locale.o)
 .debug_str     0x0000000000001eec       0x13 c:/program files/microchip/xc32/v2.50/bin/bin/../../lib/gcc/pic32c/6.2.1/../../../../pic32c/lib/v7e-m/fpv5/hard\libg_nano.a(lib_a-malloc.o)
 .debug_str     0x0000000000001eff      0x114 c:/program files/microchip/xc32/v2.50/bin/bin/../../lib/gcc/pic32c/6.2.1/../../../../pic32c/lib/v7e-m/fpv5/hard\libg_nano.a(lib_a-mbtowc_r.o)
 .debug_str     0x0000000000002013        0x9 c:/program files/microchip/xc32/v2.50/bin/bin/../../lib/gcc/pic32c/6.2.1/../../../../pic32c/lib/v7e-m/fpv5/hard\libg_nano.a(lib_a-memcpy-stub.o)
 .debug_str     0x000000000000201c      0x114 c:/program files/microchip/xc32/v2.50/bin/bin/../../lib/gcc/pic32c/6.2.1/../../../../pic32c/lib/v7e-m/fpv5/hard\libg_nano.a(lib_a-memset.o)
 .debug_str     0x0000000000002130       0x31 c:/program files/microchip/xc32/v2.50/bin/bin/../../lib/gcc/pic32c/6.2.1/../../../../pic32c/lib/v7e-m/fpv5/hard\libg_nano.a(lib_a-nano-mallocr.o)
 .debug_str     0x0000000000002161        0x9 c:/program files/microchip/xc32/v2.50/bin/bin/../../lib/gcc/pic32c/6.2.1/../../../../pic32c/lib/v7e-m/fpv5/hard\libg_nano.a(lib_a-sbrkr.o)
 .debug_str     0x000000000000216a        0x9 c:/program files/microchip/xc32/v2.50/bin/bin/../../lib/gcc/pic32c/6.2.1/../../../../pic32c/lib/v7e-m/fpv5/hard\libg_nano.a(lib_a-strchr.o)
 .debug_str     0x0000000000002173        0x9 c:/program files/microchip/xc32/v2.50/bin/bin/../../lib/gcc/pic32c/6.2.1/../../../../pic32c/lib/v7e-m/fpv5/hard\libg_nano.a(lib_a-strcpy.o)
 .debug_str     0x000000000000217c        0x9 c:/program files/microchip/xc32/v2.50/bin/bin/../../lib/gcc/pic32c/6.2.1/../../../../pic32c/lib/v7e-m/fpv5/hard\libg_nano.a(lib_a-strncmp.o)
 .debug_str     0x0000000000002185        0x9 c:/program files/microchip/xc32/v2.50/bin/bin/../../lib/gcc/pic32c/6.2.1/../../../../pic32c/lib/v7e-m/fpv5/hard\libg_nano.a(lib_a-strncpy.o)
 .debug_str     0x000000000000218e      0x15f c:/program files/microchip/xc32/v2.50/bin/bin/../../lib/gcc/pic32c/6.2.1/../../../../pic32c/lib/v7e-m/fpv5/hard\libg_nano.a(lib_a-strtod.o)
 .debug_str     0x00000000000022ed      0x129 c:/program files/microchip/xc32/v2.50/bin/bin/../../lib/gcc/pic32c/6.2.1/../../../../pic32c/lib/v7e-m/fpv5/hard\libg_nano.a(lib_a-strtol.o)
 .debug_str     0x0000000000002416        0x9 c:/program files/microchip/xc32/v2.50/bin/bin/../../lib/gcc/pic32c/6.2.1/../../../../pic32c/lib/v7e-m/fpv5/hard\libg_nano.a(lib_a-utoa.o)
 .debug_str     0x000000000000241f      0x114 c:/program files/microchip/xc32/v2.50/bin/bin/../../lib/gcc/pic32c/6.2.1/../../../../pic32c/lib/v7e-m/fpv5/hard\libg_nano.a(lib_a-wctomb_r.o)
 .debug_str     0x0000000000002533      0x114 c:/program files/microchip/xc32/v2.50/bin/bin/../../lib/gcc/pic32c/6.2.1/../../../../pic32c/lib/v7e-m/fpv5/hard\libg_nano.a(lib_a-ctype_.o)
 .debug_str     0x0000000000002647      0x13f c:/program files/microchip/xc32/v2.50/bin/bin/../../lib/gcc/pic32c/6.2.1/../../../../pic32c/lib/v7e-m/fpv5/hard\libg_nano.a(lib_a-gdtoa-gethex.o)
 .debug_str     0x0000000000002786      0x121 c:/program files/microchip/xc32/v2.50/bin/bin/../../lib/gcc/pic32c/6.2.1/../../../../pic32c/lib/v7e-m/fpv5/hard\libg_nano.a(lib_a-gdtoa-hexnan.o)
 .debug_str     0x00000000000028a7        0x9 c:/program files/microchip/xc32/v2.50/bin/bin/../../lib/gcc/pic32c/6.2.1/../../../../pic32c/lib/v7e-m/fpv5/hard\libg_nano.a(lib_a-impure.o)
 .debug_str     0x00000000000028b0      0x114 c:/program files/microchip/xc32/v2.50/bin/bin/../../lib/gcc/pic32c/6.2.1/../../../../pic32c/lib/v7e-m/fpv5/hard\libg_nano.a(lib_a-localeconv.o)
 .debug_str     0x00000000000029c4        0x9 c:/program files/microchip/xc32/v2.50/bin/bin/../../lib/gcc/pic32c/6.2.1/../../../../pic32c/lib/v7e-m/fpv5/hard\libg_nano.a(lib_a-mlock.o)
 .debug_str     0x00000000000029cd      0x11e c:/program files/microchip/xc32/v2.50/bin/bin/../../lib/gcc/pic32c/6.2.1/../../../../pic32c/lib/v7e-m/fpv5/hard\libg_nano.a(lib_a-mprec.o)
 .debug_str     0x0000000000002aeb       0x13 c:/program files/microchip/xc32/v2.50/bin/bin/../../lib/gcc/pic32c/6.2.1/../../../../pic32c/lib/v7e-m/fpv5/hard\libg_nano.a(lib_a-nano-callocr.o)
 .debug_str     0x0000000000002afe        0x9 c:/program files/microchip/xc32/v2.50/bin/bin/../../lib/gcc/pic32c/6.2.1/../../../../pic32c/lib/v7e-m/fpv5/hard\libg_nano.a(lib_a-reent.o)
 .debug_str     0x0000000000002b07       0x36 c:/program files/microchip/xc32/v2.50/bin/bin/../../lib/gcc/pic32c/6.2.1/../../../../pic32c/lib/v7e-m/fpv5/hard\libm_nano.a(lib_a-s_cos.o)
 .debug_str     0x0000000000002b3d       0x36 c:/program files/microchip/xc32/v2.50/bin/bin/../../lib/gcc/pic32c/6.2.1/../../../../pic32c/lib/v7e-m/fpv5/hard\libm_nano.a(lib_a-s_sin.o)
 .debug_str     0x0000000000002b73       0x19 c:/program files/microchip/xc32/v2.50/bin/bin/../../lib/gcc/pic32c/6.2.1/../../../../pic32c/lib/v7e-m/fpv5/hard\libm_nano.a(lib_a-w_atan2.o)
 .debug_str     0x0000000000002b8c       0x18 c:/program files/microchip/xc32/v2.50/bin/bin/../../lib/gcc/pic32c/6.2.1/../../../../pic32c/lib/v7e-m/fpv5/hard\libm_nano.a(lib_a-w_sqrt.o)
 .debug_str     0x0000000000002ba4        0x9 c:/program files/microchip/xc32/v2.50/bin/bin/../../lib/gcc/pic32c/6.2.1/../../../../pic32c/lib/v7e-m/fpv5/hard\libm_nano.a(lib_a-e_atan2.o)
 .debug_str     0x0000000000002bad       0x1b c:/program files/microchip/xc32/v2.50/bin/bin/../../lib/gcc/pic32c/6.2.1/../../../../pic32c/lib/v7e-m/fpv5/hard\libm_nano.a(lib_a-e_rem_pio2.o)
 .debug_str     0x0000000000002bc8        0x9 c:/program files/microchip/xc32/v2.50/bin/bin/../../lib/gcc/pic32c/6.2.1/../../../../pic32c/lib/v7e-m/fpv5/hard\libm_nano.a(lib_a-e_sqrt.o)
 .debug_str     0x0000000000002bd1        0x9 c:/program files/microchip/xc32/v2.50/bin/bin/../../lib/gcc/pic32c/6.2.1/../../../../pic32c/lib/v7e-m/fpv5/hard\libm_nano.a(lib_a-k_cos.o)
 .debug_str     0x0000000000002bda        0x9 c:/program files/microchip/xc32/v2.50/bin/bin/../../lib/gcc/pic32c/6.2.1/../../../../pic32c/lib/v7e-m/fpv5/hard\libm_nano.a(lib_a-k_rem_pio2.o)
 .debug_str     0x0000000000002be3        0x9 c:/program files/microchip/xc32/v2.50/bin/bin/../../lib/gcc/pic32c/6.2.1/../../../../pic32c/lib/v7e-m/fpv5/hard\libm_nano.a(lib_a-k_sin.o)
 .debug_str     0x0000000000002bec        0x9 c:/program files/microchip/xc32/v2.50/bin/bin/../../lib/gcc/pic32c/6.2.1/../../../../pic32c/lib/v7e-m/fpv5/hard\libm_nano.a(lib_a-s_atan.o)
 .debug_str     0x0000000000002bf5        0x9 c:/program files/microchip/xc32/v2.50/bin/bin/../../lib/gcc/pic32c/6.2.1/../../../../pic32c/lib/v7e-m/fpv5/hard\libm_nano.a(lib_a-s_fabs.o)
 .debug_str     0x0000000000002bfe        0x9 c:/program files/microchip/xc32/v2.50/bin/bin/../../lib/gcc/pic32c/6.2.1/../../../../pic32c/lib/v7e-m/fpv5/hard\libm_nano.a(lib_a-s_floor.o)
 .debug_str     0x0000000000002c07        0x9 c:/program files/microchip/xc32/v2.50/bin/bin/../../lib/gcc/pic32c/6.2.1/../../../../pic32c/lib/v7e-m/fpv5/hard\libm_nano.a(lib_a-s_lib_ver.o)
 .debug_str     0x0000000000002c10        0x9 c:/program files/microchip/xc32/v2.50/bin/bin/../../lib/gcc/pic32c/6.2.1/../../../../pic32c/lib/v7e-m/fpv5/hard\libm_nano.a(lib_a-s_matherr.o)
 .debug_str     0x0000000000002c19       0x12 c:/program files/microchip/xc32/v2.50/bin/bin/../../lib/gcc/pic32c/6.2.1/../../../../pic32c/lib/v7e-m/fpv5/hard\libm_nano.a(lib_a-s_scalbn.o)
 .debug_str     0x0000000000002c2b        0x9 c:/program files/microchip/xc32/v2.50/bin/bin/../../lib/gcc/pic32c/6.2.1/../../../../pic32c/lib/v7e-m/fpv5/hard\libm_nano.a(lib_a-s_copysign.o)
 .debug_str     0x0000000000002c34        0x9 c:/program files/microchip/xc32/v2.50/bin/bin/../../lib/gcc/pic32c/6.2.1/../../../../pic32c/lib/v7e-m/fpv5/hard\libc_nano.a(lib_a-errno.o)
 .debug_str     0x0000000000002c3d        0x0 c:/program files/microchip/xc32/v2.50/bin/bin/../../lib/gcc/pic32c/6.2.1/../../../../pic32c/lib/v7e-m/fpv5/hard\libpic32c.a(sbrk.o)

.debug_frame    0x0000000000000000     0x4aa4
 .debug_frame   0x0000000000000000      0x168 build/sam_e70_xult/debug/_ext/957281314/drv_i2c.o
 .debug_frame   0x0000000000000168       0x28 build/sam_e70_xult/debug/_ext/1565510230/drv_sdmmc_file_system.o
 .debug_frame   0x0000000000000190      0x23c build/sam_e70_xult/debug/_ext/1565510230/drv_sdmmc.o
 .debug_frame   0x00000000000003cc      0x174 build/sam_e70_xult/debug/_ext/716655881/drv_usart.o
 .debug_frame   0x0000000000000540      0x180 build/sam_e70_xult/debug/_ext/1613695899/osal_freertos.o
 .debug_frame   0x00000000000006c0       0x20 build/sam_e70_xult/debug/_ext/1055500827/plib_clk.o
 .debug_frame   0x00000000000006e0       0xc0 build/sam_e70_xult/debug/_ext/1055499099/plib_efc.o
 .debug_frame   0x00000000000007a0      0x154 build/sam_e70_xult/debug/_ext/719181653/plib_hsmci.o
 .debug_frame   0x00000000000008f4       0x50 build/sam_e70_xult/debug/_ext/1639550079/plib_nvic.o
 .debug_frame   0x0000000000000944      0x154 build/sam_e70_xult/debug/_ext/1055488423/plib_pio.o
 .debug_frame   0x0000000000000a98      0x12c build/sam_e70_xult/debug/_ext/1055487991/plib_pwm0.o
 .debug_frame   0x0000000000000bc4       0xb8 build/sam_e70_xult/debug/_ext/865331892/plib_tc3.o
 .debug_frame   0x0000000000000c7c       0xf4 build/sam_e70_xult/debug/_ext/1539215101/plib_twihs0_master.o
 .debug_frame   0x0000000000000d70      0x13c build/sam_e70_xult/debug/_ext/707186936/plib_usart1.o
 .debug_frame   0x0000000000000eac      0x13c build/sam_e70_xult/debug/_ext/707186936/plib_usart0.o
 .debug_frame   0x0000000000000fe8      0x13c build/sam_e70_xult/debug/_ext/707186936/plib_usart2.o
 .debug_frame   0x0000000000001124       0xf8 build/sam_e70_xult/debug/_ext/704852250/plib_xdmac.o
 .debug_frame   0x000000000000121c      0x188 build/sam_e70_xult/debug/_ext/876653320/sys_cache.o
 .debug_frame   0x00000000000013a4       0x48 build/sam_e70_xult/debug/_ext/984150034/sys_dma.o
 .debug_frame   0x00000000000013ec      0x8d0 build/sam_e70_xult/debug/_ext/1043829778/ff.o
 .debug_frame   0x0000000000001cbc       0x5c build/sam_e70_xult/debug/_ext/1043829778/ffunicode.o
 .debug_frame   0x0000000000001d18       0xd8 build/sam_e70_xult/debug/_ext/1893760823/diskio.o
 .debug_frame   0x0000000000001df0      0x5b0 build/sam_e70_xult/debug/_ext/1305476372/sys_fs.o
 .debug_frame   0x00000000000023a0      0x1d0 build/sam_e70_xult/debug/_ext/1305476372/sys_fs_media_manager.o
 .debug_frame   0x0000000000002570      0x35c build/sam_e70_xult/debug/_ext/1305476372/sys_fs_fat_interface.o
 .debug_frame   0x00000000000028cc       0x84 build/sam_e70_xult/debug/_ext/766002106/sys_int.o
 .debug_frame   0x0000000000002950      0x3e4 build/sam_e70_xult/debug/_ext/327803284/sys_time.o
 .debug_frame   0x0000000000002d34       0x28 build/sam_e70_xult/debug/_ext/1728594169/initialization.o
 .debug_frame   0x0000000000002d5c       0x20 build/sam_e70_xult/debug/_ext/1728594169/interrupts.o
 .debug_frame   0x0000000000002d7c       0x70 build/sam_e70_xult/debug/_ext/1728594169/exceptions.o
 .debug_frame   0x0000000000002dec       0x38 build/sam_e70_xult/debug/_ext/1728594169/startup_xc32.o
 .debug_frame   0x0000000000002e24       0x6c build/sam_e70_xult/debug/_ext/1728594169/freertos_hooks.o
 .debug_frame   0x0000000000002e90      0x10c build/sam_e70_xult/debug/_ext/1728594169/tasks.o
 .debug_frame   0x0000000000002f9c       0xe8 build/sam_e70_xult/debug/_ext/977623654/port.o
 .debug_frame   0x0000000000003084       0x5c build/sam_e70_xult/debug/_ext/1665200909/heap_1.o
 .debug_frame   0x00000000000030e0       0x6c build/sam_e70_xult/debug/_ext/404212886/list.o
 .debug_frame   0x000000000000314c      0x280 build/sam_e70_xult/debug/_ext/404212886/queue.o
 .debug_frame   0x00000000000033cc      0x48c build/sam_e70_xult/debug/_ext/404212886/FreeRTOS_tasks.o
 .debug_frame   0x0000000000003858       0x28 build/sam_e70_xult/debug/_ext/1360937237/main.o
 .debug_frame   0x0000000000003880       0x94 build/sam_e70_xult/debug/_ext/1360937237/app_communication.o
 .debug_frame   0x0000000000003914       0x7c build/sam_e70_xult/debug/_ext/1360937237/app_mast_control.o
 .debug_frame   0x0000000000003990      0x108 build/sam_e70_xult/debug/_ext/1360937237/app_course_algorithm.o
 .debug_frame   0x0000000000003a98       0x68 build/sam_e70_xult/debug/_ext/1360937237/app_rudder_control.o
 .debug_frame   0x0000000000003b00      0x104 build/sam_e70_xult/debug/_ext/1360937237/app_anemometer.o
 .debug_frame   0x0000000000003c04      0x150 build/sam_e70_xult/debug/_ext/1360937237/app_gps.o
 .debug_frame   0x0000000000003d54       0x7c build/sam_e70_xult/debug/_ext/1360937237/app_imu.o
 .debug_frame   0x0000000000003dd0       0x2c c:/program files/microchip/xc32/v2.50/bin/bin/../../lib/gcc/pic32c/6.2.1/../../../../pic32c/lib/v7e-m/fpv5/hard\libpic32c.a(data_init.o)
 .debug_frame   0x0000000000003dfc       0x2c c:/program files/microchip/xc32/v2.50/bin/bin/../../lib/gcc/pic32c/6.2.1/v7e-m/fpv5/hard\libgcc.a(_aeabi_uldivmod.o)
 .debug_frame   0x0000000000003e28       0x38 c:/program files/microchip/xc32/v2.50/bin/bin/../../lib/gcc/pic32c/6.2.1/v7e-m/fpv5/hard\libgcc.a(_udivmoddi4.o)
 .debug_frame   0x0000000000003e60       0x20 c:/program files/microchip/xc32/v2.50/bin/bin/../../lib/gcc/pic32c/6.2.1/../../../../pic32c/lib/v7e-m/fpv5/hard\libg_nano.a(lib_a-atof.o)
 .debug_frame   0x0000000000003e80       0x30 c:/program files/microchip/xc32/v2.50/bin/bin/../../lib/gcc/pic32c/6.2.1/../../../../pic32c/lib/v7e-m/fpv5/hard\libg_nano.a(lib_a-atoi.o)
 .debug_frame   0x0000000000003eb0       0x2c c:/program files/microchip/xc32/v2.50/bin/bin/../../lib/gcc/pic32c/6.2.1/../../../../pic32c/lib/v7e-m/fpv5/hard\libg_nano.a(lib_a-init.o)
 .debug_frame   0x0000000000003edc       0x38 c:/program files/microchip/xc32/v2.50/bin/bin/../../lib/gcc/pic32c/6.2.1/../../../../pic32c/lib/v7e-m/fpv5/hard\libg_nano.a(lib_a-itoa.o)
 .debug_frame   0x0000000000003f14       0x68 c:/program files/microchip/xc32/v2.50/bin/bin/../../lib/gcc/pic32c/6.2.1/../../../../pic32c/lib/v7e-m/fpv5/hard\libg_nano.a(lib_a-locale.o)
 .debug_frame   0x0000000000003f7c       0x30 c:/program files/microchip/xc32/v2.50/bin/bin/../../lib/gcc/pic32c/6.2.1/../../../../pic32c/lib/v7e-m/fpv5/hard\libg_nano.a(lib_a-malloc.o)
 .debug_frame   0x0000000000003fac       0x48 c:/program files/microchip/xc32/v2.50/bin/bin/../../lib/gcc/pic32c/6.2.1/../../../../pic32c/lib/v7e-m/fpv5/hard\libg_nano.a(lib_a-mbtowc_r.o)
 .debug_frame   0x0000000000003ff4       0x28 c:/program files/microchip/xc32/v2.50/bin/bin/../../lib/gcc/pic32c/6.2.1/../../../../pic32c/lib/v7e-m/fpv5/hard\libg_nano.a(lib_a-memcpy-stub.o)
 .debug_frame   0x000000000000401c       0x20 c:/program files/microchip/xc32/v2.50/bin/bin/../../lib/gcc/pic32c/6.2.1/../../../../pic32c/lib/v7e-m/fpv5/hard\libg_nano.a(lib_a-memset.o)
 .debug_frame   0x000000000000403c       0x2c c:/program files/microchip/xc32/v2.50/bin/bin/../../lib/gcc/pic32c/6.2.1/../../../../pic32c/lib/v7e-m/fpv5/hard\libg_nano.a(lib_a-nano-mallocr.o)
 .debug_frame   0x0000000000004068       0x2c c:/program files/microchip/xc32/v2.50/bin/bin/../../lib/gcc/pic32c/6.2.1/../../../../pic32c/lib/v7e-m/fpv5/hard\libg_nano.a(lib_a-sbrkr.o)
 .debug_frame   0x0000000000004094       0x20 c:/program files/microchip/xc32/v2.50/bin/bin/../../lib/gcc/pic32c/6.2.1/../../../../pic32c/lib/v7e-m/fpv5/hard\libg_nano.a(lib_a-strchr.o)
 .debug_frame   0x00000000000040b4       0x20 c:/program files/microchip/xc32/v2.50/bin/bin/../../lib/gcc/pic32c/6.2.1/../../../../pic32c/lib/v7e-m/fpv5/hard\libg_nano.a(lib_a-strcpy.o)
 .debug_frame   0x00000000000040d4       0x28 c:/program files/microchip/xc32/v2.50/bin/bin/../../lib/gcc/pic32c/6.2.1/../../../../pic32c/lib/v7e-m/fpv5/hard\libg_nano.a(lib_a-strncmp.o)
 .debug_frame   0x00000000000040fc       0x2c c:/program files/microchip/xc32/v2.50/bin/bin/../../lib/gcc/pic32c/6.2.1/../../../../pic32c/lib/v7e-m/fpv5/hard\libg_nano.a(lib_a-strncpy.o)
 .debug_frame   0x0000000000004128      0x128 c:/program files/microchip/xc32/v2.50/bin/bin/../../lib/gcc/pic32c/6.2.1/../../../../pic32c/lib/v7e-m/fpv5/hard\libg_nano.a(lib_a-strtod.o)
 .debug_frame   0x0000000000004250       0x88 c:/program files/microchip/xc32/v2.50/bin/bin/../../lib/gcc/pic32c/6.2.1/../../../../pic32c/lib/v7e-m/fpv5/hard\libg_nano.a(lib_a-strtol.o)
 .debug_frame   0x00000000000042d8       0x48 c:/program files/microchip/xc32/v2.50/bin/bin/../../lib/gcc/pic32c/6.2.1/../../../../pic32c/lib/v7e-m/fpv5/hard\libg_nano.a(lib_a-utoa.o)
 .debug_frame   0x0000000000004320       0x3c c:/program files/microchip/xc32/v2.50/bin/bin/../../lib/gcc/pic32c/6.2.1/../../../../pic32c/lib/v7e-m/fpv5/hard\libg_nano.a(lib_a-wctomb_r.o)
 .debug_frame   0x000000000000435c       0x70 c:/program files/microchip/xc32/v2.50/bin/bin/../../lib/gcc/pic32c/6.2.1/../../../../pic32c/lib/v7e-m/fpv5/hard\libg_nano.a(lib_a-gdtoa-gethex.o)
 .debug_frame   0x00000000000043cc       0x74 c:/program files/microchip/xc32/v2.50/bin/bin/../../lib/gcc/pic32c/6.2.1/../../../../pic32c/lib/v7e-m/fpv5/hard\libg_nano.a(lib_a-gdtoa-hexnan.o)
 .debug_frame   0x0000000000004440       0x40 c:/program files/microchip/xc32/v2.50/bin/bin/../../lib/gcc/pic32c/6.2.1/../../../../pic32c/lib/v7e-m/fpv5/hard\libg_nano.a(lib_a-localeconv.o)
 .debug_frame   0x0000000000004480       0x30 c:/program files/microchip/xc32/v2.50/bin/bin/../../lib/gcc/pic32c/6.2.1/../../../../pic32c/lib/v7e-m/fpv5/hard\libg_nano.a(lib_a-mlock.o)
 .debug_frame   0x00000000000044b0      0x230 c:/program files/microchip/xc32/v2.50/bin/bin/../../lib/gcc/pic32c/6.2.1/../../../../pic32c/lib/v7e-m/fpv5/hard\libg_nano.a(lib_a-mprec.o)
 .debug_frame   0x00000000000046e0       0x2c c:/program files/microchip/xc32/v2.50/bin/bin/../../lib/gcc/pic32c/6.2.1/../../../../pic32c/lib/v7e-m/fpv5/hard\libg_nano.a(lib_a-nano-callocr.o)
 .debug_frame   0x000000000000470c       0x5c c:/program files/microchip/xc32/v2.50/bin/bin/../../lib/gcc/pic32c/6.2.1/../../../../pic32c/lib/v7e-m/fpv5/hard\libg_nano.a(lib_a-reent.o)
 .debug_frame   0x0000000000004768       0x2c c:/program files/microchip/xc32/v2.50/bin/bin/../../lib/gcc/pic32c/6.2.1/../../../../pic32c/lib/v7e-m/fpv5/hard\libm_nano.a(lib_a-s_cos.o)
 .debug_frame   0x0000000000004794       0x2c c:/program files/microchip/xc32/v2.50/bin/bin/../../lib/gcc/pic32c/6.2.1/../../../../pic32c/lib/v7e-m/fpv5/hard\libm_nano.a(lib_a-s_sin.o)
 .debug_frame   0x00000000000047c0       0x20 c:/program files/microchip/xc32/v2.50/bin/bin/../../lib/gcc/pic32c/6.2.1/../../../../pic32c/lib/v7e-m/fpv5/hard\libm_nano.a(lib_a-w_atan2.o)
 .debug_frame   0x00000000000047e0       0x40 c:/program files/microchip/xc32/v2.50/bin/bin/../../lib/gcc/pic32c/6.2.1/../../../../pic32c/lib/v7e-m/fpv5/hard\libm_nano.a(lib_a-w_sqrt.o)
 .debug_frame   0x0000000000004820       0x3c c:/program files/microchip/xc32/v2.50/bin/bin/../../lib/gcc/pic32c/6.2.1/../../../../pic32c/lib/v7e-m/fpv5/hard\libm_nano.a(lib_a-e_atan2.o)
 .debug_frame   0x000000000000485c       0x38 c:/program files/microchip/xc32/v2.50/bin/bin/../../lib/gcc/pic32c/6.2.1/../../../../pic32c/lib/v7e-m/fpv5/hard\libm_nano.a(lib_a-e_rem_pio2.o)
 .debug_frame   0x0000000000004894       0x30 c:/program files/microchip/xc32/v2.50/bin/bin/../../lib/gcc/pic32c/6.2.1/../../../../pic32c/lib/v7e-m/fpv5/hard\libm_nano.a(lib_a-e_sqrt.o)
 .debug_frame   0x00000000000048c4       0x20 c:/program files/microchip/xc32/v2.50/bin/bin/../../lib/gcc/pic32c/6.2.1/../../../../pic32c/lib/v7e-m/fpv5/hard\libm_nano.a(lib_a-k_cos.o)
 .debug_frame   0x00000000000048e4       0x68 c:/program files/microchip/xc32/v2.50/bin/bin/../../lib/gcc/pic32c/6.2.1/../../../../pic32c/lib/v7e-m/fpv5/hard\libm_nano.a(lib_a-k_rem_pio2.o)
 .debug_frame   0x000000000000494c       0x20 c:/program files/microchip/xc32/v2.50/bin/bin/../../lib/gcc/pic32c/6.2.1/../../../../pic32c/lib/v7e-m/fpv5/hard\libm_nano.a(lib_a-k_sin.o)
 .debug_frame   0x000000000000496c       0x2c c:/program files/microchip/xc32/v2.50/bin/bin/../../lib/gcc/pic32c/6.2.1/../../../../pic32c/lib/v7e-m/fpv5/hard\libm_nano.a(lib_a-s_atan.o)
 .debug_frame   0x0000000000004998       0x20 c:/program files/microchip/xc32/v2.50/bin/bin/../../lib/gcc/pic32c/6.2.1/../../../../pic32c/lib/v7e-m/fpv5/hard\libm_nano.a(lib_a-s_fabs.o)
 .debug_frame   0x00000000000049b8       0x2c c:/program files/microchip/xc32/v2.50/bin/bin/../../lib/gcc/pic32c/6.2.1/../../../../pic32c/lib/v7e-m/fpv5/hard\libm_nano.a(lib_a-s_floor.o)
 .debug_frame   0x00000000000049e4       0x20 c:/program files/microchip/xc32/v2.50/bin/bin/../../lib/gcc/pic32c/6.2.1/../../../../pic32c/lib/v7e-m/fpv5/hard\libm_nano.a(lib_a-s_matherr.o)
 .debug_frame   0x0000000000004a04       0x40 c:/program files/microchip/xc32/v2.50/bin/bin/../../lib/gcc/pic32c/6.2.1/../../../../pic32c/lib/v7e-m/fpv5/hard\libm_nano.a(lib_a-s_scalbn.o)
 .debug_frame   0x0000000000004a44       0x20 c:/program files/microchip/xc32/v2.50/bin/bin/../../lib/gcc/pic32c/6.2.1/../../../../pic32c/lib/v7e-m/fpv5/hard\libm_nano.a(lib_a-s_copysign.o)
 .debug_frame   0x0000000000004a64       0x20 c:/program files/microchip/xc32/v2.50/bin/bin/../../lib/gcc/pic32c/6.2.1/../../../../pic32c/lib/v7e-m/fpv5/hard\libc_nano.a(lib_a-errno.o)
 .debug_frame   0x0000000000004a84       0x20 c:/program files/microchip/xc32/v2.50/bin/bin/../../lib/gcc/pic32c/6.2.1/../../../../pic32c/lib/v7e-m/fpv5/hard\libpic32c.a(sbrk.o)

.stack          0x000000002040c7e8      0x100
 .stack         0x000000002040c7e8      0x100 stack

.bss.ucHeap%1   0x000000002040088c     0xa000
 .bss.ucHeap    0x000000002040088c     0xa000 build/sam_e70_xult/debug/_ext/1665200909/heap_1.o

.bss.gSYSFSMediaBlockBuffer%2
                0x000000002040a8a0      0x800
 .bss.gSYSFSMediaBlockBuffer
                0x000000002040a8a0      0x800 build/sam_e70_xult/debug/_ext/1305476372/sys_fs_media_manager.o
                0x000000002040a8a0                gSYSFSMediaBlockBuffer

.bss.gDrvSDMMCObj%3
                0x000000002040b0a0      0x340
 .bss.gDrvSDMMCObj
                0x000000002040b0a0      0x340 build/sam_e70_xult/debug/_ext/1565510230/drv_sdmmc.o

.bss.FATFSFileObject%4
                0x000000002040b3e0      0x260
 .bss.FATFSFileObject
                0x000000002040b3e0      0x260 build/sam_e70_xult/debug/_ext/1305476372/sys_fs_fat_interface.o

.bss.FATFSVolume%5
                0x000000002040b640      0x260
 .bss.FATFSVolume
                0x000000002040b640      0x260 build/sam_e70_xult/debug/_ext/1305476372/sys_fs_fat_interface.o

.bss.gSysFsDiskData%6
                0x000000002040b8a0      0x220
 .bss.gSysFsDiskData
                0x000000002040b8a0      0x220 build/sam_e70_xult/debug/_ext/1893760823/diskio.o

.bss.LfnBuf%7   0x000000002040bac0      0x200
 .bss.LfnBuf    0x000000002040bac0      0x200 build/sam_e70_xult/debug/_ext/1043829778/ff.o

.data.__global_locale%8
                0x000000002040bcc0      0x16c
 .data.__global_locale
                0x000000002040bcc0      0x16c c:/program files/microchip/xc32/v2.50/bin/bin/../../lib/gcc/pic32c/6.2.1/../../../../pic32c/lib/v7e-m/fpv5/hard\libg_nano.a(lib_a-locale.o)
                0x000000002040bcc0                __global_locale

.bss.gDrvUSARTObj%9
                0x000000002040be2c      0x114
 .bss.gDrvUSARTObj
                0x000000002040be2c      0x114 build/sam_e70_xult/debug/_ext/716655881/drv_usart.o

.bss.timers%10  0x000000002040bf40       0xa0
 .bss.timers    0x000000002040bf40       0xa0 build/sam_e70_xult/debug/_ext/327803284/sys_time.o

.bss.decoded%11
                0x000000002040bfe0       0x7e
 .bss.decoded   0x000000002040bfe0       0x7e build/sam_e70_xult/debug/_ext/1360937237/app_communication.o
                0x000000002040bfe0                decoded

.bss.recbuffer%12
                0x000000002040c060       0x7e
 .bss.recbuffer
                0x000000002040c060       0x7e build/sam_e70_xult/debug/_ext/1360937237/app_communication.o
                0x000000002040c060                recbuffer

.bss.sendbuffer%13
                0x000000002040c0e0       0x7e
 .bss.sendbuffer
                0x000000002040c0e0       0x7e build/sam_e70_xult/debug/_ext/1360937237/app_communication.o
                0x000000002040c0e0                sendbuffer

.bss.pxReadyTasksLists%14
                0x000000002040c160       0x64
 .bss.pxReadyTasksLists
                0x000000002040c160       0x64 build/sam_e70_xult/debug/_ext/404212886/FreeRTOS_tasks.o

.bss.drvUSART1ClientObjPool%15
                0x000000002040c1c4       0x60
 .bss.drvUSART1ClientObjPool
                0x000000002040c1c4       0x60 build/sam_e70_xult/debug/_ext/1728594169/initialization.o

.data.impure_data%16
                0x000000002040c224       0x60
 .data.impure_data
                0x000000002040c224       0x60 c:/program files/microchip/xc32/v2.50/bin/bin/../../lib/gcc/pic32c/6.2.1/../../../../pic32c/lib/v7e-m/fpv5/hard\libg_nano.a(lib_a-impure.o)

.bss.drvSDMMC0BufferObjPool%17
                0x000000002040c284       0x48
 .bss.drvSDMMC0BufferObjPool
                0x000000002040c284       0x48 build/sam_e70_xult/debug/_ext/1728594169/initialization.o

.bss.gDrvI2CObj%18
                0x000000002040c2cc       0x38
 .bss.gDrvI2CObj
                0x000000002040c2cc       0x38 build/sam_e70_xult/debug/_ext/957281314/drv_i2c.o

.bss.FATFSDirObject%19
                0x000000002040c320       0x38
 .bss.FATFSDirObject
                0x000000002040c320       0x38 build/sam_e70_xult/debug/_ext/1305476372/sys_fs_fat_interface.o

.bss.gSystemCounterObj%20
                0x000000002040c358       0x38
 .bss.gSystemCounterObj
                0x000000002040c358       0x38 build/sam_e70_xult/debug/_ext/327803284/sys_time.o

.bss.twihs0Obj%21
                0x000000002040c390       0x28
 .bss.twihs0Obj
                0x000000002040c390       0x28 build/sam_e70_xult/debug/_ext/1539215101/plib_twihs0_master.o

.data.gps_not_ready%22
                0x000000002040c3b8       0x23
 .data.gps_not_ready
                0x000000002040c3b8       0x23 build/sam_e70_xult/debug/_ext/1360937237/app_course_algorithm.o
                0x000000002040c3b8                gps_not_ready

.bss.drvUSART0ClientObjPool%23
                0x000000002040c3dc       0x20
 .bss.drvUSART0ClientObjPool
                0x000000002040c3dc       0x20 build/sam_e70_xult/debug/_ext/1728594169/initialization.o

.bss%24         0x000000002040c304       0x1c
 .bss           0x000000002040c304       0x1c c:/program files/microchip/xc32/v2.50/bin/bin/../../lib/gcc/pic32c/6.2.1/v7e-m/fpv5/hard/crtbegin.o

.data.gps_ready%25
                0x000000002040c3fc       0x1b
 .data.gps_ready
                0x000000002040c3fc       0x1b build/sam_e70_xult/debug/_ext/1360937237/app_course_algorithm.o
                0x000000002040c3fc                gps_ready

.data.gSYSFSMediaManagerObj%26
                0x000000002040c418       0x18
 .data.gSYSFSMediaManagerObj
                0x000000002040c418       0x18 build/sam_e70_xult/debug/_ext/1305476372/sys_fs_media_manager.o
                0x000000002040c418                gSYSFSMediaManagerObj

.bss.hsmciObj%27
                0x000000002040a88c       0x14
 .bss.hsmciObj  0x000000002040a88c       0x14 build/sam_e70_xult/debug/_ext/719181653/plib_hsmci.o

.data.gSYSFSVolumeName%28
                0x000000002040c430       0x14
 .data.gSYSFSVolumeName
                0x000000002040c430       0x14 build/sam_e70_xult/debug/_ext/1305476372/sys_fs_media_manager.o
                0x000000002040c430                gSYSFSVolumeName

.bss.xDelayedTaskList1%29
                0x000000002040c444       0x14
 .bss.xDelayedTaskList1
                0x000000002040c444       0x14 build/sam_e70_xult/debug/_ext/404212886/FreeRTOS_tasks.o

.bss.xDelayedTaskList2%30
                0x000000002040c458       0x14
 .bss.xDelayedTaskList2
                0x000000002040c458       0x14 build/sam_e70_xult/debug/_ext/404212886/FreeRTOS_tasks.o

.bss.xPendingReadyList%31
                0x000000002040c46c       0x14
 .bss.xPendingReadyList
                0x000000002040c46c       0x14 build/sam_e70_xult/debug/_ext/404212886/FreeRTOS_tasks.o

.bss.xSuspendedTaskList%32
                0x000000002040c480       0x14
 .bss.xSuspendedTaskList
                0x000000002040c480       0x14 build/sam_e70_xult/debug/_ext/404212886/FreeRTOS_tasks.o

.bss.xTasksWaitingTermination%33
                0x000000002040c494       0x14
 .bss.xTasksWaitingTermination
                0x000000002040c494       0x14 build/sam_e70_xult/debug/_ext/404212886/FreeRTOS_tasks.o

.data.signal_confirmed%34
                0x000000002040c4a8       0x12
 .data.signal_confirmed
                0x000000002040c4a8       0x12 build/sam_e70_xult/debug/_ext/1360937237/app_communication.o
                0x000000002040c4a8                signal_confirmed

.bss.Files%35   0x000000002040c4bc       0x10
 .bss.Files     0x000000002040c4bc       0x10 build/sam_e70_xult/debug/_ext/1043829778/ff.o

.bss.drvI2C0ClientObjPool%36
                0x000000002040c4cc       0x10
 .bss.drvI2C0ClientObjPool
                0x000000002040c4cc       0x10 build/sam_e70_xult/debug/_ext/1728594169/initialization.o

.bss.drvSDMMC0ClientObjPool%37
                0x000000002040c4dc       0x10
 .bss.drvSDMMC0ClientObjPool
                0x000000002040c4dc       0x10 build/sam_e70_xult/debug/_ext/1728594169/initialization.o

.bss.drvUSART2ClientObjPool%38
                0x000000002040c4ec       0x10
 .bss.drvUSART2ClientObjPool
                0x000000002040c4ec       0x10 build/sam_e70_xult/debug/_ext/1728594169/initialization.o

.data.confirmed%39
                0x000000002040c4fc        0xb
 .data.confirmed
                0x000000002040c4fc        0xb build/sam_e70_xult/debug/_ext/1360937237/app_communication.o
                0x000000002040c4fc                confirmed

.data.portNumCb%40
                0x000000002040c508        0x6
 .data.portNumCb
                0x000000002040c508        0x6 build/sam_e70_xult/debug/_ext/1055488423/plib_pio.o
                0x000000002040c508                portNumCb

.bss.FatFs%41   0x000000002040c510        0x4
 .bss.FatFs     0x000000002040c510        0x4 build/sam_e70_xult/debug/_ext/1043829778/ff.o

.bss.cmd.7658%42
                0x000000002040c514        0x4
 .bss.cmd.7658  0x000000002040c514        0x4 build/sam_e70_xult/debug/_ext/1728594169/startup_xc32.o

.data.uxCriticalNesting%43
                0x000000002040c518        0x4
 .data.uxCriticalNesting
                0x000000002040c518        0x4 build/sam_e70_xult/debug/_ext/977623654/port.o

.bss.pucAlignedHeap.6288%44
                0x000000002040c51c        0x4
 .bss.pucAlignedHeap.6288
                0x000000002040c51c        0x4 build/sam_e70_xult/debug/_ext/1665200909/heap_1.o

.bss.xNextFreeByte%45
                0x000000002040c520        0x4
 .bss.xNextFreeByte
                0x000000002040c520        0x4 build/sam_e70_xult/debug/_ext/1665200909/heap_1.o

.bss.pxCurrentTCB%46
                0x000000002040c524        0x4
 .bss.pxCurrentTCB
                0x000000002040c524        0x4 build/sam_e70_xult/debug/_ext/404212886/FreeRTOS_tasks.o
                0x000000002040c524                pxCurrentTCB

.bss.pxDelayedTaskList%47
                0x000000002040c528        0x4
 .bss.pxDelayedTaskList
                0x000000002040c528        0x4 build/sam_e70_xult/debug/_ext/404212886/FreeRTOS_tasks.o

.bss.pxOverflowDelayedTaskList%48
                0x000000002040c52c        0x4
 .bss.pxOverflowDelayedTaskList
                0x000000002040c52c        0x4 build/sam_e70_xult/debug/_ext/404212886/FreeRTOS_tasks.o

.bss.uxCurrentNumberOfTasks%49
                0x000000002040c530        0x4
 .bss.uxCurrentNumberOfTasks
                0x000000002040c530        0x4 build/sam_e70_xult/debug/_ext/404212886/FreeRTOS_tasks.o

.bss.uxDeletedTasksWaitingCleanUp%50
                0x000000002040c534        0x4
 .bss.uxDeletedTasksWaitingCleanUp
                0x000000002040c534        0x4 build/sam_e70_xult/debug/_ext/404212886/FreeRTOS_tasks.o

.bss.uxSchedulerSuspended%51
                0x000000002040c538        0x4
 .bss.uxSchedulerSuspended
                0x000000002040c538        0x4 build/sam_e70_xult/debug/_ext/404212886/FreeRTOS_tasks.o

.bss.uxTaskNumber%52
                0x000000002040c53c        0x4
 .bss.uxTaskNumber
                0x000000002040c53c        0x4 build/sam_e70_xult/debug/_ext/404212886/FreeRTOS_tasks.o

.bss.uxTopReadyPriority%53
                0x000000002040c540        0x4
 .bss.uxTopReadyPriority
                0x000000002040c540        0x4 build/sam_e70_xult/debug/_ext/404212886/FreeRTOS_tasks.o

.bss.xIdleTaskHandle%54
                0x000000002040c544        0x4
 .bss.xIdleTaskHandle
                0x000000002040c544        0x4 build/sam_e70_xult/debug/_ext/404212886/FreeRTOS_tasks.o

.bss.xNextTaskUnblockTime%55
                0x000000002040c548        0x4
 .bss.xNextTaskUnblockTime
                0x000000002040c548        0x4 build/sam_e70_xult/debug/_ext/404212886/FreeRTOS_tasks.o

.bss.xNumOfOverflows%56
                0x000000002040c54c        0x4
 .bss.xNumOfOverflows
                0x000000002040c54c        0x4 build/sam_e70_xult/debug/_ext/404212886/FreeRTOS_tasks.o

.bss.xPendedTicks%57
                0x000000002040c550        0x4
 .bss.xPendedTicks
                0x000000002040c550        0x4 build/sam_e70_xult/debug/_ext/404212886/FreeRTOS_tasks.o

.bss.xSchedulerRunning%58
                0x000000002040c554        0x4
 .bss.xSchedulerRunning
                0x000000002040c554        0x4 build/sam_e70_xult/debug/_ext/404212886/FreeRTOS_tasks.o

.bss.xTickCount%59
                0x000000002040c558        0x4
 .bss.xTickCount
                0x000000002040c558        0x4 build/sam_e70_xult/debug/_ext/404212886/FreeRTOS_tasks.o

.bss.xYieldPending%60
                0x000000002040c55c        0x4
 .bss.xYieldPending
                0x000000002040c55c        0x4 build/sam_e70_xult/debug/_ext/404212886/FreeRTOS_tasks.o

.bss.delay%61   0x000000002040c560        0x4
 .bss.delay     0x000000002040c560        0x4 build/sam_e70_xult/debug/_ext/1360937237/app_communication.o
                0x000000002040c560                delay

.bss.message_size%62
                0x000000002040c564        0x4
 .bss.message_size
                0x000000002040c564        0x4 build/sam_e70_xult/debug/_ext/1360937237/app_communication.o
                0x000000002040c564                message_size

.bss.num_times_confimred_receive%63
                0x000000002040c568        0x4
 .bss.num_times_confimred_receive
                0x000000002040c568        0x4 build/sam_e70_xult/debug/_ext/1360937237/app_communication.o
                0x000000002040c568                num_times_confimred_receive

.bss.size%64    0x000000002040c56c        0x4
 .bss.size      0x000000002040c56c        0x4 build/sam_e70_xult/debug/_ext/1360937237/app_communication.o
                0x000000002040c56c                size

.data.retry_num%65
                0x000000002040c570        0x4
 .data.retry_num
                0x000000002040c570        0x4 build/sam_e70_xult/debug/_ext/1360937237/app_communication.o
                0x000000002040c570                retry_num

.bss.desired_mast_angle%66
                0x000000002040c574        0x4
 .bss.desired_mast_angle
                0x000000002040c574        0x4 build/sam_e70_xult/debug/_ext/1360937237/app_mast_control.o
                0x000000002040c574                desired_mast_angle

.bss.duty%67    0x000000002040c578        0x4
 .bss.duty      0x000000002040c578        0x4 build/sam_e70_xult/debug/_ext/1360937237/app_mast_control.o
                0x000000002040c578                duty

.bss.error%68   0x000000002040c57c        0x4
 .bss.error     0x000000002040c57c        0x4 build/sam_e70_xult/debug/_ext/1360937237/app_mast_control.o
                0x000000002040c57c                error

.bss.mast_angle%69
                0x000000002040c580        0x4
 .bss.mast_angle
                0x000000002040c580        0x4 build/sam_e70_xult/debug/_ext/1360937237/app_mast_control.o
                0x000000002040c580                mast_angle

.data.allowed_error%70
                0x000000002040c584        0x4
 .data.allowed_error
                0x000000002040c584        0x4 build/sam_e70_xult/debug/_ext/1360937237/app_mast_control.o
                0x000000002040c584                allowed_error

.data.restrict_angle%71
                0x000000002040c588        0x4
 .data.restrict_angle
                0x000000002040c588        0x4 build/sam_e70_xult/debug/_ext/1360937237/app_mast_control.o
                0x000000002040c588                restrict_angle

.bss.mast_angle_to_wind%72
                0x000000002040c58c        0x4
 .bss.mast_angle_to_wind
                0x000000002040c58c        0x4 build/sam_e70_xult/debug/_ext/1360937237/app_course_algorithm.o
                0x000000002040c58c                mast_angle_to_wind

.bss.rudder_angle_to_wind%73
                0x000000002040c590        0x4
 .bss.rudder_angle_to_wind
                0x000000002040c590        0x4 build/sam_e70_xult/debug/_ext/1360937237/app_course_algorithm.o
                0x000000002040c590                rudder_angle_to_wind

.data.allowed_cruise_angle_error%74
                0x000000002040c594        0x4
 .data.allowed_cruise_angle_error
                0x000000002040c594        0x4 build/sam_e70_xult/debug/_ext/1360937237/app_course_algorithm.o
                0x000000002040c594                allowed_cruise_angle_error

.data.allowed_set_angle_error%75
                0x000000002040c598        0x4
 .data.allowed_set_angle_error
                0x000000002040c598        0x4 build/sam_e70_xult/debug/_ext/1360937237/app_course_algorithm.o
                0x000000002040c598                allowed_set_angle_error

.bss.desired_rudder_angle%76
                0x000000002040c59c        0x4
 .bss.desired_rudder_angle
                0x000000002040c59c        0x4 build/sam_e70_xult/debug/_ext/1360937237/app_rudder_control.o
                0x000000002040c59c                desired_rudder_angle

.bss.rudder_angle%77
                0x000000002040c5a0        0x4
 .bss.rudder_angle
                0x000000002040c5a0        0x4 build/sam_e70_xult/debug/_ext/1360937237/app_rudder_control.o
                0x000000002040c5a0                rudder_angle

.bss.rudder_error%78
                0x000000002040c5a4        0x4
 .bss.rudder_error
                0x000000002040c5a4        0x4 build/sam_e70_xult/debug/_ext/1360937237/app_rudder_control.o
                0x000000002040c5a4                rudder_error

.data.pwm_max%79
                0x000000002040c5a8        0x4
 .data.pwm_max  0x000000002040c5a8        0x4 build/sam_e70_xult/debug/_ext/1360937237/app_rudder_control.o
                0x000000002040c5a8                pwm_max

.data.pwm_min%80
                0x000000002040c5ac        0x4
 .data.pwm_min  0x000000002040c5ac        0x4 build/sam_e70_xult/debug/_ext/1360937237/app_rudder_control.o
                0x000000002040c5ac                pwm_min

.data.rudder_allowed_error%81
                0x000000002040c5b0        0x4
 .data.rudder_allowed_error
                0x000000002040c5b0        0x4 build/sam_e70_xult/debug/_ext/1360937237/app_rudder_control.o
                0x000000002040c5b0                rudder_allowed_error

.data.rudder_duty%82
                0x000000002040c5b4        0x4
 .data.rudder_duty
                0x000000002040c5b4        0x4 build/sam_e70_xult/debug/_ext/1360937237/app_rudder_control.o
                0x000000002040c5b4                rudder_duty

.bss.dir%83     0x000000002040c5b8        0x4
 .bss.dir       0x000000002040c5b8        0x4 build/sam_e70_xult/debug/_ext/1360937237/app_anemometer.o
                0x000000002040c5b8                dir

.bss.__malloc_free_list%84
                0x000000002040c5bc        0x4
 .bss.__malloc_free_list
                0x000000002040c5bc        0x4 c:/program files/microchip/xc32/v2.50/bin/bin/../../lib/gcc/pic32c/6.2.1/../../../../pic32c/lib/v7e-m/fpv5/hard\libg_nano.a(lib_a-nano-mallocr.o)
                0x000000002040c5bc                __malloc_free_list

.bss.__malloc_sbrk_start%85
                0x000000002040c5c0        0x4
 .bss.__malloc_sbrk_start
                0x000000002040c5c0        0x4 c:/program files/microchip/xc32/v2.50/bin/bin/../../lib/gcc/pic32c/6.2.1/../../../../pic32c/lib/v7e-m/fpv5/hard\libg_nano.a(lib_a-nano-mallocr.o)
                0x000000002040c5c0                __malloc_sbrk_start

.data._impure_ptr%86
                0x000000002040c5c4        0x4
 .data._impure_ptr
                0x000000002040c5c4        0x4 c:/program files/microchip/xc32/v2.50/bin/bin/../../lib/gcc/pic32c/6.2.1/../../../../pic32c/lib/v7e-m/fpv5/hard\libg_nano.a(lib_a-impure.o)
                0x000000002040c5c4                _impure_ptr

.bss%87         0x000000002040c5c8        0x4
 .bss           0x000000002040c5c8        0x4 c:/program files/microchip/xc32/v2.50/bin/bin/../../lib/gcc/pic32c/6.2.1/../../../../pic32c/lib/v7e-m/fpv5/hard\libpic32c.a(sbrk.o)

.bss.Fsid%88    0x000000002040c05e        0x2
 .bss.Fsid      0x000000002040c05e        0x2 build/sam_e70_xult/debug/_ext/1043829778/ff.o

.data.gSysTimeTokenCount%89
                0x000000002040c0de        0x2
 .data.gSysTimeTokenCount
                0x000000002040c0de        0x2 build/sam_e70_xult/debug/_ext/327803284/sys_time.o

.data.address%90
                0x000000002040c15e        0x2
 .data.address  0x000000002040c15e        0x2 build/sam_e70_xult/debug/_ext/1360937237/app_gps.o
                0x000000002040c15e                address

.data.cardAttached.9336%91
                0x000000002040c3db        0x1
 .data.cardAttached.9336
                0x000000002040c3db        0x1 build/sam_e70_xult/debug/_ext/1565510230/drv_sdmmc.o

.bss.CurrVol%92
                0x000000002040c417        0x1
 .bss.CurrVol   0x000000002040c417        0x1 build/sam_e70_xult/debug/_ext/1043829778/ff.o

.bss.startupflag%93
                0x000000002040c507        0x1
 .bss.startupflag
                0x000000002040c507        0x1 build/sam_e70_xult/debug/_ext/1305476372/sys_fs_fat_interface.o

.bss.sending%94
                0x000000002040c4ba        0x1
 .bss.sending   0x000000002040c4ba        0x1 build/sam_e70_xult/debug/_ext/1360937237/app_communication.o
                0x000000002040c4ba                sending

.bss.calibrate%95
                0x000000002040c4bb        0x1
 .bss.calibrate
                0x000000002040c4bb        0x1 build/sam_e70_xult/debug/_ext/1360937237/app_mast_control.o
                0x000000002040c4bb                calibrate

.bss.ontheleft%96
                0x000000002040c50e        0x1
 .bss.ontheleft
                0x000000002040c50e        0x1 build/sam_e70_xult/debug/_ext/1360937237/app_mast_control.o
                0x000000002040c50e                ontheleft

.bss.rudder_calibrated%97
                0x000000002040c50f        0x1
 .bss.rudder_calibrated
                0x000000002040c50f        0x1 build/sam_e70_xult/debug/_ext/1360937237/app_rudder_control.o
                0x000000002040c50f                rudder_calibrated

.data.jitter%98
                0x000000002040c5cc        0x1
 .data.jitter   0x000000002040c5cc        0x1 build/sam_e70_xult/debug/_ext/1360937237/app_rudder_control.o
                0x000000002040c5cc                jitter

.bss.appInitialized%99
                0x000000002040c5cd        0x1
 .bss.appInitialized
                0x000000002040c5cd        0x1 build/sam_e70_xult/debug/_ext/1360937237/app_imu.o
                0x000000002040c5cd                appInitialized

.data.__fdlib_version%100
                0x000000002040c5ce        0x1
 .data.__fdlib_version
                0x000000002040c5ce        0x1 c:/program files/microchip/xc32/v2.50/bin/bin/../../lib/gcc/pic32c/6.2.1/../../../../pic32c/lib/v7e-m/fpv5/hard\libm_nano.a(lib_a-s_lib_ver.o)
                0x000000002040c5ce                __fdlib_version

.eh_frame%z1    0x0000000000000000        0x0
 .eh_frame      0x0000000000000000        0x0 c:/program files/microchip/xc32/v2.50/bin/bin/../../lib/gcc/pic32c/6.2.1/v7e-m/fpv5/hard/crtbegin.o

.text.DRV_SDMMC_Tasks%101
                0x0000000000400190     0x19c4
 .text.DRV_SDMMC_Tasks
                0x0000000000400190     0x19c4 build/sam_e70_xult/debug/_ext/1565510230/drv_sdmmc.o
                0x0000000000400190                DRV_SDMMC_Tasks

.text._strtod_l%102
                0x0000000000401b58      0xbb0
 .text._strtod_l
                0x0000000000401b58      0xbb0 c:/program files/microchip/xc32/v2.50/bin/bin/../../lib/gcc/pic32c/6.2.1/../../../../pic32c/lib/v7e-m/fpv5/hard\libg_nano.a(lib_a-strtod.o)
                0x0000000000401b58                _strtod_l

.dinit%103      0x0000000000402708      0x840
 .dinit         0x0000000000402708      0x840 data_init

.text.f_mkfs%104
                0x0000000000402f48      0x748
 .text.f_mkfs   0x0000000000402f48      0x748 build/sam_e70_xult/debug/_ext/1043829778/ff.o
                0x0000000000402f48                f_mkfs

.text.__kernel_rem_pio2%105
                0x0000000000403690      0x4e8
 .text.__kernel_rem_pio2
                0x0000000000403690      0x4e8 c:/program files/microchip/xc32/v2.50/bin/bin/../../lib/gcc/pic32c/6.2.1/../../../../pic32c/lib/v7e-m/fpv5/hard\libm_nano.a(lib_a-k_rem_pio2.o)
                0x0000000000403690                __kernel_rem_pio2

.text.__gethex%106
                0x0000000000403b78      0x43c
 .text.__gethex
                0x0000000000403b78      0x43c c:/program files/microchip/xc32/v2.50/bin/bin/../../lib/gcc/pic32c/6.2.1/../../../../pic32c/lib/v7e-m/fpv5/hard\libg_nano.a(lib_a-gdtoa-gethex.o)
                0x0000000000403b78                __gethex

.text.SYS_FS_MEDIA_MANAGER_Tasks%107
                0x0000000000403fb4      0x3bc
 .text.SYS_FS_MEDIA_MANAGER_Tasks
                0x0000000000403fb4      0x3bc build/sam_e70_xult/debug/_ext/1305476372/sys_fs_media_manager.o
                0x0000000000403fb4                SYS_FS_MEDIA_MANAGER_Tasks

.text.follow_path%108
                0x0000000000404370      0x3a0
 .text.follow_path
                0x0000000000404370      0x3a0 build/sam_e70_xult/debug/_ext/1043829778/ff.o

.text.mount_volume%109
                0x0000000000404710      0x35c
 .text.mount_volume
                0x0000000000404710      0x35c build/sam_e70_xult/debug/_ext/1043829778/ff.o

.text.f_printf%110
                0x0000000000404a6c      0x2d0
 .text.f_printf
                0x0000000000404a6c      0x2d0 build/sam_e70_xult/debug/_ext/1043829778/ff.o
                0x0000000000404a6c                f_printf

.text%111       0x0000000000404d3c      0x2b8
 .text          0x0000000000404d3c      0x2b8 c:/program files/microchip/xc32/v2.50/bin/bin/../../lib/gcc/pic32c/6.2.1/v7e-m/fpv5/hard\libgcc.a(_udivmoddi4.o)
                0x0000000000404d3c                __udivmoddi4

.text.dir_register%112
                0x0000000000404ff4      0x2ac
 .text.dir_register
                0x0000000000404ff4      0x2ac build/sam_e70_xult/debug/_ext/1043829778/ff.o

.text.APP_COURSE_ALGORITHM_Tasks%113
                0x00000000004052a0      0x28c
 .text.APP_COURSE_ALGORITHM_Tasks
                0x00000000004052a0      0x28c build/sam_e70_xult/debug/_ext/1360937237/app_course_algorithm.o
                0x00000000004052a0                APP_COURSE_ALGORITHM_Tasks

.text.f_open%114
                0x000000000040552c      0x288
 .text.f_open   0x000000000040552c      0x288 build/sam_e70_xult/debug/_ext/1043829778/ff.o
                0x000000000040552c                f_open

.text.__ieee754_rem_pio2%115
                0x00000000004057b8      0x280
 .text.__ieee754_rem_pio2
                0x00000000004057b8      0x280 c:/program files/microchip/xc32/v2.50/bin/bin/../../lib/gcc/pic32c/6.2.1/../../../../pic32c/lib/v7e-m/fpv5/hard\libm_nano.a(lib_a-e_rem_pio2.o)
                0x00000000004057b8                __ieee754_rem_pio2

.rodata.cvt1.7846%116
                0x0000000000405a38      0x1f4
 .rodata.cvt1.7846
                0x0000000000405a38      0x1f4 build/sam_e70_xult/debug/_ext/1043829778/ffunicode.o

.text.APP_COMMUNICATION_Tasks%117
                0x0000000000405c2c      0x1f0
 .text.APP_COMMUNICATION_Tasks
                0x0000000000405c2c      0x1f0 build/sam_e70_xult/debug/_ext/1360937237/app_communication.o
                0x0000000000405c2c                APP_COMMUNICATION_Tasks

.text.atan%118  0x0000000000405e20      0x1ec
 .text.atan     0x0000000000405e20      0x1ec c:/program files/microchip/xc32/v2.50/bin/bin/../../lib/gcc/pic32c/6.2.1/../../../../pic32c/lib/v7e-m/fpv5/hard\libm_nano.a(lib_a-s_atan.o)
                0x0000000000405e20                atan

.text.xTaskCreate%119
                0x000000000040600c      0x1e8
 .text.xTaskCreate
                0x000000000040600c      0x1e8 build/sam_e70_xult/debug/_ext/404212886/FreeRTOS_tasks.o
                0x000000000040600c                xTaskCreate

.text.__ieee754_atan2%120
                0x00000000004061f8      0x1cc
 .text.__ieee754_atan2
                0x00000000004061f8      0x1cc c:/program files/microchip/xc32/v2.50/bin/bin/../../lib/gcc/pic32c/6.2.1/../../../../pic32c/lib/v7e-m/fpv5/hard\libm_nano.a(lib_a-e_atan2.o)
                0x00000000004061f8                __ieee754_atan2

.text.dir_find%121
                0x00000000004063c4      0x1b8
 .text.dir_find
                0x00000000004063c4      0x1b8 build/sam_e70_xult/debug/_ext/1043829778/ff.o

.text.f_write%122
                0x000000000040657c      0x1b0
 .text.f_write  0x000000000040657c      0x1b0 build/sam_e70_xult/debug/_ext/1043829778/ff.o
                0x000000000040657c                f_write

.text.Parse_IMU_Field%123
                0x0000000000406730      0x1a8
 .text.Parse_IMU_Field
                0x0000000000406730      0x1a8 build/sam_e70_xult/debug/_ext/1360937237/app_imu.o
                0x0000000000406730                Parse_IMU_Field

.text.f_setlabel%124
                0x00000000004068d8      0x19c
 .text.f_setlabel
                0x00000000004068d8      0x19c build/sam_e70_xult/debug/_ext/1043829778/ff.o
                0x00000000004068d8                f_setlabel

.text.SYS_FS_MEDIA_MANAGER_SectorWrite%125
                0x0000000000406a74      0x19c
 .text.SYS_FS_MEDIA_MANAGER_SectorWrite
                0x0000000000406a74      0x19c build/sam_e70_xult/debug/_ext/1305476372/sys_fs_media_manager.o
                0x0000000000406a74                SYS_FS_MEDIA_MANAGER_SectorWrite

.text.TWIHS0_InterruptHandler%126
                0x0000000000406c10      0x198
 .text.TWIHS0_InterruptHandler
                0x0000000000406c10      0x198 build/sam_e70_xult/debug/_ext/1539215101/plib_twihs0_master.o
                0x0000000000406c10                TWIHS0_InterruptHandler

.text.Reset_Handler%127
                0x0000000000406da8      0x184
 .text.Reset_Handler
                0x0000000000406da8      0x184 build/sam_e70_xult/debug/_ext/1728594169/startup_xc32.o
                0x0000000000406da8                Reset_Handler

.text.f_read%128
                0x0000000000406f2c      0x174
 .text.f_read   0x0000000000406f2c      0x174 build/sam_e70_xult/debug/_ext/1043829778/ff.o
                0x0000000000406f2c                f_read

.text.DRV_SDMMC_SetupXfer%129
                0x00000000004070a0      0x170
 .text.DRV_SDMMC_SetupXfer
                0x00000000004070a0      0x170 build/sam_e70_xult/debug/_ext/1565510230/drv_sdmmc.o
                0x00000000004070a0                DRV_SDMMC_SetupXfer

.text.f_lseek%130
                0x0000000000407210      0x170
 .text.f_lseek  0x0000000000407210      0x170 build/sam_e70_xult/debug/_ext/1043829778/ff.o
                0x0000000000407210                f_lseek

.text.create_partition%131
                0x0000000000407380      0x16c
 .text.create_partition
                0x0000000000407380      0x16c build/sam_e70_xult/debug/_ext/1043829778/ff.o

.text.DRV_USART_Initialize%132
                0x00000000004074ec      0x164
 .text.DRV_USART_Initialize
                0x00000000004074ec      0x164 build/sam_e70_xult/debug/_ext/716655881/drv_usart.o
                0x00000000004074ec                DRV_USART_Initialize

.text.get_fileinfo%133
                0x0000000000407650      0x164
 .text.get_fileinfo
                0x0000000000407650      0x164 build/sam_e70_xult/debug/_ext/1043829778/ff.o

.text.xQueueSemaphoreTake%134
                0x00000000004077b4      0x15c
 .text.xQueueSemaphoreTake
                0x00000000004077b4      0x15c build/sam_e70_xult/debug/_ext/404212886/queue.o
                0x00000000004077b4                xQueueSemaphoreTake

.text.PIO_Initialize%135
                0x0000000000407910      0x148
 .text.PIO_Initialize
                0x0000000000407910      0x148 build/sam_e70_xult/debug/_ext/1055488423/plib_pio.o
                0x0000000000407910                PIO_Initialize

.text.APP_RUDDER_CONTROL_Tasks%136
                0x0000000000407a58      0x144
 .text.APP_RUDDER_CONTROL_Tasks
                0x0000000000407a58      0x144 build/sam_e70_xult/debug/_ext/1360937237/app_rudder_control.o
                0x0000000000407a58                APP_RUDDER_CONTROL_Tasks

.text.DRV_USART_Open%137
                0x0000000000407b9c      0x140
 .text.DRV_USART_Open
                0x0000000000407b9c      0x140 build/sam_e70_xult/debug/_ext/716655881/drv_usart.o
                0x0000000000407b9c                DRV_USART_Open

.text.DRV_SDMMC_Initialize%138
                0x0000000000407cdc      0x13c
 .text.DRV_SDMMC_Initialize
                0x0000000000407cdc      0x13c build/sam_e70_xult/debug/_ext/1565510230/drv_sdmmc.o
                0x0000000000407cdc                DRV_SDMMC_Initialize

.text.dir_read%139
                0x0000000000407e18      0x13c
 .text.dir_read
                0x0000000000407e18      0x13c build/sam_e70_xult/debug/_ext/1043829778/ff.o

.text.__ieee754_sqrt%140
                0x0000000000407f54      0x13c
 .text.__ieee754_sqrt
                0x0000000000407f54      0x13c c:/program files/microchip/xc32/v2.50/bin/bin/../../lib/gcc/pic32c/6.2.1/../../../../pic32c/lib/v7e-m/fpv5/hard\libm_nano.a(lib_a-e_sqrt.o)
                0x0000000000407f54                __ieee754_sqrt

.text._DRV_SDMMC_CommandSend%141
                0x0000000000408090      0x138
 .text._DRV_SDMMC_CommandSend
                0x0000000000408090      0x138 build/sam_e70_xult/debug/_ext/1565510230/drv_sdmmc.o

.text.f_getcwd%142
                0x00000000004081c8      0x136
 .text.f_getcwd
                0x00000000004081c8      0x136 build/sam_e70_xult/debug/_ext/1043829778/ff.o
                0x00000000004081c8                f_getcwd

.text.USART1_InterruptHandler%143
                0x0000000000408300      0x12c
 .text.USART1_InterruptHandler
                0x0000000000408300      0x12c build/sam_e70_xult/debug/_ext/707186936/plib_usart1.o
                0x0000000000408300                USART1_InterruptHandler

.text.USART0_InterruptHandler%144
                0x000000000040842c      0x12c
 .text.USART0_InterruptHandler
                0x000000000040842c      0x12c build/sam_e70_xult/debug/_ext/707186936/plib_usart0.o
                0x000000000040842c                USART0_InterruptHandler

.text.USART2_InterruptHandler%145
                0x0000000000408558      0x12c
 .text.USART2_InterruptHandler
                0x0000000000408558      0x12c build/sam_e70_xult/debug/_ext/707186936/plib_usart2.o
                0x0000000000408558                USART2_InterruptHandler

.text.f_rename%146
                0x0000000000408684      0x12a
 .text.f_rename
                0x0000000000408684      0x12a build/sam_e70_xult/debug/_ext/1043829778/ff.o
                0x0000000000408684                f_rename

.text.xQueueGenericSend%147
                0x00000000004087b0      0x128
 .text.xQueueGenericSend
                0x00000000004087b0      0x128 build/sam_e70_xult/debug/_ext/404212886/queue.o
                0x00000000004087b0                xQueueGenericSend

.text._DRV_I2C_WriteReadTransfer%148
                0x00000000004088d8      0x126
 .text._DRV_I2C_WriteReadTransfer
                0x00000000004088d8      0x126 build/sam_e70_xult/debug/_ext/957281314/drv_i2c.o

.text.put_fat%149
                0x00000000004089fe      0x126
 .text.put_fat  0x00000000004089fe      0x126 build/sam_e70_xult/debug/_ext/1043829778/ff.o

.text.HSMCI_InterruptHandler%150
                0x0000000000408b24      0x120
 .text.HSMCI_InterruptHandler
                0x0000000000408b24      0x120 build/sam_e70_xult/debug/_ext/719181653/plib_hsmci.o
                0x0000000000408b24                HSMCI_InterruptHandler

.text.__hexnan%151
                0x0000000000408c44      0x120
 .text.__hexnan
                0x0000000000408c44      0x120 c:/program files/microchip/xc32/v2.50/bin/bin/../../lib/gcc/pic32c/6.2.1/../../../../pic32c/lib/v7e-m/fpv5/hard\libg_nano.a(lib_a-gdtoa-hexnan.o)
                0x0000000000408c44                __hexnan

.text.f_mkdir%152
                0x0000000000408d64      0x11a
 .text.f_mkdir  0x0000000000408d64      0x11a build/sam_e70_xult/debug/_ext/1043829778/ff.o
                0x0000000000408d64                f_mkdir

.text.__multiply%153
                0x0000000000408e7e      0x11a
 .text.__multiply
                0x0000000000408e7e      0x11a c:/program files/microchip/xc32/v2.50/bin/bin/../../lib/gcc/pic32c/6.2.1/../../../../pic32c/lib/v7e-m/fpv5/hard\libg_nano.a(lib_a-mprec.o)
                0x0000000000408e7e                __multiply

.text.SYS_Tasks%154
                0x0000000000408f98      0x118
 .text.SYS_Tasks
                0x0000000000408f98      0x118 build/sam_e70_xult/debug/_ext/1728594169/tasks.o
                0x0000000000408f98                SYS_Tasks

.text.xTaskIncrementTick%155
                0x00000000004090b0      0x118
 .text.xTaskIncrementTick
                0x00000000004090b0      0x118 build/sam_e70_xult/debug/_ext/404212886/FreeRTOS_tasks.o
                0x00000000004090b0                xTaskIncrementTick

.text.create_chain%156
                0x00000000004091c8      0x108
 .text.create_chain
                0x00000000004091c8      0x108 build/sam_e70_xult/debug/_ext/1043829778/ff.o

.rodata.two_over_pi%157
                0x00000000004092d0      0x108
 .rodata.two_over_pi
                0x00000000004092d0      0x108 c:/program files/microchip/xc32/v2.50/bin/bin/../../lib/gcc/pic32c/6.2.1/../../../../pic32c/lib/v7e-m/fpv5/hard\libm_nano.a(lib_a-e_rem_pio2.o)

.rodata._ctype_%158
                0x00000000004093d8      0x101
 .rodata._ctype_
                0x00000000004093d8      0x101 c:/program files/microchip/xc32/v2.50/bin/bin/../../lib/gcc/pic32c/6.2.1/../../../../pic32c/lib/v7e-m/fpv5/hard\libg_nano.a(lib_a-ctype_.o)
                0x00000000004093d8                _ctype_

.rodata.uc437%159
                0x00000000004094dc      0x100
 .rodata.uc437  0x00000000004094dc      0x100 build/sam_e70_xult/debug/_ext/1043829778/ffunicode.o

.text._strtol_l.isra.0%160
                0x00000000004095dc      0x100
 .text._strtol_l.isra.0
                0x00000000004095dc      0x100 c:/program files/microchip/xc32/v2.50/bin/bin/../../lib/gcc/pic32c/6.2.1/../../../../pic32c/lib/v7e-m/fpv5/hard\libg_nano.a(lib_a-strtol.o)

.text.disk_read%161
                0x00000000004096dc       0xfc
 .text.disk_read
                0x00000000004096dc       0xfc build/sam_e70_xult/debug/_ext/1893760823/diskio.o
                0x00000000004096dc                disk_read

.text.scalbn%162
                0x00000000004097d8       0xfc
 .text.scalbn   0x00000000004097d8       0xfc c:/program files/microchip/xc32/v2.50/bin/bin/../../lib/gcc/pic32c/6.2.1/../../../../pic32c/lib/v7e-m/fpv5/hard\libm_nano.a(lib_a-s_scalbn.o)
                0x00000000004097d8                scalbn

.text.DRV_I2C_Open%163
                0x00000000004098d4       0xf8
 .text.DRV_I2C_Open
                0x00000000004098d4       0xf8 build/sam_e70_xult/debug/_ext/957281314/drv_i2c.o
                0x00000000004098d4                DRV_I2C_Open

.text.disk_write%164
                0x00000000004099cc       0xf8
 .text.disk_write
                0x00000000004099cc       0xf8 build/sam_e70_xult/debug/_ext/1893760823/diskio.o
                0x00000000004099cc                disk_write

.text.DRV_SDMMC_Open%165
                0x0000000000409ac4       0xf4
 .text.DRV_SDMMC_Open
                0x0000000000409ac4       0xf4 build/sam_e70_xult/debug/_ext/1565510230/drv_sdmmc.o
                0x0000000000409ac4                DRV_SDMMC_Open

.text.HSMCI_CommandSend%166
                0x0000000000409bb8       0xf4
 .text.HSMCI_CommandSend
                0x0000000000409bb8       0xf4 build/sam_e70_xult/debug/_ext/719181653/plib_hsmci.o
                0x0000000000409bb8                HSMCI_CommandSend

.text.check_fs%167
                0x0000000000409cac       0xf4
 .text.check_fs
                0x0000000000409cac       0xf4 build/sam_e70_xult/debug/_ext/1043829778/ff.o

.text.APP_MAST_CONTROL_Tasks%168
                0x0000000000409da0       0xf0
 .text.APP_MAST_CONTROL_Tasks
                0x0000000000409da0       0xf0 build/sam_e70_xult/debug/_ext/1360937237/app_mast_control.o
                0x0000000000409da0                APP_MAST_CONTROL_Tasks

.text.floor%169
                0x0000000000409e90       0xf0
 .text.floor    0x0000000000409e90       0xf0 c:/program files/microchip/xc32/v2.50/bin/bin/../../lib/gcc/pic32c/6.2.1/../../../../pic32c/lib/v7e-m/fpv5/hard\libm_nano.a(lib_a-s_floor.o)
                0x0000000000409e90                floor

.text.xTaskResumeAll%170
                0x0000000000409f80       0xe8
 .text.xTaskResumeAll
                0x0000000000409f80       0xe8 build/sam_e70_xult/debug/_ext/404212886/FreeRTOS_tasks.o
                0x0000000000409f80                xTaskResumeAll

.text.distancetopt%171
                0x000000000040a068       0xe8
 .text.distancetopt
                0x000000000040a068       0xe8 build/sam_e70_xult/debug/_ext/1360937237/app_course_algorithm.o
                0x000000000040a068                distancetopt

.text.f_getfree%172
                0x000000000040a150       0xe0
 .text.f_getfree
                0x000000000040a150       0xe0 build/sam_e70_xult/debug/_ext/1043829778/ff.o
                0x000000000040a150                f_getfree

.text.dir_next%173
                0x000000000040a230       0xdc
 .text.dir_next
                0x000000000040a230       0xdc build/sam_e70_xult/debug/_ext/1043829778/ff.o

.text.f_unlink%174
                0x000000000040a30c       0xd8
 .text.f_unlink
                0x000000000040a30c       0xd8 build/sam_e70_xult/debug/_ext/1043829778/ff.o
                0x000000000040a30c                f_unlink

.text.__kernel_cos%175
                0x000000000040a3e8       0xd8
 .text.__kernel_cos
                0x000000000040a3e8       0xd8 c:/program files/microchip/xc32/v2.50/bin/bin/../../lib/gcc/pic32c/6.2.1/../../../../pic32c/lib/v7e-m/fpv5/hard\libm_nano.a(lib_a-k_cos.o)
                0x000000000040a3e8                __kernel_cos

.text.SYS_TIME_PLIBCallback%176
                0x000000000040a4c0       0xd4
 .text.SYS_TIME_PLIBCallback
                0x000000000040a4c0       0xd4 build/sam_e70_xult/debug/_ext/327803284/sys_time.o

.text.get_fat%177
                0x000000000040a594       0xd0
 .text.get_fat  0x000000000040a594       0xd0 build/sam_e70_xult/debug/_ext/1043829778/ff.o

.text.DRV_USART_WriteBuffer%178
                0x000000000040a664       0xcc
 .text.DRV_USART_WriteBuffer
                0x000000000040a664       0xcc build/sam_e70_xult/debug/_ext/716655881/drv_usart.o
                0x000000000040a664                DRV_USART_WriteBuffer

.text.DRV_USART_ReadBuffer%179
                0x000000000040a730       0xcc
 .text.DRV_USART_ReadBuffer
                0x000000000040a730       0xcc build/sam_e70_xult/debug/_ext/716655881/drv_usart.o
                0x000000000040a730                DRV_USART_ReadBuffer

.text.f_truncate%180
                0x000000000040a7fc       0xca
 .text.f_truncate
                0x000000000040a7fc       0xca build/sam_e70_xult/debug/_ext/1043829778/ff.o
                0x000000000040a7fc                f_truncate

.text.processGGA%181
                0x000000000040a8c6       0xca
 .text.processGGA
                0x000000000040a8c6       0xca build/sam_e70_xult/debug/_ext/1360937237/app_gps.o
                0x000000000040a8c6                processGGA

.text.ff_wtoupper%182
                0x000000000040a990       0xc8
 .text.ff_wtoupper
                0x000000000040a990       0xc8 build/sam_e70_xult/debug/_ext/1043829778/ffunicode.o
                0x000000000040a990                ff_wtoupper

.rodata.__mprec_tens%183
                0x000000000040aa58       0xc8
 .rodata.__mprec_tens
                0x000000000040aa58       0xc8 c:/program files/microchip/xc32/v2.50/bin/bin/../../lib/gcc/pic32c/6.2.1/../../../../pic32c/lib/v7e-m/fpv5/hard\libg_nano.a(lib_a-mprec.o)
                0x000000000040aa58                __mprec_tens

.text.SYS_Initialize%184
                0x000000000040ab20       0xc4
 .text.SYS_Initialize
                0x000000000040ab20       0xc4 build/sam_e70_xult/debug/_ext/1728594169/initialization.o
                0x000000000040ab20                SYS_Initialize

.rodata%185     0x000000000040abe4       0xc4
 .rodata        0x000000000040abe4       0xc4 build/sam_e70_xult/debug/_ext/1728594169/tasks.o

.text.GPS_Process%186
                0x000000000040aca8       0xc4
 .text.GPS_Process
                0x000000000040aca8       0xc4 build/sam_e70_xult/debug/_ext/1360937237/app_gps.o
                0x000000000040aca8                GPS_Process

.text.dir_sdi%187
                0x000000000040ad6c       0xbc
 .text.dir_sdi  0x000000000040ad6c       0xbc build/sam_e70_xult/debug/_ext/1043829778/ff.o

.rodata.cvt2.7847%188
                0x000000000040ae28       0xbc
 .rodata.cvt2.7847
                0x000000000040ae28       0xbc build/sam_e70_xult/debug/_ext/1043829778/ffunicode.o

.text._malloc_r%189
                0x000000000040aee4       0xbc
 .text._malloc_r
                0x000000000040aee4       0xbc c:/program files/microchip/xc32/v2.50/bin/bin/../../lib/gcc/pic32c/6.2.1/../../../../pic32c/lib/v7e-m/fpv5/hard\libg_nano.a(lib_a-nano-mallocr.o)
                0x000000000040aee4                _malloc_r

.text.__mdiff%190
                0x000000000040afa0       0xbc
 .text.__mdiff  0x000000000040afa0       0xbc c:/program files/microchip/xc32/v2.50/bin/bin/../../lib/gcc/pic32c/6.2.1/../../../../pic32c/lib/v7e-m/fpv5/hard\libg_nano.a(lib_a-mprec.o)
                0x000000000040afa0                __mdiff

.text.angletopt%191
                0x000000000040b060       0xb8
 .text.angletopt
                0x000000000040b060       0xb8 build/sam_e70_xult/debug/_ext/1360937237/app_course_algorithm.o
                0x000000000040b060                angletopt

.text.processRMC%192
                0x000000000040b118       0xb6
 .text.processRMC
                0x000000000040b118       0xb6 build/sam_e70_xult/debug/_ext/1360937237/app_gps.o
                0x000000000040b118                processRMC

.text.SYS_TIME_Initialize%193
                0x000000000040b1d0       0xb0
 .text.SYS_TIME_Initialize
                0x000000000040b1d0       0xb0 build/sam_e70_xult/debug/_ext/327803284/sys_time.o
                0x000000000040b1d0                SYS_TIME_Initialize

.text.__kernel_sin%194
                0x000000000040b280       0xb0
 .text.__kernel_sin
                0x000000000040b280       0xb0 c:/program files/microchip/xc32/v2.50/bin/bin/../../lib/gcc/pic32c/6.2.1/../../../../pic32c/lib/v7e-m/fpv5/hard\libm_nano.a(lib_a-k_sin.o)
                0x000000000040b280                __kernel_sin

.text.SYS_TIME_TimerObjectCreate%195
                0x000000000040b330       0xac
 .text.SYS_TIME_TimerObjectCreate
                0x000000000040b330       0xac build/sam_e70_xult/debug/_ext/327803284/sys_time.o

.text.vTaskSwitchContext%196
                0x000000000040b3dc       0xac
 .text.vTaskSwitchContext
                0x000000000040b3dc       0xac build/sam_e70_xult/debug/_ext/404212886/FreeRTOS_tasks.o
                0x000000000040b3dc                vTaskSwitchContext

.text.SYS_TIME_HwTimerCompareUpdate%197
                0x000000000040b488       0xa8
 .text.SYS_TIME_HwTimerCompareUpdate
                0x000000000040b488       0xa8 build/sam_e70_xult/debug/_ext/327803284/sys_time.o

.text.xTaskPriorityInherit%198
                0x000000000040b530       0xa8
 .text.xTaskPriorityInherit
                0x000000000040b530       0xa8 build/sam_e70_xult/debug/_ext/404212886/FreeRTOS_tasks.o
                0x000000000040b530                xTaskPriorityInherit

.text.TWIHS0_InitiateTransfer%199
                0x000000000040b5d8       0xa4
 .text.TWIHS0_InitiateTransfer
                0x000000000040b5d8       0xa4 build/sam_e70_xult/debug/_ext/1539215101/plib_twihs0_master.o

.text.f_getlabel%200
                0x000000000040b67c       0xa2
 .text.f_getlabel
                0x000000000040b67c       0xa2 build/sam_e70_xult/debug/_ext/1043829778/ff.o
                0x000000000040b67c                f_getlabel

.text.__lshift%201
                0x000000000040b71e       0xa2
 .text.__lshift
                0x000000000040b71e       0xa2 c:/program files/microchip/xc32/v2.50/bin/bin/../../lib/gcc/pic32c/6.2.1/../../../../pic32c/lib/v7e-m/fpv5/hard\libg_nano.a(lib_a-mprec.o)
                0x000000000040b71e                __lshift

.text.DRV_SDMMC_Close%202
                0x000000000040b7c0       0xa0
 .text.DRV_SDMMC_Close
                0x000000000040b7c0       0xa0 build/sam_e70_xult/debug/_ext/1565510230/drv_sdmmc.o
                0x000000000040b7c0                DRV_SDMMC_Close

.text.SYS_TIME_AddToList%203
                0x000000000040b860       0xa0
 .text.SYS_TIME_AddToList
                0x000000000040b860       0xa0 build/sam_e70_xult/debug/_ext/327803284/sys_time.o

.text.APP_ANEMOMETER_Tasks%204
                0x000000000040b900       0xa0
 .text.APP_ANEMOMETER_Tasks
                0x000000000040b900       0xa0 build/sam_e70_xult/debug/_ext/1360937237/app_anemometer.o
                0x000000000040b900                APP_ANEMOMETER_Tasks

.text.__d2b%205
                0x000000000040b9a0       0x9e
 .text.__d2b    0x000000000040b9a0       0x9e c:/program files/microchip/xc32/v2.50/bin/bin/../../lib/gcc/pic32c/6.2.1/../../../../pic32c/lib/v7e-m/fpv5/hard\libg_nano.a(lib_a-mprec.o)
                0x000000000040b9a0                __d2b

.text.f_sync%206
                0x000000000040ba3e       0x9c
 .text.f_sync   0x000000000040ba3e       0x9c build/sam_e70_xult/debug/_ext/1043829778/ff.o
                0x000000000040ba3e                f_sync

.text.__pow5mult%207
                0x000000000040badc       0x9c
 .text.__pow5mult
                0x000000000040badc       0x9c c:/program files/microchip/xc32/v2.50/bin/bin/../../lib/gcc/pic32c/6.2.1/../../../../pic32c/lib/v7e-m/fpv5/hard\libg_nano.a(lib_a-mprec.o)
                0x000000000040badc                __pow5mult

.text.__b2d%208
                0x000000000040bb78       0x9c
 .text.__b2d    0x000000000040bb78       0x9c c:/program files/microchip/xc32/v2.50/bin/bin/../../lib/gcc/pic32c/6.2.1/../../../../pic32c/lib/v7e-m/fpv5/hard\libg_nano.a(lib_a-mprec.o)
                0x000000000040bb78                __b2d

.text.NVIC_Initialize%209
                0x000000000040bc14       0x98
 .text.NVIC_Initialize
                0x000000000040bc14       0x98 build/sam_e70_xult/debug/_ext/1639550079/plib_nvic.o
                0x000000000040bc14                NVIC_Initialize

.text.FATFS_unmount%210
                0x000000000040bcac       0x98
 .text.FATFS_unmount
                0x000000000040bcac       0x98 build/sam_e70_xult/debug/_ext/1305476372/sys_fs_fat_interface.o
                0x000000000040bcac                FATFS_unmount

.text.sqrt%211  0x000000000040bd48       0x98
 .text.sqrt     0x000000000040bd48       0x98 c:/program files/microchip/xc32/v2.50/bin/bin/../../lib/gcc/pic32c/6.2.1/../../../../pic32c/lib/v7e-m/fpv5/hard\libm_nano.a(lib_a-w_sqrt.o)
                0x000000000040bd48                sqrt

.text.f_opendir%212
                0x000000000040bde0       0x96
 .text.f_opendir
                0x000000000040bde0       0x96 build/sam_e70_xult/debug/_ext/1043829778/ff.o
                0x000000000040bde0                f_opendir

.text.DRV_I2C_Initialize%213
                0x000000000040be78       0x94
 .text.DRV_I2C_Initialize
                0x000000000040be78       0x94 build/sam_e70_xult/debug/_ext/957281314/drv_i2c.o
                0x000000000040be78                DRV_I2C_Initialize

.text.prvAddCurrentTaskToDelayedList%214
                0x000000000040bf0c       0x94
 .text.prvAddCurrentTaskToDelayedList
                0x000000000040bf0c       0x94 build/sam_e70_xult/debug/_ext/404212886/FreeRTOS_tasks.o

.text.sync_fs%215
                0x000000000040bfa0       0x8c
 .text.sync_fs  0x000000000040bfa0       0x8c build/sam_e70_xult/debug/_ext/1043829778/ff.o

.text.remove_chain%216
                0x000000000040c02c       0x8a
 .text.remove_chain
                0x000000000040c02c       0x8a build/sam_e70_xult/debug/_ext/1043829778/ff.o

.rodata.FatFsFunctions%217
                0x000000000040c0b8       0x88
 .rodata.FatFsFunctions
                0x000000000040c0b8       0x88 build/sam_e70_xult/debug/_ext/1728594169/initialization.o
                0x000000000040c0b8                FatFsFunctions

.text.HSMCI_ResponseRead%218
                0x000000000040c140       0x80
 .text.HSMCI_ResponseRead
                0x000000000040c140       0x80 build/sam_e70_xult/debug/_ext/719181653/plib_hsmci.o
                0x000000000040c140                HSMCI_ResponseRead

.text.TWIHS0_TransferSetup%219
                0x000000000040c1c0       0x80
 .text.TWIHS0_TransferSetup
                0x000000000040c1c0       0x80 build/sam_e70_xult/debug/_ext/1539215101/plib_twihs0_master.o
                0x000000000040c1c0                TWIHS0_TransferSetup

.text.USART1_SerialSetup%220
                0x000000000040c240       0x80
 .text.USART1_SerialSetup
                0x000000000040c240       0x80 build/sam_e70_xult/debug/_ext/707186936/plib_usart1.o
                0x000000000040c240                USART1_SerialSetup

.text.USART0_SerialSetup%221
                0x000000000040c2c0       0x80
 .text.USART0_SerialSetup
                0x000000000040c2c0       0x80 build/sam_e70_xult/debug/_ext/707186936/plib_usart0.o
                0x000000000040c2c0                USART0_SerialSetup

.text.USART2_SerialSetup%222
                0x000000000040c340       0x80
 .text.USART2_SerialSetup
                0x000000000040c340       0x80 build/sam_e70_xult/debug/_ext/707186936/plib_usart2.o
                0x000000000040c340                USART2_SerialSetup

.rodata.ExCvt%223
                0x000000000040c3c0       0x80
 .rodata.ExCvt  0x000000000040c3c0       0x80 build/sam_e70_xult/debug/_ext/1043829778/ff.o

.text.FATFS_mount%224
                0x000000000040c440       0x80
 .text.FATFS_mount
                0x000000000040c440       0x80 build/sam_e70_xult/debug/_ext/1305476372/sys_fs_fat_interface.o
                0x000000000040c440                FATFS_mount

.text.vTaskPriorityDisinheritAfterTimeout%225
                0x000000000040c4c0       0x80
 .text.vTaskPriorityDisinheritAfterTimeout
                0x000000000040c4c0       0x80 build/sam_e70_xult/debug/_ext/404212886/FreeRTOS_tasks.o
                0x000000000040c4c0                vTaskPriorityDisinheritAfterTimeout

.text.__pic32c_data_initialization%226
                0x000000000040c540       0x80
 .text.__pic32c_data_initialization
                0x000000000040c540       0x80 c:/program files/microchip/xc32/v2.50/bin/bin/../../lib/gcc/pic32c/6.2.1/../../../../pic32c/lib/v7e-m/fpv5/hard\libpic32c.a(data_init.o)
                0x000000000040c540                __pic32c_data_initialization

.rodata.npio2_hw%227
                0x000000000040c5c0       0x80
 .rodata.npio2_hw
                0x000000000040c5c0       0x80 c:/program files/microchip/xc32/v2.50/bin/bin/../../lib/gcc/pic32c/6.2.1/../../../../pic32c/lib/v7e-m/fpv5/hard\libm_nano.a(lib_a-e_rem_pio2.o)

.text.prvUnlockQueue%228
                0x000000000040c640       0x7e
 .text.prvUnlockQueue
                0x000000000040c640       0x7e build/sam_e70_xult/debug/_ext/404212886/queue.o

.text.xTaskPriorityDisinherit%229
                0x000000000040c6c0       0x7c
 .text.xTaskPriorityDisinherit
                0x000000000040c6c0       0x7c build/sam_e70_xult/debug/_ext/404212886/FreeRTOS_tasks.o
                0x000000000040c6c0                xTaskPriorityDisinherit

.text.__s2b%230
                0x000000000040c73c       0x7c
 .text.__s2b    0x000000000040c73c       0x7c c:/program files/microchip/xc32/v2.50/bin/bin/../../lib/gcc/pic32c/6.2.1/../../../../pic32c/lib/v7e-m/fpv5/hard\libg_nano.a(lib_a-mprec.o)
                0x000000000040c73c                __s2b

.text.xTaskRemoveFromEventList%231
                0x000000000040c7b8       0x78
 .text.xTaskRemoveFromEventList
                0x000000000040c7b8       0x78 build/sam_e70_xult/debug/_ext/404212886/FreeRTOS_tasks.o
                0x000000000040c7b8                xTaskRemoveFromEventList

.text.parseDegreeMinute%232
                0x000000000040c830       0x78
 .text.parseDegreeMinute
                0x000000000040c830       0x78 build/sam_e70_xult/debug/_ext/1360937237/app_gps.o
                0x000000000040c830                parseDegreeMinute

.text.APP_IMU_Tasks%233
                0x000000000040c8a8       0x78
 .text.APP_IMU_Tasks
                0x000000000040c8a8       0x78 build/sam_e70_xult/debug/_ext/1360937237/app_imu.o
                0x000000000040c8a8                APP_IMU_Tasks

.text.cos%234   0x000000000040c920       0x78
 .text.cos      0x000000000040c920       0x78 c:/program files/microchip/xc32/v2.50/bin/bin/../../lib/gcc/pic32c/6.2.1/../../../../pic32c/lib/v7e-m/fpv5/hard\libm_nano.a(lib_a-s_cos.o)
                0x000000000040c920                cos

.text.sin%235   0x000000000040c998       0x78
 .text.sin      0x000000000040c998       0x78 c:/program files/microchip/xc32/v2.50/bin/bin/../../lib/gcc/pic32c/6.2.1/../../../../pic32c/lib/v7e-m/fpv5/hard\libm_nano.a(lib_a-s_sin.o)
                0x000000000040c998                sin

.text.__multadd%236
                0x000000000040ca10       0x76
 .text.__multadd
                0x000000000040ca10       0x76 c:/program files/microchip/xc32/v2.50/bin/bin/../../lib/gcc/pic32c/6.2.1/../../../../pic32c/lib/v7e-m/fpv5/hard\libg_nano.a(lib_a-mprec.o)
                0x000000000040ca10                __multadd

.text.inc_lock%237
                0x000000000040ca88       0x74
 .text.inc_lock
                0x000000000040ca88       0x74 build/sam_e70_xult/debug/_ext/1043829778/ff.o

.text.prvCopyDataToQueue%238
                0x000000000040cafc       0x72
 .text.prvCopyDataToQueue
                0x000000000040cafc       0x72 build/sam_e70_xult/debug/_ext/404212886/queue.o

.text.USART1_Write%239
                0x000000000040cb70       0x70
 .text.USART1_Write
                0x000000000040cb70       0x70 build/sam_e70_xult/debug/_ext/707186936/plib_usart1.o
                0x000000000040cb70                USART1_Write

.text.USART0_Write%240
                0x000000000040cbe0       0x70
 .text.USART0_Write
                0x000000000040cbe0       0x70 build/sam_e70_xult/debug/_ext/707186936/plib_usart0.o
                0x000000000040cbe0                USART0_Write

.text.USART2_Write%241
                0x000000000040cc50       0x70
 .text.USART2_Write
                0x000000000040cc50       0x70 build/sam_e70_xult/debug/_ext/707186936/plib_usart2.o
                0x000000000040cc50                USART2_Write

.text.SYS_FS_Initialize%242
                0x000000000040ccc0       0x70
 .text.SYS_FS_Initialize
                0x000000000040ccc0       0x70 build/sam_e70_xult/debug/_ext/1305476372/sys_fs.o
                0x000000000040ccc0                SYS_FS_Initialize

.text.xQueueGenericReset%243
                0x000000000040cd30       0x70
 .text.xQueueGenericReset
                0x000000000040cd30       0x70 build/sam_e70_xult/debug/_ext/404212886/queue.o
                0x000000000040cd30                xQueueGenericReset

.text.prvIdleTask%244
                0x000000000040cda0       0x70
 .text.prvIdleTask
                0x000000000040cda0       0x70 build/sam_e70_xult/debug/_ext/404212886/FreeRTOS_tasks.o

.text.APP_RUDDER_CONTROL_Initialize%245
                0x000000000040ce10       0x70
 .text.APP_RUDDER_CONTROL_Initialize
                0x000000000040ce10       0x70 build/sam_e70_xult/debug/_ext/1360937237/app_rudder_control.o
                0x000000000040ce10                APP_RUDDER_CONTROL_Initialize

.text.CLOCK_Initialize%246
                0x000000000040ce80       0x6c
 .text.CLOCK_Initialize
                0x000000000040ce80       0x6c build/sam_e70_xult/debug/_ext/1055500827/plib_clk.o
                0x000000000040ce80                CLOCK_Initialize

.text.__utoa%247
                0x000000000040ceec       0x6c
 .text.__utoa   0x000000000040ceec       0x6c c:/program files/microchip/xc32/v2.50/bin/bin/../../lib/gcc/pic32c/6.2.1/../../../../pic32c/lib/v7e-m/fpv5/hard\libg_nano.a(lib_a-utoa.o)
                0x000000000040ceec                __utoa

.text.rshift%248
                0x000000000040cf58       0x6a
 .text.rshift   0x000000000040cf58       0x6a c:/program files/microchip/xc32/v2.50/bin/bin/../../lib/gcc/pic32c/6.2.1/../../../../pic32c/lib/v7e-m/fpv5/hard\libg_nano.a(lib_a-gdtoa-gethex.o)

.text._DRV_SDMMC_DriverHandleValidate%249
                0x000000000040cfc4       0x68
 .text._DRV_SDMMC_DriverHandleValidate
                0x000000000040cfc4       0x68 build/sam_e70_xult/debug/_ext/1565510230/drv_sdmmc.o

.text.PIO_PinInterruptCallbackRegister%250
                0x000000000040d02c       0x68
 .text.PIO_PinInterruptCallbackRegister
                0x000000000040d02c       0x68 build/sam_e70_xult/debug/_ext/1055488423/plib_pio.o
                0x000000000040d02c                PIO_PinInterruptCallbackRegister

.text._PIO_Interrupt_Handler%251
                0x000000000040d094       0x68
 .text._PIO_Interrupt_Handler
                0x000000000040d094       0x68 build/sam_e70_xult/debug/_ext/1055488423/plib_pio.o
                0x000000000040d094                _PIO_Interrupt_Handler

.text.vTaskStartScheduler%252
                0x000000000040d0fc       0x68
 .text.vTaskStartScheduler
                0x000000000040d0fc       0x68 build/sam_e70_xult/debug/_ext/404212886/FreeRTOS_tasks.o
                0x000000000040d0fc                vTaskStartScheduler

.text.APP_GPS_Tasks%253
                0x000000000040d164       0x68
 .text.APP_GPS_Tasks
                0x000000000040d164       0x68 build/sam_e70_xult/debug/_ext/1360937237/app_gps.o
                0x000000000040d164                APP_GPS_Tasks

.text._Balloc%254
                0x000000000040d1cc       0x68
 .text._Balloc  0x000000000040d1cc       0x68 c:/program files/microchip/xc32/v2.50/bin/bin/../../lib/gcc/pic32c/6.2.1/../../../../pic32c/lib/v7e-m/fpv5/hard\libg_nano.a(lib_a-mprec.o)
                0x000000000040d1cc                _Balloc

.text._DRV_SDMMC_PlibCallbackHandler%255
                0x000000000040d234       0x64
 .text._DRV_SDMMC_PlibCallbackHandler
                0x000000000040d234       0x64 build/sam_e70_xult/debug/_ext/1565510230/drv_sdmmc.o

.text.f_mount%256
                0x000000000040d298       0x64
 .text.f_mount  0x000000000040d298       0x64 build/sam_e70_xult/debug/_ext/1043829778/ff.o
                0x000000000040d298                f_mount

.text.xPortPendSVHandler%257
                0x000000000040d300       0x64
 .text.xPortPendSVHandler
                0x000000000040d300       0x64 build/sam_e70_xult/debug/_ext/977623654/port.o
                0x000000000040d300                xPortPendSVHandler

.text.pvPortMalloc%258
                0x000000000040d364       0x64
 .text.pvPortMalloc
                0x000000000040d364       0x64 build/sam_e70_xult/debug/_ext/1665200909/heap_1.o
                0x000000000040d364                pvPortMalloc

.text.xQueueGiveFromISR%259
                0x000000000040d3c8       0x64
 .text.xQueueGiveFromISR
                0x000000000040d3c8       0x64 build/sam_e70_xult/debug/_ext/404212886/queue.o
                0x000000000040d3c8                xQueueGiveFromISR

.text.parseTime%260
                0x000000000040d42c       0x64
 .text.parseTime
                0x000000000040d42c       0x64 build/sam_e70_xult/debug/_ext/1360937237/app_gps.o
                0x000000000040d42c                parseTime

.text._DRV_SDMMC_InitCardContext%261
                0x000000000040d490       0x60
 .text._DRV_SDMMC_InitCardContext
                0x000000000040d490       0x60 build/sam_e70_xult/debug/_ext/1565510230/drv_sdmmc.o

.text.PWM0_Initialize%262
                0x000000000040d4f0       0x60
 .text.PWM0_Initialize
                0x000000000040d4f0       0x60 build/sam_e70_xult/debug/_ext/1055487991/plib_pwm0.o
                0x000000000040d4f0                PWM0_Initialize

.text.XDMAC_InterruptHandler%263
                0x000000000040d550       0x60
 .text.XDMAC_InterruptHandler
                0x000000000040d550       0x60 build/sam_e70_xult/debug/_ext/704852250/plib_xdmac.o
                0x000000000040d550                XDMAC_InterruptHandler

.text.get_ldnumber%264
                0x000000000040d5b0       0x60
 .text.get_ldnumber
                0x000000000040d5b0       0x60 build/sam_e70_xult/debug/_ext/1043829778/ff.o

.text.dir_clear%265
                0x000000000040d610       0x60
 .text.dir_clear
                0x000000000040d610       0x60 build/sam_e70_xult/debug/_ext/1043829778/ff.o

.text.f_chdir%266
                0x000000000040d670       0x60
 .text.f_chdir  0x000000000040d670       0x60 build/sam_e70_xult/debug/_ext/1043829778/ff.o
                0x000000000040d670                f_chdir

.text.FATFS_open%267
                0x000000000040d6d0       0x60
 .text.FATFS_open
                0x000000000040d6d0       0x60 build/sam_e70_xult/debug/_ext/1305476372/sys_fs_fat_interface.o
                0x000000000040d6d0                FATFS_open

.text.SYS_TIME_CallbackRegisterMS%268
                0x000000000040d730       0x60
 .text.SYS_TIME_CallbackRegisterMS
                0x000000000040d730       0x60 build/sam_e70_xult/debug/_ext/327803284/sys_time.o
                0x000000000040d730                SYS_TIME_CallbackRegisterMS

.text.f_chmod%269
                0x000000000040d790       0x5e
 .text.f_chmod  0x000000000040d790       0x5e build/sam_e70_xult/debug/_ext/1043829778/ff.o
                0x000000000040d790                f_chmod

.text.__lo0bits%270
                0x000000000040d7ee       0x5e
 .text.__lo0bits
                0x000000000040d7ee       0x5e c:/program files/microchip/xc32/v2.50/bin/bin/../../lib/gcc/pic32c/6.2.1/../../../../pic32c/lib/v7e-m/fpv5/hard\libg_nano.a(lib_a-mprec.o)
                0x000000000040d7ee                __lo0bits

.text._DRV_USART_DriverHandleValidate%271
                0x000000000040d84c       0x5c
 .text._DRV_USART_DriverHandleValidate
                0x000000000040d84c       0x5c build/sam_e70_xult/debug/_ext/716655881/drv_usart.o

.text.HSMCI_ModuleInit%272
                0x000000000040d8a8       0x5c
 .text.HSMCI_ModuleInit
                0x000000000040d8a8       0x5c build/sam_e70_xult/debug/_ext/719181653/plib_hsmci.o
                0x000000000040d8a8                HSMCI_ModuleInit

.text.f_utime%273
                0x000000000040d904       0x5c
 .text.f_utime  0x000000000040d904       0x5c build/sam_e70_xult/debug/_ext/1043829778/ff.o
                0x000000000040d904                f_utime

.text.SYS_FS_MEDIA_MANAGER_SectorRead%274
                0x000000000040d960       0x5c
 .text.SYS_FS_MEDIA_MANAGER_SectorRead
                0x000000000040d960       0x5c build/sam_e70_xult/debug/_ext/1305476372/sys_fs_media_manager.o
                0x000000000040d960                SYS_FS_MEDIA_MANAGER_SectorRead

.text.IMU_Process%275
                0x000000000040d9bc       0x5a
 .text.IMU_Process
                0x000000000040d9bc       0x5a build/sam_e70_xult/debug/_ext/1360937237/app_imu.o
                0x000000000040d9bc                IMU_Process

.text.OSAL_SEM_Create%276
                0x000000000040da16       0x58
 .text.OSAL_SEM_Create
                0x000000000040da16       0x58 build/sam_e70_xult/debug/_ext/1613695899/osal_freertos.o
                0x000000000040da16                OSAL_SEM_Create

.text.chk_lock%277
                0x000000000040da70       0x58
 .text.chk_lock
                0x000000000040da70       0x58 build/sam_e70_xult/debug/_ext/1043829778/ff.o

.text.dir_remove%278
                0x000000000040dac8       0x58
 .text.dir_remove
                0x000000000040dac8       0x58 build/sam_e70_xult/debug/_ext/1043829778/ff.o

.text.f_gets%279
                0x000000000040db20       0x58
 .text.f_gets   0x000000000040db20       0x58 build/sam_e70_xult/debug/_ext/1043829778/ff.o
                0x000000000040db20                f_gets

.text.SYS_TIME_TimerStart%280
                0x000000000040db78       0x58
 .text.SYS_TIME_TimerStart
                0x000000000040db78       0x58 build/sam_e70_xult/debug/_ext/327803284/sys_time.o
                0x000000000040db78                SYS_TIME_TimerStart

.text.xTaskCheckForTimeOut%281
                0x000000000040dbd0       0x58
 .text.xTaskCheckForTimeOut
                0x000000000040dbd0       0x58 build/sam_e70_xult/debug/_ext/404212886/FreeRTOS_tasks.o
                0x000000000040dbd0                xTaskCheckForTimeOut

.text.APP_MAST_CONTROL_Initialize%282
                0x000000000040dc28       0x58
 .text.APP_MAST_CONTROL_Initialize
                0x000000000040dc28       0x58 build/sam_e70_xult/debug/_ext/1360937237/app_mast_control.o
                0x000000000040dc28                APP_MAST_CONTROL_Initialize

.text.DRV_SDMMC_CommandStatus%283
                0x000000000040dc80       0x54
 .text.DRV_SDMMC_CommandStatus
                0x000000000040dc80       0x54 build/sam_e70_xult/debug/_ext/1565510230/drv_sdmmc.o
                0x000000000040dc80                DRV_SDMMC_CommandStatus

.text.HSMCI_DmaSetup%284
                0x000000000040dcd4       0x54
 .text.HSMCI_DmaSetup
                0x000000000040dcd4       0x54 build/sam_e70_xult/debug/_ext/719181653/plib_hsmci.o
                0x000000000040dcd4                HSMCI_DmaSetup

.text.dir_alloc%285
                0x000000000040dd28       0x54
 .text.dir_alloc
                0x000000000040dd28       0x54 build/sam_e70_xult/debug/_ext/1043829778/ff.o

.rodata%286     0x000000000040dd7c       0x54
 .rodata        0x000000000040dd7c       0x54 build/sam_e70_xult/debug/_ext/1043829778/ff.o

.text.SYS_TIME_RemoveFromList%287
                0x000000000040ddd0       0x54
 .text.SYS_TIME_RemoveFromList
                0x000000000040ddd0       0x54 build/sam_e70_xult/debug/_ext/327803284/sys_time.o

.text.parseDate%288
                0x000000000040de24       0x54
 .text.parseDate
                0x000000000040de24       0x54 build/sam_e70_xult/debug/_ext/1360937237/app_gps.o
                0x000000000040de24                parseDate

.text.sync_window%289
                0x000000000040de78       0x50
 .text.sync_window
                0x000000000040de78       0x50 build/sam_e70_xult/debug/_ext/1043829778/ff.o

.text.f_readdir%290
                0x000000000040dec8       0x50
 .text.f_readdir
                0x000000000040dec8       0x50 build/sam_e70_xult/debug/_ext/1043829778/ff.o
                0x000000000040dec8                f_readdir

.text.disk_checkCommandStatus%291
                0x000000000040df18       0x50
 .text.disk_checkCommandStatus
                0x000000000040df18       0x50 build/sam_e70_xult/debug/_ext/1893760823/diskio.o

.text.SYS_TIME_DelayMS%292
                0x000000000040df68       0x50
 .text.SYS_TIME_DelayMS
                0x000000000040df68       0x50 build/sam_e70_xult/debug/_ext/327803284/sys_time.o
                0x000000000040df68                SYS_TIME_DelayMS

.text.__ulp%293
                0x000000000040dfb8       0x50
 .text.__ulp    0x000000000040dfb8       0x50 c:/program files/microchip/xc32/v2.50/bin/bin/../../lib/gcc/pic32c/6.2.1/../../../../pic32c/lib/v7e-m/fpv5/hard\libg_nano.a(lib_a-mprec.o)
                0x000000000040dfb8                __ulp

.text._DRV_USART_RX_PLIB_CallbackHandler%294
                0x000000000040e008       0x4e
 .text._DRV_USART_RX_PLIB_CallbackHandler
                0x000000000040e008       0x4e build/sam_e70_xult/debug/_ext/716655881/drv_usart.o

.text.XDMAC_ChannelTransfer%295
                0x000000000040e058       0x4c
 .text.XDMAC_ChannelTransfer
                0x000000000040e058       0x4c build/sam_e70_xult/debug/_ext/704852250/plib_xdmac.o
                0x000000000040e058                XDMAC_ChannelTransfer

.text.__ratio%296
                0x000000000040e0a4       0x4c
 .text.__ratio  0x000000000040e0a4       0x4c c:/program files/microchip/xc32/v2.50/bin/bin/../../lib/gcc/pic32c/6.2.1/../../../../pic32c/lib/v7e-m/fpv5/hard\libg_nano.a(lib_a-mprec.o)
                0x000000000040e0a4                __ratio

.text._DRV_I2C_DriverHandleValidate%297
                0x000000000040e0f0       0x48
 .text._DRV_I2C_DriverHandleValidate
                0x000000000040e0f0       0x48 build/sam_e70_xult/debug/_ext/957281314/drv_i2c.o

.rodata.drvSDMMC0PlibAPI%298
                0x000000000040e138       0x48
 .rodata.drvSDMMC0PlibAPI
                0x000000000040e138       0x48 build/sam_e70_xult/debug/_ext/1728594169/initialization.o
                0x000000000040e138                drvSDMMC0PlibAPI

.text.xPortStartScheduler%299
                0x000000000040e180       0x48
 .text.xPortStartScheduler
                0x000000000040e180       0x48 build/sam_e70_xult/debug/_ext/977623654/port.o
                0x000000000040e180                xPortStartScheduler

.text.__libc_init_array%300
                0x000000000040e1c8       0x48
 .text.__libc_init_array
                0x000000000040e1c8       0x48 c:/program files/microchip/xc32/v2.50/bin/bin/../../lib/gcc/pic32c/6.2.1/../../../../pic32c/lib/v7e-m/fpv5/hard\libg_nano.a(lib_a-init.o)
                0x000000000040e1c8                __libc_init_array

.text.f_stat%301
                0x000000000040e210       0x44
 .text.f_stat   0x000000000040e210       0x44 build/sam_e70_xult/debug/_ext/1043829778/ff.o
                0x000000000040e210                f_stat

.text.SYS_INT_SourceDisable%302
                0x000000000040e254       0x44
 .text.SYS_INT_SourceDisable
                0x000000000040e254       0x44 build/sam_e70_xult/debug/_ext/766002106/sys_int.o
                0x000000000040e254                SYS_INT_SourceDisable

.text.__any_on%303
                0x000000000040e298       0x42
 .text.__any_on
                0x000000000040e298       0x42 c:/program files/microchip/xc32/v2.50/bin/bin/../../lib/gcc/pic32c/6.2.1/../../../../pic32c/lib/v7e-m/fpv5/hard\libg_nano.a(lib_a-mprec.o)
                0x000000000040e298                __any_on

.text%304       0x000000000040e2dc       0x40
 .text          0x000000000040e2dc       0x40 c:/program files/microchip/xc32/v2.50/bin/bin/../../lib/gcc/pic32c/6.2.1/v7e-m/fpv5/hard/crtbegin.o

.text.DRV_SDMMC_EventHandlerSet%305
                0x000000000040e31c       0x40
 .text.DRV_SDMMC_EventHandlerSet
                0x000000000040e31c       0x40 build/sam_e70_xult/debug/_ext/1565510230/drv_sdmmc.o
                0x000000000040e31c                DRV_SDMMC_EventHandlerSet

.rodata.TRAN_SPEED_MULT_TABLE.9182%306
                0x000000000040e35c       0x40
 .rodata.TRAN_SPEED_MULT_TABLE.9182
                0x000000000040e35c       0x40 build/sam_e70_xult/debug/_ext/1565510230/drv_sdmmc.o

.text.HSMCI_ClockSet%307
                0x000000000040e39c       0x40
 .text.HSMCI_ClockSet
                0x000000000040e39c       0x40 build/sam_e70_xult/debug/_ext/719181653/plib_hsmci.o
                0x000000000040e39c                HSMCI_ClockSet

.text.USART1_Initialize%308
                0x000000000040e3dc       0x40
 .text.USART1_Initialize
                0x000000000040e3dc       0x40 build/sam_e70_xult/debug/_ext/707186936/plib_usart1.o
                0x000000000040e3dc                USART1_Initialize

.text.USART1_Read%309
                0x000000000040e41c       0x40
 .text.USART1_Read
                0x000000000040e41c       0x40 build/sam_e70_xult/debug/_ext/707186936/plib_usart1.o
                0x000000000040e41c                USART1_Read

.text.USART0_Initialize%310
                0x000000000040e45c       0x40
 .text.USART0_Initialize
                0x000000000040e45c       0x40 build/sam_e70_xult/debug/_ext/707186936/plib_usart0.o
                0x000000000040e45c                USART0_Initialize

.text.USART0_Read%311
                0x000000000040e49c       0x40
 .text.USART0_Read
                0x000000000040e49c       0x40 build/sam_e70_xult/debug/_ext/707186936/plib_usart0.o
                0x000000000040e49c                USART0_Read

.text.USART2_Initialize%312
                0x000000000040e4dc       0x40
 .text.USART2_Initialize
                0x000000000040e4dc       0x40 build/sam_e70_xult/debug/_ext/707186936/plib_usart2.o
                0x000000000040e4dc                USART2_Initialize

.text.USART2_Read%313
                0x000000000040e51c       0x40
 .text.USART2_Read
                0x000000000040e51c       0x40 build/sam_e70_xult/debug/_ext/707186936/plib_usart2.o
                0x000000000040e51c                USART2_Read

.text.ff_uni2oem%314
                0x000000000040e55c       0x40
 .text.ff_uni2oem
                0x000000000040e55c       0x40 build/sam_e70_xult/debug/_ext/1043829778/ffunicode.o
                0x000000000040e55c                ff_uni2oem

.text.SYS_FS_MEDIA_MANAGER_Register%315
                0x000000000040e59c       0x40
 .text.SYS_FS_MEDIA_MANAGER_Register
                0x000000000040e59c       0x40 build/sam_e70_xult/debug/_ext/1305476372/sys_fs_media_manager.o
                0x000000000040e59c                SYS_FS_MEDIA_MANAGER_Register

.text.SYS_TIME_TimerAdd%316
                0x000000000040e5dc       0x40
 .text.SYS_TIME_TimerAdd
                0x000000000040e5dc       0x40 build/sam_e70_xult/debug/_ext/327803284/sys_time.o

.text.rudder_encoder%317
                0x000000000040e620       0x40
 .text.rudder_encoder
                0x000000000040e620       0x40 build/sam_e70_xult/debug/_ext/1360937237/app_rudder_control.o
                0x000000000040e620                rudder_encoder

.rodata.PIo2%318
                0x000000000040e660       0x40
 .rodata.PIo2   0x000000000040e660       0x40 c:/program files/microchip/xc32/v2.50/bin/bin/../../lib/gcc/pic32c/6.2.1/../../../../pic32c/lib/v7e-m/fpv5/hard\libm_nano.a(lib_a-k_rem_pio2.o)

.text.putc_bfd%319
                0x000000000040e6a0       0x3e
 .text.putc_bfd
                0x000000000040e6a0       0x3e build/sam_e70_xult/debug/_ext/1043829778/ff.o

.text.FATFS_getclusters%320
                0x000000000040e6de       0x3e
 .text.FATFS_getclusters
                0x000000000040e6de       0x3e build/sam_e70_xult/debug/_ext/1305476372/sys_fs_fat_interface.o
                0x000000000040e6de                FATFS_getclusters

.text.__hi0bits%321
                0x000000000040e71c       0x3e
 .text.__hi0bits
                0x000000000040e71c       0x3e c:/program files/microchip/xc32/v2.50/bin/bin/../../lib/gcc/pic32c/6.2.1/../../../../pic32c/lib/v7e-m/fpv5/hard\libg_nano.a(lib_a-mprec.o)
                0x000000000040e71c                __hi0bits

.text.OSAL_SEM_PostISR%322
                0x000000000040e75c       0x3c
 .text.OSAL_SEM_PostISR
                0x000000000040e75c       0x3c build/sam_e70_xult/debug/_ext/1613695899/osal_freertos.o
                0x000000000040e75c                OSAL_SEM_PostISR

.text.TWIHS0_Initialize%323
                0x000000000040e798       0x3c
 .text.TWIHS0_Initialize
                0x000000000040e798       0x3c build/sam_e70_xult/debug/_ext/1539215101/plib_twihs0_master.o
                0x000000000040e798                TWIHS0_Initialize

.text.SYS_TIME_GetTimerObject%324
                0x000000000040e7d4       0x3c
 .text.SYS_TIME_GetTimerObject
                0x000000000040e7d4       0x3c build/sam_e70_xult/debug/_ext/327803284/sys_time.o

.text.SYS_TIME_ResourceUnlock%325
                0x000000000040e810       0x3c
 .text.SYS_TIME_ResourceUnlock
                0x000000000040e810       0x3c build/sam_e70_xult/debug/_ext/327803284/sys_time.o

.text.SYS_TIME_TimerDestroy%326
                0x000000000040e84c       0x3c
 .text.SYS_TIME_TimerDestroy
                0x000000000040e84c       0x3c build/sam_e70_xult/debug/_ext/327803284/sys_time.o
                0x000000000040e84c                SYS_TIME_TimerDestroy

.text.putc_flush%327
                0x000000000040e888       0x3a
 .text.putc_flush
                0x000000000040e888       0x3a build/sam_e70_xult/debug/_ext/1043829778/ff.o

.text.SYS_CACHE_InvalidateDCache_by_Addr%328
                0x000000000040e8c4       0x38
 .text.SYS_CACHE_InvalidateDCache_by_Addr
                0x000000000040e8c4       0x38 build/sam_e70_xult/debug/_ext/876653320/sys_cache.o
                0x000000000040e8c4                SYS_CACHE_InvalidateDCache_by_Addr

.text.SYS_CACHE_CleanDCache_by_Addr%329
                0x000000000040e8fc       0x38
 .text.SYS_CACHE_CleanDCache_by_Addr
                0x000000000040e8fc       0x38 build/sam_e70_xult/debug/_ext/876653320/sys_cache.o
                0x000000000040e8fc                SYS_CACHE_CleanDCache_by_Addr

.text.disk_ioctl%330
                0x000000000040e934       0x38
 .text.disk_ioctl
                0x000000000040e934       0x38 build/sam_e70_xult/debug/_ext/1893760823/diskio.o
                0x000000000040e934                disk_ioctl

.text.SYS_TIME_ResourceLock%331
                0x000000000040e96c       0x38
 .text.SYS_TIME_ResourceLock
                0x000000000040e96c       0x38 build/sam_e70_xult/debug/_ext/327803284/sys_time.o

.text.parseFloat%332
                0x000000000040e9a8       0x38
 .text.parseFloat
                0x000000000040e9a8       0x38 build/sam_e70_xult/debug/_ext/1360937237/app_gps.o
                0x000000000040e9a8                parseFloat

.text.move_window%333
                0x000000000040e9e0       0x36
 .text.move_window
                0x000000000040e9e0       0x36 build/sam_e70_xult/debug/_ext/1043829778/ff.o

.text.TWIHS0_InitiateRead%334
                0x000000000040ea18       0x34
 .text.TWIHS0_InitiateRead
                0x000000000040ea18       0x34 build/sam_e70_xult/debug/_ext/1539215101/plib_twihs0_master.o

.text.dec_lock%335
                0x000000000040ea4c       0x34
 .text.dec_lock
                0x000000000040ea4c       0x34 build/sam_e70_xult/debug/_ext/1043829778/ff.o

.text.f_close%336
                0x000000000040ea80       0x34
 .text.f_close  0x000000000040ea80       0x34 build/sam_e70_xult/debug/_ext/1043829778/ff.o
                0x000000000040ea80                f_close

.text.f_fdisk%337
                0x000000000040eab4       0x34
 .text.f_fdisk  0x000000000040eab4       0x34 build/sam_e70_xult/debug/_ext/1043829778/ff.o
                0x000000000040eab4                f_fdisk

.text.SYS_FS_MEDIA_MANAGER_EventHandler%338
                0x000000000040eae8       0x34
 .text.SYS_FS_MEDIA_MANAGER_EventHandler
                0x000000000040eae8       0x34 build/sam_e70_xult/debug/_ext/1305476372/sys_fs_media_manager.o
                0x000000000040eae8                SYS_FS_MEDIA_MANAGER_EventHandler

.text.vListInsert%339
                0x000000000040eb1c       0x34
 .text.vListInsert
                0x000000000040eb1c       0x34 build/sam_e70_xult/debug/_ext/404212886/list.o
                0x000000000040eb1c                vListInsert

.text.vTaskDelay%340
                0x000000000040eb50       0x34
 .text.vTaskDelay
                0x000000000040eb50       0x34 build/sam_e70_xult/debug/_ext/404212886/FreeRTOS_tasks.o
                0x000000000040eb50                vTaskDelay

.text.sulp%341  0x000000000040eb84       0x34
 .text.sulp     0x000000000040eb84       0x34 c:/program files/microchip/xc32/v2.50/bin/bin/../../lib/gcc/pic32c/6.2.1/../../../../pic32c/lib/v7e-m/fpv5/hard\libg_nano.a(lib_a-strtod.o)

.text.__mcmp%342
                0x000000000040ebb8       0x34
 .text.__mcmp   0x000000000040ebb8       0x34 c:/program files/microchip/xc32/v2.50/bin/bin/../../lib/gcc/pic32c/6.2.1/../../../../pic32c/lib/v7e-m/fpv5/hard\libg_nano.a(lib_a-mprec.o)
                0x000000000040ebb8                __mcmp

.text.__copybits%343
                0x000000000040ebec       0x34
 .text.__copybits
                0x000000000040ebec       0x34 c:/program files/microchip/xc32/v2.50/bin/bin/../../lib/gcc/pic32c/6.2.1/../../../../pic32c/lib/v7e-m/fpv5/hard\libg_nano.a(lib_a-mprec.o)
                0x000000000040ebec                __copybits

.text.validate%344
                0x000000000040ec20       0x32
 .text.validate
                0x000000000040ec20       0x32 build/sam_e70_xult/debug/_ext/1043829778/ff.o

.rodata.sdmmcMediaFunctions%345
                0x000000000040ec54       0x30
 .rodata.sdmmcMediaFunctions
                0x000000000040ec54       0x30 build/sam_e70_xult/debug/_ext/1565510230/drv_sdmmc_file_system.o
                0x000000000040ec54                sdmmcMediaFunctions

.text.f_puts%346
                0x000000000040ec84       0x30
 .text.f_puts   0x000000000040ec84       0x30 build/sam_e70_xult/debug/_ext/1043829778/ff.o
                0x000000000040ec84                f_puts

.text.diskEventHandler%347
                0x000000000040ecb4       0x30
 .text.diskEventHandler
                0x000000000040ecb4       0x30 build/sam_e70_xult/debug/_ext/1893760823/diskio.o
                0x000000000040ecb4                diskEventHandler

.text.SYS_TIME_UpdateTimerList%348
                0x000000000040ece4       0x30
 .text.SYS_TIME_UpdateTimerList
                0x000000000040ece4       0x30 build/sam_e70_xult/debug/_ext/327803284/sys_time.o

.text.xPortSysTickHandler%349
                0x000000000040ed14       0x30
 .text.xPortSysTickHandler
                0x000000000040ed14       0x30 build/sam_e70_xult/debug/_ext/977623654/port.o
                0x000000000040ed14                xPortSysTickHandler

.text.xQueueGenericCreate%350
                0x000000000040ed44       0x30
 .text.xQueueGenericCreate
                0x000000000040ed44       0x30 build/sam_e70_xult/debug/_ext/404212886/queue.o
                0x000000000040ed44                xQueueGenericCreate

.text%351       0x000000000040ed74       0x30
 .text          0x000000000040ed74       0x30 c:/program files/microchip/xc32/v2.50/bin/bin/../../lib/gcc/pic32c/6.2.1/v7e-m/fpv5/hard\libgcc.a(_aeabi_uldivmod.o)
                0x000000000040ed74                __aeabi_uldivmod

.text.__itoa%352
                0x000000000040eda4       0x30
 .text.__itoa   0x000000000040eda4       0x30 c:/program files/microchip/xc32/v2.50/bin/bin/../../lib/gcc/pic32c/6.2.1/../../../../pic32c/lib/v7e-m/fpv5/hard\libg_nano.a(lib_a-itoa.o)
                0x000000000040eda4                __itoa

.text._Bfree%353
                0x000000000040edd4       0x2e
 .text._Bfree   0x000000000040edd4       0x2e c:/program files/microchip/xc32/v2.50/bin/bin/../../lib/gcc/pic32c/6.2.1/../../../../pic32c/lib/v7e-m/fpv5/hard\libg_nano.a(lib_a-mprec.o)
                0x000000000040edd4                _Bfree

.text.DRV_SDMMC_IsAttached%354
                0x000000000040ee04       0x2c
 .text.DRV_SDMMC_IsAttached
                0x000000000040ee04       0x2c build/sam_e70_xult/debug/_ext/1565510230/drv_sdmmc.o
                0x000000000040ee04                DRV_SDMMC_IsAttached

.text.TWIHS0_Read%355
                0x000000000040ee30       0x2c
 .text.TWIHS0_Read
                0x000000000040ee30       0x2c build/sam_e70_xult/debug/_ext/1539215101/plib_twihs0_master.o
                0x000000000040ee30                TWIHS0_Read

.text.TWIHS0_Write%356
                0x000000000040ee5c       0x2c
 .text.TWIHS0_Write
                0x000000000040ee5c       0x2c build/sam_e70_xult/debug/_ext/1539215101/plib_twihs0_master.o
                0x000000000040ee5c                TWIHS0_Write

.text.TWIHS0_WriteRead%357
                0x000000000040ee88       0x2c
 .text.TWIHS0_WriteRead
                0x000000000040ee88       0x2c build/sam_e70_xult/debug/_ext/1539215101/plib_twihs0_master.o
                0x000000000040ee88                TWIHS0_WriteRead

.text.USART1_ErrorClear%358
                0x000000000040eeb4       0x2c
 .text.USART1_ErrorClear
                0x000000000040eeb4       0x2c build/sam_e70_xult/debug/_ext/707186936/plib_usart1.o

.text.USART0_ErrorClear%359
                0x000000000040eee0       0x2c
 .text.USART0_ErrorClear
                0x000000000040eee0       0x2c build/sam_e70_xult/debug/_ext/707186936/plib_usart0.o

.text.USART2_ErrorClear%360
                0x000000000040ef0c       0x2c
 .text.USART2_ErrorClear
                0x000000000040ef0c       0x2c build/sam_e70_xult/debug/_ext/707186936/plib_usart2.o

.text.FATFS_opendir%361
                0x000000000040ef38       0x2c
 .text.FATFS_opendir
                0x000000000040ef38       0x2c build/sam_e70_xult/debug/_ext/1305476372/sys_fs_fat_interface.o
                0x000000000040ef38                FATFS_opendir

.rodata.drvUsart0InitData%362
                0x000000000040ef64       0x2c
 .rodata.drvUsart0InitData
                0x000000000040ef64       0x2c build/sam_e70_xult/debug/_ext/1728594169/initialization.o
                0x000000000040ef64                drvUsart0InitData

.rodata.drvUsart0PlibAPI%363
                0x000000000040ef90       0x2c
 .rodata.drvUsart0PlibAPI
                0x000000000040ef90       0x2c build/sam_e70_xult/debug/_ext/1728594169/initialization.o
                0x000000000040ef90                drvUsart0PlibAPI

.rodata.drvUsart1InitData%364
                0x000000000040efbc       0x2c
 .rodata.drvUsart1InitData
                0x000000000040efbc       0x2c build/sam_e70_xult/debug/_ext/1728594169/initialization.o
                0x000000000040efbc                drvUsart1InitData

.rodata.drvUsart1PlibAPI%365
                0x000000000040efe8       0x2c
 .rodata.drvUsart1PlibAPI
                0x000000000040efe8       0x2c build/sam_e70_xult/debug/_ext/1728594169/initialization.o
                0x000000000040efe8                drvUsart1PlibAPI

.rodata.drvUsart2InitData%366
                0x000000000040f014       0x2c
 .rodata.drvUsart2InitData
                0x000000000040f014       0x2c build/sam_e70_xult/debug/_ext/1728594169/initialization.o
                0x000000000040f014                drvUsart2InitData

.rodata.drvUsart2PlibAPI%367
                0x000000000040f040       0x2c
 .rodata.drvUsart2PlibAPI
                0x000000000040f040       0x2c build/sam_e70_xult/debug/_ext/1728594169/initialization.o
                0x000000000040f040                drvUsart2PlibAPI

.text.pxPortInitialiseStack%368
                0x000000000040f06c       0x2c
 .text.pxPortInitialiseStack
                0x000000000040f06c       0x2c build/sam_e70_xult/debug/_ext/977623654/port.o
                0x000000000040f06c                pxPortInitialiseStack

.text.prvResetNextTaskUnblockTime%369
                0x000000000040f098       0x2c
 .text.prvResetNextTaskUnblockTime
                0x000000000040f098       0x2c build/sam_e70_xult/debug/_ext/404212886/FreeRTOS_tasks.o

.text.strtol%370
                0x000000000040f0c4       0x2c
 .text.strtol   0x000000000040f0c4       0x2c c:/program files/microchip/xc32/v2.50/bin/bin/../../lib/gcc/pic32c/6.2.1/../../../../pic32c/lib/v7e-m/fpv5/hard\libg_nano.a(lib_a-strtol.o)
                0x000000000040f0c4                strtol

.text._sbrk%371
                0x000000000040f0f0       0x2c
 .text._sbrk    0x000000000040f0f0       0x2c c:/program files/microchip/xc32/v2.50/bin/bin/../../lib/gcc/pic32c/6.2.1/../../../../pic32c/lib/v7e-m/fpv5/hard\libpic32c.a(sbrk.o)
                0x000000000040f0f0                _sbrk

.text.f_closedir%372
                0x000000000040f11c       0x2a
 .text.f_closedir
                0x000000000040f11c       0x2a build/sam_e70_xult/debug/_ext/1043829778/ff.o
                0x000000000040f11c                f_closedir

.text.strncpy%373
                0x000000000040f146       0x2a
 .text.strncpy  0x000000000040f146       0x2a c:/program files/microchip/xc32/v2.50/bin/bin/../../lib/gcc/pic32c/6.2.1/../../../../pic32c/lib/v7e-m/fpv5/hard\libg_nano.a(lib_a-strncpy.o)
                0x000000000040f146                strncpy

.text.__hexdig_fun%374
                0x000000000040f170       0x2a
 .text.__hexdig_fun
                0x000000000040f170       0x2a c:/program files/microchip/xc32/v2.50/bin/bin/../../lib/gcc/pic32c/6.2.1/../../../../pic32c/lib/v7e-m/fpv5/hard\libg_nano.a(lib_a-gdtoa-gethex.o)
                0x000000000040f170                __hexdig_fun

.text._DRV_I2C_PLibCallbackHandler%375
                0x000000000040f19a       0x28
 .text._DRV_I2C_PLibCallbackHandler
                0x000000000040f19a       0x28 build/sam_e70_xult/debug/_ext/957281314/drv_i2c.o

.text.USART1_ReadAbort%376
                0x000000000040f1c4       0x28
 .text.USART1_ReadAbort
                0x000000000040f1c4       0x28 build/sam_e70_xult/debug/_ext/707186936/plib_usart1.o
                0x000000000040f1c4                USART1_ReadAbort

.text.USART0_ReadAbort%377
                0x000000000040f1ec       0x28
 .text.USART0_ReadAbort
                0x000000000040f1ec       0x28 build/sam_e70_xult/debug/_ext/707186936/plib_usart0.o
                0x000000000040f1ec                USART0_ReadAbort

.text.USART2_ReadAbort%378
                0x000000000040f214       0x28
 .text.USART2_ReadAbort
                0x000000000040f214       0x28 build/sam_e70_xult/debug/_ext/707186936/plib_usart2.o
                0x000000000040f214                USART2_ReadAbort

.text.XDMAC_Initialize%379
                0x000000000040f23c       0x28
 .text.XDMAC_Initialize
                0x000000000040f23c       0x28 build/sam_e70_xult/debug/_ext/704852250/plib_xdmac.o
                0x000000000040f23c                XDMAC_Initialize

.text.tchar2uni%380
                0x000000000040f264       0x28
 .text.tchar2uni
                0x000000000040f264       0x28 build/sam_e70_xult/debug/_ext/1043829778/ff.o

.text.f_chdrive%381
                0x000000000040f28c       0x28
 .text.f_chdrive
                0x000000000040f28c       0x28 build/sam_e70_xult/debug/_ext/1043829778/ff.o
                0x000000000040f28c                f_chdrive

.text.ff_oem2uni%382
                0x000000000040f2b4       0x28
 .text.ff_oem2uni
                0x000000000040f2b4       0x28 build/sam_e70_xult/debug/_ext/1043829778/ffunicode.o
                0x000000000040f2b4                ff_oem2uni

.text.FATFS_mkfs%383
                0x000000000040f2dc       0x28
 .text.FATFS_mkfs
                0x000000000040f2dc       0x28 build/sam_e70_xult/debug/_ext/1305476372/sys_fs_fat_interface.o
                0x000000000040f2dc                FATFS_mkfs

.text.SYS_TIME_TimerPeriodHasExpired%384
                0x000000000040f304       0x28
 .text.SYS_TIME_TimerPeriodHasExpired
                0x000000000040f304       0x28 build/sam_e70_xult/debug/_ext/327803284/sys_time.o
                0x000000000040f304                SYS_TIME_TimerPeriodHasExpired

.text.prvPortStartFirstTask%385
                0x000000000040f32c       0x28
 .text.prvPortStartFirstTask
                0x000000000040f32c       0x28 build/sam_e70_xult/debug/_ext/977623654/port.o

.text.vPortSetupTimerInterrupt%386
                0x000000000040f354       0x28
 .text.vPortSetupTimerInterrupt
                0x000000000040f354       0x28 build/sam_e70_xult/debug/_ext/977623654/port.o
                0x000000000040f354                vPortSetupTimerInterrupt

.text.uxListRemove%387
                0x000000000040f37c       0x28
 .text.uxListRemove
                0x000000000040f37c       0x28 build/sam_e70_xult/debug/_ext/404212886/list.o
                0x000000000040f37c                uxListRemove

.text.strtod%388
                0x000000000040f3a4       0x28
 .text.strtod   0x000000000040f3a4       0x28 c:/program files/microchip/xc32/v2.50/bin/bin/../../lib/gcc/pic32c/6.2.1/../../../../pic32c/lib/v7e-m/fpv5/hard\libg_nano.a(lib_a-strtod.o)
                0x000000000040f3a4                strtod

.rodata.tinytens%389
                0x000000000040f3d0       0x28
 .rodata.tinytens
                0x000000000040f3d0       0x28 c:/program files/microchip/xc32/v2.50/bin/bin/../../lib/gcc/pic32c/6.2.1/../../../../pic32c/lib/v7e-m/fpv5/hard\libg_nano.a(lib_a-strtod.o)

.rodata.__mprec_bigtens%390
                0x000000000040f3f8       0x28
 .rodata.__mprec_bigtens
                0x000000000040f3f8       0x28 c:/program files/microchip/xc32/v2.50/bin/bin/../../lib/gcc/pic32c/6.2.1/../../../../pic32c/lib/v7e-m/fpv5/hard\libg_nano.a(lib_a-mprec.o)
                0x000000000040f3f8                __mprec_bigtens

.text.f_putc%391
                0x000000000040f420       0x26
 .text.f_putc   0x000000000040f420       0x26 build/sam_e70_xult/debug/_ext/1043829778/ff.o
                0x000000000040f420                f_putc

.text.get_fattime%392
                0x000000000040f446       0x26
 .text.get_fattime
                0x000000000040f446       0x26 build/sam_e70_xult/debug/_ext/1893760823/diskio.o
                0x000000000040f446                get_fattime

.text.__match%393
                0x000000000040f46c       0x26
 .text.__match  0x000000000040f46c       0x26 c:/program files/microchip/xc32/v2.50/bin/bin/../../lib/gcc/pic32c/6.2.1/../../../../pic32c/lib/v7e-m/fpv5/hard\libg_nano.a(lib_a-gdtoa-hexnan.o)
                0x000000000040f46c                __match

.rodata%394     0x000000000040f492       0x25
 .rodata        0x000000000040f492       0x25 c:/program files/microchip/xc32/v2.50/bin/bin/../../lib/gcc/pic32c/6.2.1/../../../../pic32c/lib/v7e-m/fpv5/hard\libg_nano.a(lib_a-utoa.o)

.text.DRV_SDMMC_GeometryGet%395
                0x000000000040f4b8       0x24
 .text.DRV_SDMMC_GeometryGet
                0x000000000040f4b8       0x24 build/sam_e70_xult/debug/_ext/1565510230/drv_sdmmc.o
                0x000000000040f4b8                DRV_SDMMC_GeometryGet

.text.TC3_CH0_TimerInitialize%396
                0x000000000040f4dc       0x24
 .text.TC3_CH0_TimerInitialize
                0x000000000040f4dc       0x24 build/sam_e70_xult/debug/_ext/865331892/plib_tc3.o
                0x000000000040f4dc                TC3_CH0_TimerInitialize

.text.TC3_CH0_InterruptHandler%397
                0x000000000040f500       0x24
 .text.TC3_CH0_InterruptHandler
                0x000000000040f500       0x24 build/sam_e70_xult/debug/_ext/865331892/plib_tc3.o
                0x000000000040f500                TC3_CH0_InterruptHandler

.rodata.drvSDMMC0InitData%398
                0x000000000040f524       0x24
 .rodata.drvSDMMC0InitData
                0x000000000040f524       0x24 build/sam_e70_xult/debug/_ext/1728594169/initialization.o
                0x000000000040f524                drvSDMMC0InitData

.text.prvTaskExitError%399
                0x000000000040f548       0x24
 .text.prvTaskExitError
                0x000000000040f548       0x24 build/sam_e70_xult/debug/_ext/977623654/port.o

.text.vPortSVCHandler%400
                0x000000000040f570       0x24
 .text.vPortSVCHandler
                0x000000000040f570       0x24 build/sam_e70_xult/debug/_ext/977623654/port.o
                0x000000000040f570                vPortSVCHandler

.text.vPortEnterCritical%401
                0x000000000040f594       0x24
 .text.vPortEnterCritical
                0x000000000040f594       0x24 build/sam_e70_xult/debug/_ext/977623654/port.o
                0x000000000040f594                vPortEnterCritical

.text.xQueueCreateMutex%402
                0x000000000040f5b8       0x24
 .text.xQueueCreateMutex
                0x000000000040f5b8       0x24 build/sam_e70_xult/debug/_ext/404212886/queue.o
                0x000000000040f5b8                xQueueCreateMutex

.text.__ascii_mbtowc%403
                0x000000000040f5dc       0x24
 .text.__ascii_mbtowc
                0x000000000040f5dc       0x24 c:/program files/microchip/xc32/v2.50/bin/bin/../../lib/gcc/pic32c/6.2.1/../../../../pic32c/lib/v7e-m/fpv5/hard\libg_nano.a(lib_a-mbtowc_r.o)
                0x000000000040f5dc                __ascii_mbtowc

.text.strncmp%404
                0x000000000040f600       0x24
 .text.strncmp  0x000000000040f600       0x24 c:/program files/microchip/xc32/v2.50/bin/bin/../../lib/gcc/pic32c/6.2.1/../../../../pic32c/lib/v7e-m/fpv5/hard\libg_nano.a(lib_a-strncmp.o)
                0x000000000040f600                strncmp

.text.L_shift%405
                0x000000000040f624       0x24
 .text.L_shift  0x000000000040f624       0x24 c:/program files/microchip/xc32/v2.50/bin/bin/../../lib/gcc/pic32c/6.2.1/../../../../pic32c/lib/v7e-m/fpv5/hard\libg_nano.a(lib_a-gdtoa-hexnan.o)

.text.SYS_FS_MEDIA_MANAGER_IsFSFat%406
                0x000000000040f648       0x22
 .text.SYS_FS_MEDIA_MANAGER_IsFSFat
                0x000000000040f648       0x22 build/sam_e70_xult/debug/_ext/1305476372/sys_fs_media_manager.o

.text.FATFS_chdrive%407
                0x000000000040f66a       0x22
 .text.FATFS_chdrive
                0x000000000040f66a       0x22 build/sam_e70_xult/debug/_ext/1305476372/sys_fs_fat_interface.o
                0x000000000040f66a                FATFS_chdrive

.text.Radio_Encode%408
                0x000000000040f68c       0x22
 .text.Radio_Encode
                0x000000000040f68c       0x22 build/sam_e70_xult/debug/_ext/1360937237/app_communication.o
                0x000000000040f68c                Radio_Encode

.rodata.TRAN_SPEED_UNIT_TABLE.9181%409
                0x000000000040f6b0       0x20
 .rodata.TRAN_SPEED_UNIT_TABLE.9181
                0x000000000040f6b0       0x20 build/sam_e70_xult/debug/_ext/1565510230/drv_sdmmc.o

.text.HSMCI_IsDatLineBusy%410
                0x000000000040f6d0       0x20
 .text.HSMCI_IsDatLineBusy
                0x000000000040f6d0       0x20 build/sam_e70_xult/debug/_ext/719181653/plib_hsmci.o
                0x000000000040f6d0                HSMCI_IsDatLineBusy

.text.XDMAC_ChannelSettingsSet%411
                0x000000000040f6f0       0x20
 .text.XDMAC_ChannelSettingsSet
                0x000000000040f6f0       0x20 build/sam_e70_xult/debug/_ext/704852250/plib_xdmac.o
                0x000000000040f6f0                XDMAC_ChannelSettingsSet

.text.ld_clust%412
                0x000000000040f710       0x20
 .text.ld_clust
                0x000000000040f710       0x20 build/sam_e70_xult/debug/_ext/1043829778/ff.o

.text.SYS_FS_MEDIA_MANAGER_TransferTask%413
                0x000000000040f730       0x20
 .text.SYS_FS_MEDIA_MANAGER_TransferTask
                0x000000000040f730       0x20 build/sam_e70_xult/debug/_ext/1305476372/sys_fs_media_manager.o
                0x000000000040f730                SYS_FS_MEDIA_MANAGER_TransferTask

.rodata%414     0x000000000040f750       0x20
 .rodata        0x000000000040f750       0x20 build/sam_e70_xult/debug/_ext/1305476372/sys_fs_media_manager.o

.text.SYS_TIME_GetElapsedCount%415
                0x000000000040f770       0x20
 .text.SYS_TIME_GetElapsedCount
                0x000000000040f770       0x20 build/sam_e70_xult/debug/_ext/327803284/sys_time.o

.text.mast_encoder%416
                0x000000000040f790       0x20
 .text.mast_encoder
                0x000000000040f790       0x20 build/sam_e70_xult/debug/_ext/1360937237/app_mast_control.o
                0x000000000040f790                mast_encoder

.text._sbrk_r%417
                0x000000000040f7b0       0x20
 .text._sbrk_r  0x000000000040f7b0       0x20 c:/program files/microchip/xc32/v2.50/bin/bin/../../lib/gcc/pic32c/6.2.1/../../../../pic32c/lib/v7e-m/fpv5/hard\libg_nano.a(lib_a-sbrkr.o)
                0x000000000040f7b0                _sbrk_r

.rodata.atanhi%418
                0x000000000040f7d0       0x20
 .rodata.atanhi
                0x000000000040f7d0       0x20 c:/program files/microchip/xc32/v2.50/bin/bin/../../lib/gcc/pic32c/6.2.1/../../../../pic32c/lib/v7e-m/fpv5/hard\libm_nano.a(lib_a-s_atan.o)

.rodata.atanlo%419
                0x000000000040f7f0       0x20
 .rodata.atanlo
                0x000000000040f7f0       0x20 c:/program files/microchip/xc32/v2.50/bin/bin/../../lib/gcc/pic32c/6.2.1/../../../../pic32c/lib/v7e-m/fpv5/hard\libm_nano.a(lib_a-s_atan.o)

.text._DRV_USART_RX_DMA_CallbackHandler%420
                0x000000000040f810       0x1e
 .text._DRV_USART_RX_DMA_CallbackHandler
                0x000000000040f810       0x1e build/sam_e70_xult/debug/_ext/716655881/drv_usart.o

.text._DRV_USART_TX_DMA_CallbackHandler%421
                0x000000000040f82e       0x1e
 .text._DRV_USART_TX_DMA_CallbackHandler
                0x000000000040f82e       0x1e build/sam_e70_xult/debug/_ext/716655881/drv_usart.o

.text.OSAL_SEM_Pend%422
                0x000000000040f84c       0x1e
 .text.OSAL_SEM_Pend
                0x000000000040f84c       0x1e build/sam_e70_xult/debug/_ext/1613695899/osal_freertos.o
                0x000000000040f84c                OSAL_SEM_Pend

.text.OSAL_MUTEX_Lock%423
                0x000000000040f86a       0x1e
 .text.OSAL_MUTEX_Lock
                0x000000000040f86a       0x1e build/sam_e70_xult/debug/_ext/1613695899/osal_freertos.o
                0x000000000040f86a                OSAL_MUTEX_Lock

.text.sum_sfn%424
                0x000000000040f888       0x1e
 .text.sum_sfn  0x000000000040f888       0x1e build/sam_e70_xult/debug/_ext/1043829778/ff.o

.text.FATFS_close%425
                0x000000000040f8a6       0x1e
 .text.FATFS_close
                0x000000000040f8a6       0x1e build/sam_e70_xult/debug/_ext/1305476372/sys_fs_fat_interface.o
                0x000000000040f8a6                FATFS_close

.text.FATFS_closedir%426
                0x000000000040f8c4       0x1e
 .text.FATFS_closedir
                0x000000000040f8c4       0x1e build/sam_e70_xult/debug/_ext/1305476372/sys_fs_fat_interface.o
                0x000000000040f8c4                FATFS_closedir

.text.DRV_I2C_TransferSetup%427
                0x000000000040f8e2       0x1c
 .text.DRV_I2C_TransferSetup
                0x000000000040f8e2       0x1c build/sam_e70_xult/debug/_ext/957281314/drv_i2c.o
                0x000000000040f8e2                DRV_I2C_TransferSetup

.text.HSMCI_BlockSizeSet%428
                0x000000000040f900       0x1c
 .text.HSMCI_BlockSizeSet
                0x000000000040f900       0x1c build/sam_e70_xult/debug/_ext/719181653/plib_hsmci.o
                0x000000000040f900                HSMCI_BlockSizeSet

.text.PWM0_InterruptHandler%429
                0x000000000040f91c       0x1c
 .text.PWM0_InterruptHandler
                0x000000000040f91c       0x1c build/sam_e70_xult/debug/_ext/1055487991/plib_pwm0.o
                0x000000000040f91c                PWM0_InterruptHandler

.text.XDMAC_ChannelDisable%430
                0x000000000040f938       0x1c
 .text.XDMAC_ChannelDisable
                0x000000000040f938       0x1c build/sam_e70_xult/debug/_ext/704852250/plib_xdmac.o
                0x000000000040f938                XDMAC_ChannelDisable

.text._SYS_FS_MEDIA_MANAGER_HandleMediaDetach%431
                0x000000000040f954       0x1c
 .text._SYS_FS_MEDIA_MANAGER_HandleMediaDetach
                0x000000000040f954       0x1c build/sam_e70_xult/debug/_ext/1305476372/sys_fs_media_manager.o

.text.SYS_FS_MEDIA_MANAGER_GetMediaGeometry%432
                0x000000000040f970       0x1c
 .text.SYS_FS_MEDIA_MANAGER_GetMediaGeometry
                0x000000000040f970       0x1c build/sam_e70_xult/debug/_ext/1305476372/sys_fs_media_manager.o
                0x000000000040f970                SYS_FS_MEDIA_MANAGER_GetMediaGeometry

.text.FATFS_readdir%433
                0x000000000040f98c       0x1c
 .text.FATFS_readdir
                0x000000000040f98c       0x1c build/sam_e70_xult/debug/_ext/1305476372/sys_fs_fat_interface.o
                0x000000000040f98c                FATFS_readdir

.text.SYS_TIME_Counter64Update%434
                0x000000000040f9a8       0x1c
 .text.SYS_TIME_Counter64Update
                0x000000000040f9a8       0x1c build/sam_e70_xult/debug/_ext/327803284/sys_time.o

.rodata.sysTimePlibAPI%435
                0x000000000040f9c4       0x1c
 .rodata.sysTimePlibAPI
                0x000000000040f9c4       0x1c build/sam_e70_xult/debug/_ext/1728594169/initialization.o
                0x000000000040f9c4                sysTimePlibAPI

.text.vTaskPlaceOnEventList%436
                0x000000000040f9e0       0x1c
 .text.vTaskPlaceOnEventList
                0x000000000040f9e0       0x1c build/sam_e70_xult/debug/_ext/404212886/FreeRTOS_tasks.o
                0x000000000040f9e0                vTaskPlaceOnEventList

.text.pvTaskIncrementMutexHeldCount%437
                0x000000000040f9fc       0x1c
 .text.pvTaskIncrementMutexHeldCount
                0x000000000040f9fc       0x1c build/sam_e70_xult/debug/_ext/404212886/FreeRTOS_tasks.o
                0x000000000040f9fc                pvTaskIncrementMutexHeldCount

.rodata%438     0x000000000040fa18       0x1c
 .rodata        0x000000000040fa18       0x1c build/sam_e70_xult/debug/_ext/1360937237/app_communication.o

.text.strchr%439
                0x000000000040fa34       0x1c
 .text.strchr   0x000000000040fa34       0x1c c:/program files/microchip/xc32/v2.50/bin/bin/../../lib/gcc/pic32c/6.2.1/../../../../pic32c/lib/v7e-m/fpv5/hard\libg_nano.a(lib_a-strchr.o)
                0x000000000040fa34                strchr

.text._calloc_r%440
                0x000000000040fa50       0x1c
 .text._calloc_r
                0x000000000040fa50       0x1c c:/program files/microchip/xc32/v2.50/bin/bin/../../lib/gcc/pic32c/6.2.1/../../../../pic32c/lib/v7e-m/fpv5/hard\libg_nano.a(lib_a-nano-callocr.o)
                0x000000000040fa50                _calloc_r

.text.HSMCI_BusWidthSet%441
                0x000000000040fa6c       0x1a
 .text.HSMCI_BusWidthSet
                0x000000000040fa6c       0x1a build/sam_e70_xult/debug/_ext/719181653/plib_hsmci.o
                0x000000000040fa6c                HSMCI_BusWidthSet

.text.SYS_DMA_DataWidthSetup%442
                0x000000000040fa86       0x1a
 .text.SYS_DMA_DataWidthSetup
                0x000000000040fa86       0x1a build/sam_e70_xult/debug/_ext/984150034/sys_dma.o
                0x000000000040fa86                SYS_DMA_DataWidthSetup

.text.st_clust%443
                0x000000000040faa0       0x1a
 .text.st_clust
                0x000000000040faa0       0x1a build/sam_e70_xult/debug/_ext/1043829778/ff.o

.text.FATFS_stat%444
                0x000000000040faba       0x1a
 .text.FATFS_stat
                0x000000000040faba       0x1a build/sam_e70_xult/debug/_ext/1305476372/sys_fs_fat_interface.o
                0x000000000040faba                FATFS_stat

.text.Radio_Decode%445
                0x000000000040fad4       0x1a
 .text.Radio_Decode
                0x000000000040fad4       0x1a build/sam_e70_xult/debug/_ext/1360937237/app_communication.o
                0x000000000040fad4                Radio_Decode

.text.__ascii_wctomb%446
                0x000000000040faee       0x1a
 .text.__ascii_wctomb
                0x000000000040faee       0x1a c:/program files/microchip/xc32/v2.50/bin/bin/../../lib/gcc/pic32c/6.2.1/../../../../pic32c/lib/v7e-m/fpv5/hard\libg_nano.a(lib_a-wctomb_r.o)
                0x000000000040faee                __ascii_wctomb

.text.copysign%447
                0x000000000040fb08       0x1a
 .text.copysign
                0x000000000040fb08       0x1a c:/program files/microchip/xc32/v2.50/bin/bin/../../lib/gcc/pic32c/6.2.1/../../../../pic32c/lib/v7e-m/fpv5/hard\libm_nano.a(lib_a-s_copysign.o)
                0x000000000040fb08                copysign

.text.DRV_I2C_ReadTransfer%448
                0x000000000040fb22       0x18
 .text.DRV_I2C_ReadTransfer
                0x000000000040fb22       0x18 build/sam_e70_xult/debug/_ext/957281314/drv_i2c.o
                0x000000000040fb22                DRV_I2C_ReadTransfer

.text.OSAL_MUTEX_Create%449
                0x000000000040fb3a       0x18
 .text.OSAL_MUTEX_Create
                0x000000000040fb3a       0x18 build/sam_e70_xult/debug/_ext/1613695899/osal_freertos.o
                0x000000000040fb3a                OSAL_MUTEX_Create

.text.OSAL_MUTEX_Unlock%450
                0x000000000040fb52       0x18
 .text.OSAL_MUTEX_Unlock
                0x000000000040fb52       0x18 build/sam_e70_xult/debug/_ext/1613695899/osal_freertos.o
                0x000000000040fb52                OSAL_MUTEX_Unlock

.text.HSMCI_BlockCountSet%451
                0x000000000040fb6c       0x18
 .text.HSMCI_BlockCountSet
                0x000000000040fb6c       0x18 build/sam_e70_xult/debug/_ext/719181653/plib_hsmci.o
                0x000000000040fb6c                HSMCI_BlockCountSet

.text.HSMCI_Initialize%452
                0x000000000040fb84       0x18
 .text.HSMCI_Initialize
                0x000000000040fb84       0x18 build/sam_e70_xult/debug/_ext/719181653/plib_hsmci.o
                0x000000000040fb84                HSMCI_Initialize

.text.clst2sect%453
                0x000000000040fb9c       0x18
 .text.clst2sect
                0x000000000040fb9c       0x18 build/sam_e70_xult/debug/_ext/1043829778/ff.o

.text.SYS_TIME_DelayIsComplete%454
                0x000000000040fbb4       0x18
 .text.SYS_TIME_DelayIsComplete
                0x000000000040fbb4       0x18 build/sam_e70_xult/debug/_ext/327803284/sys_time.o
                0x000000000040fbb4                SYS_TIME_DelayIsComplete

.rodata.drvI2C0PLibAPI%455
                0x000000000040fbcc       0x18
 .rodata.drvI2C0PLibAPI
                0x000000000040fbcc       0x18 build/sam_e70_xult/debug/_ext/1728594169/initialization.o
                0x000000000040fbcc                drvI2C0PLibAPI

.rodata.drvUsart0remapParity%456
                0x000000000040fbe4       0x18
 .rodata.drvUsart0remapParity
                0x000000000040fbe4       0x18 build/sam_e70_xult/debug/_ext/1728594169/initialization.o
                0x000000000040fbe4                drvUsart0remapParity

.rodata.drvUsart1remapParity%457
                0x000000000040fbfc       0x18
 .rodata.drvUsart1remapParity
                0x000000000040fbfc       0x18 build/sam_e70_xult/debug/_ext/1728594169/initialization.o
                0x000000000040fbfc                drvUsart1remapParity

.rodata.drvUsart2remapParity%458
                0x000000000040fc14       0x18
 .rodata.drvUsart2remapParity
                0x000000000040fc14       0x18 build/sam_e70_xult/debug/_ext/1728594169/initialization.o
                0x000000000040fc14                drvUsart2remapParity

.text._DRV_SDMMC0_Tasks%459
                0x000000000040fc2c       0x18
 .text._DRV_SDMMC0_Tasks
                0x000000000040fc2c       0x18 build/sam_e70_xult/debug/_ext/1728594169/tasks.o
                0x000000000040fc2c                _DRV_SDMMC0_Tasks

.text.vListInsertEnd%460
                0x000000000040fc44       0x18
 .text.vListInsertEnd
                0x000000000040fc44       0x18 build/sam_e70_xult/debug/_ext/404212886/list.o
                0x000000000040fc44                vListInsertEnd

.text.vTaskInternalSetTimeOutState%461
                0x000000000040fc5c       0x18
 .text.vTaskInternalSetTimeOutState
                0x000000000040fc5c       0x18 build/sam_e70_xult/debug/_ext/404212886/FreeRTOS_tasks.o
                0x000000000040fc5c                vTaskInternalSetTimeOutState

.text.mast_reset%462
                0x000000000040fc74       0x18
 .text.mast_reset
                0x000000000040fc74       0x18 build/sam_e70_xult/debug/_ext/1360937237/app_mast_control.o
                0x000000000040fc74                mast_reset

.text.rudder_reset%463
                0x000000000040fc8c       0x18
 .text.rudder_reset
                0x000000000040fc8c       0x18 build/sam_e70_xult/debug/_ext/1360937237/app_rudder_control.o
                0x000000000040fc8c                rudder_reset

.text.HSMCI_SpeedModeSet%464
                0x000000000040fca4       0x16
 .text.HSMCI_SpeedModeSet
                0x000000000040fca4       0x16 build/sam_e70_xult/debug/_ext/719181653/plib_hsmci.o
                0x000000000040fca4                HSMCI_SpeedModeSet

.text.ld_dword%465
                0x000000000040fcba       0x16
 .text.ld_dword
                0x000000000040fcba       0x16 build/sam_e70_xult/debug/_ext/1043829778/ff.o

.text.vApplicationStackOverflowHook%466
                0x000000000040fcd0       0x16
 .text.vApplicationStackOverflowHook
                0x000000000040fcd0       0x16 build/sam_e70_xult/debug/_ext/1728594169/freertos_hooks.o
                0x000000000040fcd0                vApplicationStackOverflowHook

.text.vApplicationMallocFailedHook%467
                0x000000000040fce6       0x16
 .text.vApplicationMallocFailedHook
                0x000000000040fce6       0x16 build/sam_e70_xult/debug/_ext/1728594169/freertos_hooks.o
                0x000000000040fce6                vApplicationMallocFailedHook

.text.vListInitialise%468
                0x000000000040fcfc       0x16
 .text.vListInitialise
                0x000000000040fcfc       0x16 build/sam_e70_xult/debug/_ext/404212886/list.o
                0x000000000040fcfc                vListInitialise

.text.prvIsQueueEmpty%469
                0x000000000040fd12       0x16
 .text.prvIsQueueEmpty
                0x000000000040fd12       0x16 build/sam_e70_xult/debug/_ext/404212886/queue.o

.text.xQueueCreateCountingSemaphore%470
                0x000000000040fd28       0x16
 .text.xQueueCreateCountingSemaphore
                0x000000000040fd28       0x16 build/sam_e70_xult/debug/_ext/404212886/queue.o
                0x000000000040fd28                xQueueCreateCountingSemaphore

.text.memcpy%471
                0x000000000040fd3e       0x16
 .text.memcpy   0x000000000040fd3e       0x16 c:/program files/microchip/xc32/v2.50/bin/bin/../../lib/gcc/pic32c/6.2.1/../../../../pic32c/lib/v7e-m/fpv5/hard\libg_nano.a(lib_a-memcpy-stub.o)
                0x000000000040fd3e                memcpy

.text.DRV_SDMMC_RegisterWithSysFs%472
                0x000000000040fd54       0x14
 .text.DRV_SDMMC_RegisterWithSysFs
                0x000000000040fd54       0x14 build/sam_e70_xult/debug/_ext/1565510230/drv_sdmmc_file_system.o
                0x000000000040fd54                DRV_SDMMC_RegisterWithSysFs

.text.DRV_SDMMC_AsyncRead%473
                0x000000000040fd68       0x14
 .text.DRV_SDMMC_AsyncRead
                0x000000000040fd68       0x14 build/sam_e70_xult/debug/_ext/1565510230/drv_sdmmc.o
                0x000000000040fd68                DRV_SDMMC_AsyncRead

.text.DRV_SDMMC_AsyncWrite%474
                0x000000000040fd7c       0x14
 .text.DRV_SDMMC_AsyncWrite
                0x000000000040fd7c       0x14 build/sam_e70_xult/debug/_ext/1565510230/drv_sdmmc.o
                0x000000000040fd7c                DRV_SDMMC_AsyncWrite

.text.USART1_ErrorGet%475
                0x000000000040fd90       0x14
 .text.USART1_ErrorGet
                0x000000000040fd90       0x14 build/sam_e70_xult/debug/_ext/707186936/plib_usart1.o
                0x000000000040fd90                USART1_ErrorGet

.text.USART0_ErrorGet%476
                0x000000000040fda4       0x14
 .text.USART0_ErrorGet
                0x000000000040fda4       0x14 build/sam_e70_xult/debug/_ext/707186936/plib_usart0.o
                0x000000000040fda4                USART0_ErrorGet

.text.USART2_ErrorGet%477
                0x000000000040fdb8       0x14
 .text.USART2_ErrorGet
                0x000000000040fdb8       0x14 build/sam_e70_xult/debug/_ext/707186936/plib_usart2.o
                0x000000000040fdb8                USART2_ErrorGet

.text.mem_cpy%478
                0x000000000040fdcc       0x14
 .text.mem_cpy  0x000000000040fdcc       0x14 build/sam_e70_xult/debug/_ext/1043829778/ff.o

.rodata.badchr.8552%479
                0x000000000040fde0       0x14
 .rodata.badchr.8552
                0x000000000040fde0       0x14 build/sam_e70_xult/debug/_ext/1043829778/ff.o

.rodata.drvUsart0remapDataWidth%480
                0x000000000040fdf4       0x14
 .rodata.drvUsart0remapDataWidth
                0x000000000040fdf4       0x14 build/sam_e70_xult/debug/_ext/1728594169/initialization.o
                0x000000000040fdf4                drvUsart0remapDataWidth

.rodata.drvUsart1remapDataWidth%481
                0x000000000040fe08       0x14
 .rodata.drvUsart1remapDataWidth
                0x000000000040fe08       0x14 build/sam_e70_xult/debug/_ext/1728594169/initialization.o
                0x000000000040fe08                drvUsart1remapDataWidth

.rodata.drvUsart2remapDataWidth%482
                0x000000000040fe1c       0x14
 .rodata.drvUsart2remapDataWidth
                0x000000000040fe1c       0x14 build/sam_e70_xult/debug/_ext/1728594169/initialization.o
                0x000000000040fe1c                drvUsart2remapDataWidth

.text.vPortEnableVFP%483
                0x000000000040fe30       0x14
 .text.vPortEnableVFP
                0x000000000040fe30       0x14 build/sam_e70_xult/debug/_ext/977623654/port.o

.text.vPortExitCritical%484
                0x000000000040fe44       0x14
 .text.vPortExitCritical
                0x000000000040fe44       0x14 build/sam_e70_xult/debug/_ext/977623654/port.o
                0x000000000040fe44                vPortExitCritical

.rodata.fpi.7286%485
                0x000000000040fe58       0x14
 .rodata.fpi.7286
                0x000000000040fe58       0x14 c:/program files/microchip/xc32/v2.50/bin/bin/../../lib/gcc/pic32c/6.2.1/../../../../pic32c/lib/v7e-m/fpv5/hard\libg_nano.a(lib_a-strtod.o)

.rodata.fpinan.7322%486
                0x000000000040fe6c       0x14
 .rodata.fpinan.7322
                0x000000000040fe6c       0x14 c:/program files/microchip/xc32/v2.50/bin/bin/../../lib/gcc/pic32c/6.2.1/../../../../pic32c/lib/v7e-m/fpv5/hard\libg_nano.a(lib_a-strtod.o)

.text.NVIC_INT_Disable%487
                0x000000000040fe80       0x12
 .text.NVIC_INT_Disable
                0x000000000040fe80       0x12 build/sam_e70_xult/debug/_ext/1639550079/plib_nvic.o
                0x000000000040fe80                NVIC_INT_Disable

.text.NVIC_INT_Restore%488
                0x000000000040fe92       0x12
 .text.NVIC_INT_Restore
                0x000000000040fe92       0x12 build/sam_e70_xult/debug/_ext/1639550079/plib_nvic.o
                0x000000000040fe92                NVIC_INT_Restore

.text.__i2b%489
                0x000000000040fea4       0x12
 .text.__i2b    0x000000000040fea4       0x12 c:/program files/microchip/xc32/v2.50/bin/bin/../../lib/gcc/pic32c/6.2.1/../../../../pic32c/lib/v7e-m/fpv5/hard\libg_nano.a(lib_a-mprec.o)
                0x000000000040fea4                __i2b

.text._DRV_USART_TX_PLIB_CallbackHandler%490
                0x000000000040feb6       0x10
 .text._DRV_USART_TX_PLIB_CallbackHandler
                0x000000000040feb6       0x10 build/sam_e70_xult/debug/_ext/716655881/drv_usart.o

.text.EFC_Initialize%491
                0x000000000040fec8       0x10
 .text.EFC_Initialize
                0x000000000040fec8       0x10 build/sam_e70_xult/debug/_ext/1055499099/plib_efc.o
                0x000000000040fec8                EFC_Initialize

.text.HSMCI_CommandErrorGet%492
                0x000000000040fed8       0x10
 .text.HSMCI_CommandErrorGet
                0x000000000040fed8       0x10 build/sam_e70_xult/debug/_ext/719181653/plib_hsmci.o
                0x000000000040fed8                HSMCI_CommandErrorGet

.text.HSMCI_DataErrorGet%493
                0x000000000040fee8       0x10
 .text.HSMCI_DataErrorGet
                0x000000000040fee8       0x10 build/sam_e70_xult/debug/_ext/719181653/plib_hsmci.o
                0x000000000040fee8                HSMCI_DataErrorGet

.text.HSMCI_IsCmdLineBusy%494
                0x000000000040fef8       0x10
 .text.HSMCI_IsCmdLineBusy
                0x000000000040fef8       0x10 build/sam_e70_xult/debug/_ext/719181653/plib_hsmci.o
                0x000000000040fef8                HSMCI_IsCmdLineBusy

.text.HSMCI_CallbackRegister%495
                0x000000000040ff08       0x10
 .text.HSMCI_CallbackRegister
                0x000000000040ff08       0x10 build/sam_e70_xult/debug/_ext/719181653/plib_hsmci.o
                0x000000000040ff08                HSMCI_CallbackRegister

.text.PIOA_InterruptHandler%496
                0x000000000040ff18       0x10
 .text.PIOA_InterruptHandler
                0x000000000040ff18       0x10 build/sam_e70_xult/debug/_ext/1055488423/plib_pio.o
                0x000000000040ff18                PIOA_InterruptHandler

.text.PIOB_InterruptHandler%497
                0x000000000040ff28       0x10
 .text.PIOB_InterruptHandler
                0x000000000040ff28       0x10 build/sam_e70_xult/debug/_ext/1055488423/plib_pio.o
                0x000000000040ff28                PIOB_InterruptHandler

.text.PIOD_InterruptHandler%498
                0x000000000040ff38       0x10
 .text.PIOD_InterruptHandler
                0x000000000040ff38       0x10 build/sam_e70_xult/debug/_ext/1055488423/plib_pio.o
                0x000000000040ff38                PIOD_InterruptHandler

.text.TWIHS0_CallbackRegister%499
                0x000000000040ff48       0x10
 .text.TWIHS0_CallbackRegister
                0x000000000040ff48       0x10 build/sam_e70_xult/debug/_ext/1539215101/plib_twihs0_master.o
                0x000000000040ff48                TWIHS0_CallbackRegister

.text.TWIHS0_ErrorGet%500
                0x000000000040ff58       0x10
 .text.TWIHS0_ErrorGet
                0x000000000040ff58       0x10 build/sam_e70_xult/debug/_ext/1539215101/plib_twihs0_master.o
                0x000000000040ff58                TWIHS0_ErrorGet

.text.XDMAC_ChannelCallbackRegister%501
                0x000000000040ff68       0x10
 .text.XDMAC_ChannelCallbackRegister
                0x000000000040ff68       0x10 build/sam_e70_xult/debug/_ext/704852250/plib_xdmac.o
                0x000000000040ff68                XDMAC_ChannelCallbackRegister

.text.st_dword%502
                0x000000000040ff78       0x10
 .text.st_dword
                0x000000000040ff78       0x10 build/sam_e70_xult/debug/_ext/1043829778/ff.o

.rodata.LfnOfs%503
                0x000000000040ff88       0x10
 .rodata.LfnOfs
                0x000000000040ff88       0x10 build/sam_e70_xult/debug/_ext/1043829778/ff.o

.rodata.cst.8589%504
                0x000000000040ff98       0x10
 .rodata.cst.8589
                0x000000000040ff98       0x10 build/sam_e70_xult/debug/_ext/1043829778/ff.o

.rodata.cst32.8590%505
                0x000000000040ffa8       0x10
 .rodata.cst32.8590
                0x000000000040ffa8       0x10 build/sam_e70_xult/debug/_ext/1043829778/ff.o

.rodata.defopt.8591%506
                0x000000000040ffb8       0x10
 .rodata.defopt.8591
                0x000000000040ffb8       0x10 build/sam_e70_xult/debug/_ext/1043829778/ff.o

.text.disk_initialize%507
                0x000000000040ffc8       0x10
 .text.disk_initialize
                0x000000000040ffc8       0x10 build/sam_e70_xult/debug/_ext/1893760823/diskio.o
                0x000000000040ffc8                disk_initialize

.rodata.drvI2C0InitData%508
                0x000000000040ffd8       0x10
 .rodata.drvI2C0InitData
                0x000000000040ffd8       0x10 build/sam_e70_xult/debug/_ext/1728594169/initialization.o
                0x000000000040ffd8                drvI2C0InitData

.text._SYS_FS_Tasks%509
                0x000000000040ffe8       0x10
 .text._SYS_FS_Tasks
                0x000000000040ffe8       0x10 build/sam_e70_xult/debug/_ext/1728594169/tasks.o
                0x000000000040ffe8                _SYS_FS_Tasks

.text.vTaskSuspendAll%510
                0x000000000040fff8       0x10
 .text.vTaskSuspendAll
                0x000000000040fff8       0x10 build/sam_e70_xult/debug/_ext/404212886/FreeRTOS_tasks.o
                0x000000000040fff8                vTaskSuspendAll

.text.malloc%511
                0x0000000000410008       0x10
 .text.malloc   0x0000000000410008       0x10 c:/program files/microchip/xc32/v2.50/bin/bin/../../lib/gcc/pic32c/6.2.1/../../../../pic32c/lib/v7e-m/fpv5/hard\libg_nano.a(lib_a-malloc.o)
                0x0000000000410008                malloc

.text.memset%512
                0x0000000000410018       0x10
 .text.memset   0x0000000000410018       0x10 c:/program files/microchip/xc32/v2.50/bin/bin/../../lib/gcc/pic32c/6.2.1/../../../../pic32c/lib/v7e-m/fpv5/hard\libg_nano.a(lib_a-memset.o)
                0x0000000000410018                memset

.text.strcpy%513
                0x0000000000410028       0x10
 .text.strcpy   0x0000000000410028       0x10 c:/program files/microchip/xc32/v2.50/bin/bin/../../lib/gcc/pic32c/6.2.1/../../../../pic32c/lib/v7e-m/fpv5/hard\libg_nano.a(lib_a-strcpy.o)
                0x0000000000410028                strcpy

.text%514       0x0000000000410038       0x10
 .text          0x0000000000410038       0x10 c:/program files/microchip/xc32/v2.50/bin/bin/../../lib/gcc/pic32c/6.2.1/../../../../pic32c/lib/v7e-m/fpv5/hard\libg_nano.a(lib_a-strlen.o)
                0x0000000000410038                strlen

.rodata.init_jk%515
                0x0000000000410048       0x10
 .rodata.init_jk
                0x0000000000410048       0x10 c:/program files/microchip/xc32/v2.50/bin/bin/../../lib/gcc/pic32c/6.2.1/../../../../pic32c/lib/v7e-m/fpv5/hard\libm_nano.a(lib_a-k_rem_pio2.o)

.text.FATFS_eof%516
                0x0000000000410058        0xe
 .text.FATFS_eof
                0x0000000000410058        0xe build/sam_e70_xult/debug/_ext/1305476372/sys_fs_fat_interface.o
                0x0000000000410058                FATFS_eof

.text.main%517  0x0000000000410066        0xe
 .text.main     0x0000000000410066        0xe build/sam_e70_xult/debug/_ext/1360937237/main.o
                0x0000000000410066                main

.text.fabs%518  0x0000000000410074        0xe
 .text.fabs     0x0000000000410074        0xe c:/program files/microchip/xc32/v2.50/bin/bin/../../lib/gcc/pic32c/6.2.1/../../../../pic32c/lib/v7e-m/fpv5/hard\libm_nano.a(lib_a-s_fabs.o)
                0x0000000000410074                fabs

.text.PWM0_ChannelsStart%519
                0x0000000000410084        0xc
 .text.PWM0_ChannelsStart
                0x0000000000410084        0xc build/sam_e70_xult/debug/_ext/1055487991/plib_pwm0.o
                0x0000000000410084                PWM0_ChannelsStart

.text.TC3_CH0_TimerStart%520
                0x0000000000410090        0xc
 .text.TC3_CH0_TimerStart
                0x0000000000410090        0xc build/sam_e70_xult/debug/_ext/865331892/plib_tc3.o
                0x0000000000410090                TC3_CH0_TimerStart

.text.TC3_CH0_TimerStop%521
                0x000000000041009c        0xc
 .text.TC3_CH0_TimerStop
                0x000000000041009c        0xc build/sam_e70_xult/debug/_ext/865331892/plib_tc3.o
                0x000000000041009c                TC3_CH0_TimerStop

.text.TC3_CH0_TimerPeriodSet%522
                0x00000000004100a8        0xc
 .text.TC3_CH0_TimerPeriodSet
                0x00000000004100a8        0xc build/sam_e70_xult/debug/_ext/865331892/plib_tc3.o
                0x00000000004100a8                TC3_CH0_TimerPeriodSet

.text.TC3_CH0_TimerCompareSet%523
                0x00000000004100b4        0xc
 .text.TC3_CH0_TimerCompareSet
                0x00000000004100b4        0xc build/sam_e70_xult/debug/_ext/865331892/plib_tc3.o
                0x00000000004100b4                TC3_CH0_TimerCompareSet

.text.TC3_CH0_TimerCounterGet%524
                0x00000000004100c0        0xc
 .text.TC3_CH0_TimerCounterGet
                0x00000000004100c0        0xc build/sam_e70_xult/debug/_ext/865331892/plib_tc3.o
                0x00000000004100c0                TC3_CH0_TimerCounterGet

.text.TC3_CH0_TimerCallbackRegister%525
                0x00000000004100cc        0xc
 .text.TC3_CH0_TimerCallbackRegister
                0x00000000004100cc        0xc build/sam_e70_xult/debug/_ext/865331892/plib_tc3.o
                0x00000000004100cc                TC3_CH0_TimerCallbackRegister

.text.USART1_WriteCallbackRegister%526
                0x00000000004100d8        0xc
 .text.USART1_WriteCallbackRegister
                0x00000000004100d8        0xc build/sam_e70_xult/debug/_ext/707186936/plib_usart1.o
                0x00000000004100d8                USART1_WriteCallbackRegister

.text.USART1_ReadCallbackRegister%527
                0x00000000004100e4        0xc
 .text.USART1_ReadCallbackRegister
                0x00000000004100e4        0xc build/sam_e70_xult/debug/_ext/707186936/plib_usart1.o
                0x00000000004100e4                USART1_ReadCallbackRegister

.text.USART1_WriteIsBusy%528
                0x00000000004100f0        0xc
 .text.USART1_WriteIsBusy
                0x00000000004100f0        0xc build/sam_e70_xult/debug/_ext/707186936/plib_usart1.o
                0x00000000004100f0                USART1_WriteIsBusy

.text.USART1_ReadIsBusy%529
                0x00000000004100fc        0xc
 .text.USART1_ReadIsBusy
                0x00000000004100fc        0xc build/sam_e70_xult/debug/_ext/707186936/plib_usart1.o
                0x00000000004100fc                USART1_ReadIsBusy

.text.USART1_WriteCountGet%530
                0x0000000000410108        0xc
 .text.USART1_WriteCountGet
                0x0000000000410108        0xc build/sam_e70_xult/debug/_ext/707186936/plib_usart1.o
                0x0000000000410108                USART1_WriteCountGet

.text.USART1_ReadCountGet%531
                0x0000000000410114        0xc
 .text.USART1_ReadCountGet
                0x0000000000410114        0xc build/sam_e70_xult/debug/_ext/707186936/plib_usart1.o
                0x0000000000410114                USART1_ReadCountGet

.text.USART0_WriteCallbackRegister%532
                0x0000000000410120        0xc
 .text.USART0_WriteCallbackRegister
                0x0000000000410120        0xc build/sam_e70_xult/debug/_ext/707186936/plib_usart0.o
                0x0000000000410120                USART0_WriteCallbackRegister

.text.USART0_ReadCallbackRegister%533
                0x000000000041012c        0xc
 .text.USART0_ReadCallbackRegister
                0x000000000041012c        0xc build/sam_e70_xult/debug/_ext/707186936/plib_usart0.o
                0x000000000041012c                USART0_ReadCallbackRegister

.text.USART0_WriteIsBusy%534
                0x0000000000410138        0xc
 .text.USART0_WriteIsBusy
                0x0000000000410138        0xc build/sam_e70_xult/debug/_ext/707186936/plib_usart0.o
                0x0000000000410138                USART0_WriteIsBusy

.text.USART0_ReadIsBusy%535
                0x0000000000410144        0xc
 .text.USART0_ReadIsBusy
                0x0000000000410144        0xc build/sam_e70_xult/debug/_ext/707186936/plib_usart0.o
                0x0000000000410144                USART0_ReadIsBusy

.text.USART0_WriteCountGet%536
                0x0000000000410150        0xc
 .text.USART0_WriteCountGet
                0x0000000000410150        0xc build/sam_e70_xult/debug/_ext/707186936/plib_usart0.o
                0x0000000000410150                USART0_WriteCountGet

.text.USART0_ReadCountGet%537
                0x000000000041015c        0xc
 .text.USART0_ReadCountGet
                0x000000000041015c        0xc build/sam_e70_xult/debug/_ext/707186936/plib_usart0.o
                0x000000000041015c                USART0_ReadCountGet

.text.USART2_WriteCallbackRegister%538
                0x0000000000410168        0xc
 .text.USART2_WriteCallbackRegister
                0x0000000000410168        0xc build/sam_e70_xult/debug/_ext/707186936/plib_usart2.o
                0x0000000000410168                USART2_WriteCallbackRegister

.text.USART2_ReadCallbackRegister%539
                0x0000000000410174        0xc
 .text.USART2_ReadCallbackRegister
                0x0000000000410174        0xc build/sam_e70_xult/debug/_ext/707186936/plib_usart2.o
                0x0000000000410174                USART2_ReadCallbackRegister

.text.USART2_WriteIsBusy%540
                0x0000000000410180        0xc
 .text.USART2_WriteIsBusy
                0x0000000000410180        0xc build/sam_e70_xult/debug/_ext/707186936/plib_usart2.o
                0x0000000000410180                USART2_WriteIsBusy

.text.USART2_ReadIsBusy%541
                0x000000000041018c        0xc
 .text.USART2_ReadIsBusy
                0x000000000041018c        0xc build/sam_e70_xult/debug/_ext/707186936/plib_usart2.o
                0x000000000041018c                USART2_ReadIsBusy

.text.USART2_WriteCountGet%542
                0x0000000000410198        0xc
 .text.USART2_WriteCountGet
                0x0000000000410198        0xc build/sam_e70_xult/debug/_ext/707186936/plib_usart2.o
                0x0000000000410198                USART2_WriteCountGet

.text.USART2_ReadCountGet%543
                0x00000000004101a4        0xc
 .text.USART2_ReadCountGet
                0x00000000004101a4        0xc build/sam_e70_xult/debug/_ext/707186936/plib_usart2.o
                0x00000000004101a4                USART2_ReadCountGet

.text.XDMAC_ChannelSettingsGet%544
                0x00000000004101b0        0xc
 .text.XDMAC_ChannelSettingsGet
                0x00000000004101b0        0xc build/sam_e70_xult/debug/_ext/704852250/plib_xdmac.o
                0x00000000004101b0                XDMAC_ChannelSettingsGet

.text.mem_set%545
                0x00000000004101bc        0xc
 .text.mem_set  0x00000000004101bc        0xc build/sam_e70_xult/debug/_ext/1043829778/ff.o

.text.SYS_FS_MEDIA_MANAGER_RegisterTransferHandler%546
                0x00000000004101c8        0xc
 .text.SYS_FS_MEDIA_MANAGER_RegisterTransferHandler
                0x00000000004101c8        0xc build/sam_e70_xult/debug/_ext/1305476372/sys_fs_media_manager.o
                0x00000000004101c8                SYS_FS_MEDIA_MANAGER_RegisterTransferHandler

.text.FATFS_error%547
                0x00000000004101d4        0xc
 .text.FATFS_error
                0x00000000004101d4        0xc build/sam_e70_xult/debug/_ext/1305476372/sys_fs_fat_interface.o
                0x00000000004101d4                FATFS_error

.rodata.drvUsart0remapError%548
                0x00000000004101e0        0xc
 .rodata.drvUsart0remapError
                0x00000000004101e0        0xc build/sam_e70_xult/debug/_ext/1728594169/initialization.o
                0x00000000004101e0                drvUsart0remapError

.rodata.drvUsart0remapStopBits%549
                0x00000000004101ec        0xc
 .rodata.drvUsart0remapStopBits
                0x00000000004101ec        0xc build/sam_e70_xult/debug/_ext/1728594169/initialization.o
                0x00000000004101ec                drvUsart0remapStopBits

.rodata.drvUsart1remapError%550
                0x00000000004101f8        0xc
 .rodata.drvUsart1remapError
                0x00000000004101f8        0xc build/sam_e70_xult/debug/_ext/1728594169/initialization.o
                0x00000000004101f8                drvUsart1remapError

.rodata.drvUsart1remapStopBits%551
                0x0000000000410204        0xc
 .rodata.drvUsart1remapStopBits
                0x0000000000410204        0xc build/sam_e70_xult/debug/_ext/1728594169/initialization.o
                0x0000000000410204                drvUsart1remapStopBits

.rodata.drvUsart2remapError%552
                0x0000000000410210        0xc
 .rodata.drvUsart2remapError
                0x0000000000410210        0xc build/sam_e70_xult/debug/_ext/1728594169/initialization.o
                0x0000000000410210                drvUsart2remapError

.rodata.drvUsart2remapStopBits%553
                0x000000000041021c        0xc
 .rodata.drvUsart2remapStopBits
                0x000000000041021c        0xc build/sam_e70_xult/debug/_ext/1728594169/initialization.o
                0x000000000041021c                drvUsart2remapStopBits

.rodata.sysfsMountTable%554
                0x0000000000410228        0xc
 .rodata.sysfsMountTable
                0x0000000000410228        0xc build/sam_e70_xult/debug/_ext/1728594169/initialization.o
                0x0000000000410228                sysfsMountTable

.text.vTaskMissedYield%555
                0x0000000000410234        0xc
 .text.vTaskMissedYield
                0x0000000000410234        0xc build/sam_e70_xult/debug/_ext/404212886/FreeRTOS_tasks.o
                0x0000000000410234                vTaskMissedYield

.text.APP_COMMUNICATION_Initialize%556
                0x0000000000410240        0xc
 .text.APP_COMMUNICATION_Initialize
                0x0000000000410240        0xc build/sam_e70_xult/debug/_ext/1360937237/app_communication.o
                0x0000000000410240                APP_COMMUNICATION_Initialize

.text.APP_COURSE_ALGORITHM_Initialize%557
                0x000000000041024c        0xc
 .text.APP_COURSE_ALGORITHM_Initialize
                0x000000000041024c        0xc build/sam_e70_xult/debug/_ext/1360937237/app_course_algorithm.o
                0x000000000041024c                APP_COURSE_ALGORITHM_Initialize

.text.APP_ANEMOMETER_Initialize%558
                0x0000000000410258        0xc
 .text.APP_ANEMOMETER_Initialize
                0x0000000000410258        0xc build/sam_e70_xult/debug/_ext/1360937237/app_anemometer.o
                0x0000000000410258                APP_ANEMOMETER_Initialize

.text.APP_GPS_Initialize%559
                0x0000000000410264        0xc
 .text.APP_GPS_Initialize
                0x0000000000410264        0xc build/sam_e70_xult/debug/_ext/1360937237/app_gps.o
                0x0000000000410264                APP_GPS_Initialize

.text.APP_IMU_Initialize%560
                0x0000000000410270        0xc
 .text.APP_IMU_Initialize
                0x0000000000410270        0xc build/sam_e70_xult/debug/_ext/1360937237/app_imu.o
                0x0000000000410270                APP_IMU_Initialize

.rodata%561     0x000000000041027c        0xc
 .rodata        0x000000000041027c        0xc c:/program files/microchip/xc32/v2.50/bin/bin/../../lib/gcc/pic32c/6.2.1/../../../../pic32c/lib/v7e-m/fpv5/hard\libg_nano.a(lib_a-strtod.o)

.rodata.p05.7204%562
                0x0000000000410288        0xc
 .rodata.p05.7204
                0x0000000000410288        0xc c:/program files/microchip/xc32/v2.50/bin/bin/../../lib/gcc/pic32c/6.2.1/../../../../pic32c/lib/v7e-m/fpv5/hard\libg_nano.a(lib_a-mprec.o)

.text.__errno%563
                0x0000000000410294        0xc
 .text.__errno  0x0000000000410294        0xc c:/program files/microchip/xc32/v2.50/bin/bin/../../lib/gcc/pic32c/6.2.1/../../../../pic32c/lib/v7e-m/fpv5/hard\libc_nano.a(lib_a-errno.o)
                0x0000000000410294                __errno

.rodata%564     0x00000000004102a0        0xb
 .rodata        0x00000000004102a0        0xb c:/program files/microchip/xc32/v2.50/bin/bin/../../lib/gcc/pic32c/6.2.1/../../../../pic32c/lib/v7e-m/fpv5/hard\libg_nano.a(lib_a-locale.o)

.text.FATFS_read%565
                0x00000000004102ac        0xa
 .text.FATFS_read
                0x00000000004102ac        0xa build/sam_e70_xult/debug/_ext/1305476372/sys_fs_fat_interface.o
                0x00000000004102ac                FATFS_read

.text.FATFS_lseek%566
                0x00000000004102b6        0xa
 .text.FATFS_lseek
                0x00000000004102b6        0xa build/sam_e70_xult/debug/_ext/1305476372/sys_fs_fat_interface.o
                0x00000000004102b6                FATFS_lseek

.text.FATFS_gets%567
                0x00000000004102c0        0xa
 .text.FATFS_gets
                0x00000000004102c0        0xa build/sam_e70_xult/debug/_ext/1305476372/sys_fs_fat_interface.o
                0x00000000004102c0                FATFS_gets

.text.FATFS_write%568
                0x00000000004102ca        0xa
 .text.FATFS_write
                0x00000000004102ca        0xa build/sam_e70_xult/debug/_ext/1305476372/sys_fs_fat_interface.o
                0x00000000004102ca                FATFS_write

.text.FATFS_truncate%569
                0x00000000004102d4        0xa
 .text.FATFS_truncate
                0x00000000004102d4        0xa build/sam_e70_xult/debug/_ext/1305476372/sys_fs_fat_interface.o
                0x00000000004102d4                FATFS_truncate

.text.FATFS_sync%570
                0x00000000004102de        0xa
 .text.FATFS_sync
                0x00000000004102de        0xa build/sam_e70_xult/debug/_ext/1305476372/sys_fs_fat_interface.o
                0x00000000004102de                FATFS_sync

.text.FATFS_putc%571
                0x00000000004102e8        0xa
 .text.FATFS_putc
                0x00000000004102e8        0xa build/sam_e70_xult/debug/_ext/1305476372/sys_fs_fat_interface.o
                0x00000000004102e8                FATFS_putc

.text.FATFS_puts%572
                0x00000000004102f2        0xa
 .text.FATFS_puts
                0x00000000004102f2        0xa build/sam_e70_xult/debug/_ext/1305476372/sys_fs_fat_interface.o
                0x00000000004102f2                FATFS_puts

.text.FATFS_printf%573
                0x00000000004102fc        0xa
 .text.FATFS_printf
                0x00000000004102fc        0xa build/sam_e70_xult/debug/_ext/1305476372/sys_fs_fat_interface.o
                0x00000000004102fc                FATFS_printf

.text.TC3_CH0_TimerFrequencyGet%574
                0x0000000000410308        0x8
 .text.TC3_CH0_TimerFrequencyGet
                0x0000000000410308        0x8 build/sam_e70_xult/debug/_ext/865331892/plib_tc3.o
                0x0000000000410308                TC3_CH0_TimerFrequencyGet

.text.SYS_FS_Tasks%575
                0x0000000000410310        0x8
 .text.SYS_FS_Tasks
                0x0000000000410310        0x8 build/sam_e70_xult/debug/_ext/1305476372/sys_fs.o
                0x0000000000410310                SYS_FS_Tasks

.rodata.gPartitionTypeOffset%576
                0x0000000000410318        0x8
 .rodata.gPartitionTypeOffset
                0x0000000000410318        0x8 build/sam_e70_xult/debug/_ext/1305476372/sys_fs_media_manager.o
                0x0000000000410318                gPartitionTypeOffset

.text.FATFS_getlabel%577
                0x0000000000410320        0x8
 .text.FATFS_getlabel
                0x0000000000410320        0x8 build/sam_e70_xult/debug/_ext/1305476372/sys_fs_fat_interface.o
                0x0000000000410320                FATFS_getlabel

.text.FATFS_getcwd%578
                0x0000000000410328        0x8
 .text.FATFS_getcwd
                0x0000000000410328        0x8 build/sam_e70_xult/debug/_ext/1305476372/sys_fs_fat_interface.o
                0x0000000000410328                FATFS_getcwd

.text.FATFS_chdir%579
                0x0000000000410330        0x8
 .text.FATFS_chdir
                0x0000000000410330        0x8 build/sam_e70_xult/debug/_ext/1305476372/sys_fs_fat_interface.o
                0x0000000000410330                FATFS_chdir

.text.FATFS_mkdir%580
                0x0000000000410338        0x8
 .text.FATFS_mkdir
                0x0000000000410338        0x8 build/sam_e70_xult/debug/_ext/1305476372/sys_fs_fat_interface.o
                0x0000000000410338                FATFS_mkdir

.text.FATFS_unlink%581
                0x0000000000410340        0x8
 .text.FATFS_unlink
                0x0000000000410340        0x8 build/sam_e70_xult/debug/_ext/1305476372/sys_fs_fat_interface.o
                0x0000000000410340                FATFS_unlink

.text.FATFS_setlabel%582
                0x0000000000410348        0x8
 .text.FATFS_setlabel
                0x0000000000410348        0x8 build/sam_e70_xult/debug/_ext/1305476372/sys_fs_fat_interface.o
                0x0000000000410348                FATFS_setlabel

.text.FATFS_chmod%583
                0x0000000000410350        0x8
 .text.FATFS_chmod
                0x0000000000410350        0x8 build/sam_e70_xult/debug/_ext/1305476372/sys_fs_fat_interface.o
                0x0000000000410350                FATFS_chmod

.text.FATFS_utime%584
                0x0000000000410358        0x8
 .text.FATFS_utime
                0x0000000000410358        0x8 build/sam_e70_xult/debug/_ext/1305476372/sys_fs_fat_interface.o
                0x0000000000410358                FATFS_utime

.text.FATFS_rename%585
                0x0000000000410360        0x8
 .text.FATFS_rename
                0x0000000000410360        0x8 build/sam_e70_xult/debug/_ext/1305476372/sys_fs_fat_interface.o
                0x0000000000410360                FATFS_rename

.text.FATFS_fdisk%586
                0x0000000000410368        0x8
 .text.FATFS_fdisk
                0x0000000000410368        0x8 build/sam_e70_xult/debug/_ext/1305476372/sys_fs_fat_interface.o
                0x0000000000410368                FATFS_fdisk

.text.SYS_INT_Disable%587
                0x0000000000410370        0x8
 .text.SYS_INT_Disable
                0x0000000000410370        0x8 build/sam_e70_xult/debug/_ext/766002106/sys_int.o
                0x0000000000410370                SYS_INT_Disable

.text.SYS_INT_Restore%588
                0x0000000000410378        0x8
 .text.SYS_INT_Restore
                0x0000000000410378        0x8 build/sam_e70_xult/debug/_ext/766002106/sys_int.o
                0x0000000000410378                SYS_INT_Restore

.rodata.sysFSInit%589
                0x0000000000410380        0x8
 .rodata.sysFSInit
                0x0000000000410380        0x8 build/sam_e70_xult/debug/_ext/1728594169/initialization.o
                0x0000000000410380                sysFSInit

.rodata.sysTimeInitData%590
                0x0000000000410388        0x8
 .rodata.sysTimeInitData
                0x0000000000410388        0x8 build/sam_e70_xult/debug/_ext/1728594169/initialization.o
                0x0000000000410388                sysTimeInitData

.text._APP_ANEMOMETER_Tasks%591
                0x0000000000410390        0x8
 .text._APP_ANEMOMETER_Tasks
                0x0000000000410390        0x8 build/sam_e70_xult/debug/_ext/1728594169/tasks.o
                0x0000000000410390                _APP_ANEMOMETER_Tasks

.text._APP_COMMUNICATION_Tasks%592
                0x0000000000410398        0x8
 .text._APP_COMMUNICATION_Tasks
                0x0000000000410398        0x8 build/sam_e70_xult/debug/_ext/1728594169/tasks.o
                0x0000000000410398                _APP_COMMUNICATION_Tasks

.text._APP_MAST_CONTROL_Tasks%593
                0x00000000004103a0        0x8
 .text._APP_MAST_CONTROL_Tasks
                0x00000000004103a0        0x8 build/sam_e70_xult/debug/_ext/1728594169/tasks.o
                0x00000000004103a0                _APP_MAST_CONTROL_Tasks

.text._APP_COURSE_ALGORITHM_Tasks%594
                0x00000000004103a8        0x8
 .text._APP_COURSE_ALGORITHM_Tasks
                0x00000000004103a8        0x8 build/sam_e70_xult/debug/_ext/1728594169/tasks.o
                0x00000000004103a8                _APP_COURSE_ALGORITHM_Tasks

.text._APP_RUDDER_CONTROL_Tasks%595
                0x00000000004103b0        0x8
 .text._APP_RUDDER_CONTROL_Tasks
                0x00000000004103b0        0x8 build/sam_e70_xult/debug/_ext/1728594169/tasks.o
                0x00000000004103b0                _APP_RUDDER_CONTROL_Tasks

.text._APP_GPS_Tasks%596
                0x00000000004103b8        0x8
 .text._APP_GPS_Tasks
                0x00000000004103b8        0x8 build/sam_e70_xult/debug/_ext/1728594169/tasks.o
                0x00000000004103b8                _APP_GPS_Tasks

.text._APP_IMU_Tasks%597
                0x00000000004103c0        0x8
 .text._APP_IMU_Tasks
                0x00000000004103c0        0x8 build/sam_e70_xult/debug/_ext/1728594169/tasks.o
                0x00000000004103c0                _APP_IMU_Tasks

.rodata%598     0x00000000004103c8       0x10
 .rodata        0x00000000004103c8        0x8 build/sam_e70_xult/debug/_ext/404212886/FreeRTOS_tasks.o
 .rodata        0x00000000004103d0        0x8 build/sam_e70_xult/debug/_ext/1360937237/app_gps.o

.text.atoi%600  0x00000000004103d8        0x8
 .text.atoi     0x00000000004103d8        0x8 c:/program files/microchip/xc32/v2.50/bin/bin/../../lib/gcc/pic32c/6.2.1/../../../../pic32c/lib/v7e-m/fpv5/hard\libg_nano.a(lib_a-atoi.o)
                0x00000000004103d8                atoi

.text._DRV_SDMMC_TimerCallback%601
                0x00000000004103e0        0x6
 .text._DRV_SDMMC_TimerCallback
                0x00000000004103e0        0x6 build/sam_e70_xult/debug/_ext/1565510230/drv_sdmmc.o

.text.vListInitialiseItem%602
                0x00000000004103e6        0x6
 .text.vListInitialiseItem
                0x00000000004103e6        0x6 build/sam_e70_xult/debug/_ext/404212886/list.o
                0x00000000004103e6                vListInitialiseItem

.text.atof%603  0x00000000004103ec        0x6
 .text.atof     0x00000000004103ec        0x6 c:/program files/microchip/xc32/v2.50/bin/bin/../../lib/gcc/pic32c/6.2.1/../../../../pic32c/lib/v7e-m/fpv5/hard\libg_nano.a(lib_a-atof.o)
                0x00000000004103ec                atof

.text.__locale_ctype_ptr_l%604
                0x00000000004103f2        0x6
 .text.__locale_ctype_ptr_l
                0x00000000004103f2        0x6 c:/program files/microchip/xc32/v2.50/bin/bin/../../lib/gcc/pic32c/6.2.1/../../../../pic32c/lib/v7e-m/fpv5/hard\libg_nano.a(lib_a-locale.o)
                0x00000000004103f2                __locale_ctype_ptr_l

.rodata%605     0x00000000004103f8        0x5
 .rodata        0x00000000004103f8        0x5 c:/program files/microchip/xc32/v2.50/bin/bin/../../lib/gcc/pic32c/6.2.1/../../../../pic32c/lib/v7e-m/fpv5/hard\libm_nano.a(lib_a-w_sqrt.o)

.text.PIO_PortInterruptEnable%606
                0x0000000000401b54        0x4
 .text.PIO_PortInterruptEnable
                0x0000000000401b54        0x4 build/sam_e70_xult/debug/_ext/1055488423/plib_pio.o
                0x0000000000401b54                PIO_PortInterruptEnable

.text.disk_status%607
                0x00000000004057b4        0x4
 .text.disk_status
                0x00000000004057b4        0x4 build/sam_e70_xult/debug/_ext/1893760823/diskio.o
                0x00000000004057b4                disk_status

.text.FATFS_tell%608
                0x0000000000405e1c        0x4
 .text.FATFS_tell
                0x0000000000405e1c        0x4 build/sam_e70_xult/debug/_ext/1305476372/sys_fs_fat_interface.o
                0x0000000000405e1c                FATFS_tell

.text.FATFS_size%609
                0x00000000004061f4        0x4
 .text.FATFS_size
                0x00000000004061f4        0x4 build/sam_e70_xult/debug/_ext/1305476372/sys_fs_fat_interface.o
                0x00000000004061f4                FATFS_size

.text.Dummy_Handler%610
                0x000000000040672c        0x4
 .text.Dummy_Handler
                0x000000000040672c        0x4 build/sam_e70_xult/debug/_ext/1728594169/interrupts.o
                0x000000000040672c                DACC_Handler
                0x000000000040672c                TC0_CH2_Handler
                0x000000000040672c                TC3_CH1_Handler
                0x000000000040672c                UART3_Handler
                0x000000000040672c                UART2_Handler
                0x000000000040672c                TRNG_Handler
                0x000000000040672c                AFEC1_Handler
                0x000000000040672c                TC0_CH1_Handler
                0x000000000040672c                QSPI_Handler
                0x000000000040672c                ISI_Handler
                0x000000000040672c                MCAN0_INT0_Handler
                0x000000000040672c                RSWDT_Handler
                0x000000000040672c                TC1_CH2_Handler
                0x000000000040672c                RTT_Handler
                0x000000000040672c                USBHS_Handler
                0x000000000040672c                IXC_Handler
                0x000000000040672c                CCF_Handler
                0x000000000040672c                RTC_Handler
                0x000000000040672c                WDT_Handler
                0x000000000040672c                MCAN1_INT1_Handler
                0x000000000040672c                UART1_Handler
                0x000000000040672c                Dummy_Handler
                0x000000000040672c                TWIHS1_Handler
                0x000000000040672c                TC3_CH2_Handler
                0x000000000040672c                UART4_Handler
                0x000000000040672c                TC2_CH0_Handler
                0x000000000040672c                PWM1_Handler
                0x000000000040672c                AFEC0_Handler
                0x000000000040672c                CCW_Handler
                0x000000000040672c                SSC_Handler
                0x000000000040672c                TC1_CH0_Handler
                0x000000000040672c                ACC_Handler
                0x000000000040672c                PMC_Handler
                0x000000000040672c                GMAC_Handler
                0x000000000040672c                TC2_CH2_Handler
                0x000000000040672c                MCAN0_INT1_Handler
                0x000000000040672c                GMAC_Q5_Handler
                0x000000000040672c                SUPC_Handler
                0x000000000040672c                TC2_CH1_Handler
                0x000000000040672c                MCAN1_INT0_Handler
                0x000000000040672c                EFC_Handler
                0x000000000040672c                GMAC_Q1_Handler
                0x000000000040672c                SDRAMC_Handler
                0x000000000040672c                GMAC_Q2_Handler
                0x000000000040672c                PIOE_Handler
                0x000000000040672c                SPI1_Handler
                0x000000000040672c                TC1_CH1_Handler
                0x000000000040672c                GMAC_Q3_Handler
                0x000000000040672c                TWIHS2_Handler
                0x000000000040672c                I2SC0_Handler
                0x000000000040672c                UART0_Handler
                0x000000000040672c                I2SC1_Handler
                0x000000000040672c                TC0_CH0_Handler
                0x000000000040672c                PIOC_Handler
                0x000000000040672c                GMAC_Q4_Handler
                0x000000000040672c                FPU_Handler
                0x000000000040672c                RSTC_Handler
                0x000000000040672c                ICM_Handler
                0x000000000040672c                AES_Handler
                0x000000000040672c                SPI0_Handler

.text.NonMaskableInt_Handler%611
                0x000000000040a3e4        0x4
 .text.NonMaskableInt_Handler
                0x000000000040a3e4        0x4 build/sam_e70_xult/debug/_ext/1728594169/exceptions.o
                0x000000000040a3e4                NonMaskableInt_Handler

.text.HardFault_Handler%612
                0x000000000040b05c        0x4
 .text.HardFault_Handler
                0x000000000040b05c        0x4 build/sam_e70_xult/debug/_ext/1728594169/exceptions.o
                0x000000000040b05c                HardFault_Handler

.text.DebugMonitor_Handler%613
                0x000000000040bd44        0x4
 .text.DebugMonitor_Handler
                0x000000000040bd44        0x4 build/sam_e70_xult/debug/_ext/1728594169/exceptions.o
                0x000000000040bd44                DebugMonitor_Handler

.text.MemoryManagement_Handler%614
                0x000000000040d2fc        0x4
 .text.MemoryManagement_Handler
                0x000000000040d2fc        0x4 build/sam_e70_xult/debug/_ext/1728594169/exceptions.o
                0x000000000040d2fc                MemoryManagement_Handler

.text.BusFault_Handler%615
                0x000000000040e61c        0x4
 .text.BusFault_Handler
                0x000000000040e61c        0x4 build/sam_e70_xult/debug/_ext/1728594169/exceptions.o
                0x000000000040e61c                BusFault_Handler

.text.UsageFault_Handler%616
                0x000000000040e9a4        0x4
 .text.UsageFault_Handler
                0x000000000040e9a4        0x4 build/sam_e70_xult/debug/_ext/1728594169/exceptions.o
                0x000000000040e9a4                UsageFault_Handler

.text%617       0x000000000040f3cc        0x4
 .text          0x000000000040f3cc        0x4 c:/program files/microchip/xc32/v2.50/bin/bin/../../lib/gcc/pic32c/6.2.1/v7e-m/fpv5/hard\libgcc.a(_dvmd_tls.o)
                0x000000000040f3cc                __aeabi_idiv0
                0x000000000040f3cc                __aeabi_ldiv0

.text.itoa%618  0x000000000040f56c        0x4
 .text.itoa     0x000000000040f56c        0x4 c:/program files/microchip/xc32/v2.50/bin/bin/../../lib/gcc/pic32c/6.2.1/../../../../pic32c/lib/v7e-m/fpv5/hard\libg_nano.a(lib_a-itoa.o)
                0x000000000040f56c                itoa

.text.__localeconv_l%619
                0x00000000004103fe        0x4
 .text.__localeconv_l
                0x00000000004103fe        0x4 c:/program files/microchip/xc32/v2.50/bin/bin/../../lib/gcc/pic32c/6.2.1/../../../../pic32c/lib/v7e-m/fpv5/hard\libg_nano.a(lib_a-localeconv.o)
                0x00000000004103fe                __localeconv_l

.text.atan2%620
                0x0000000000410402        0x4
 .text.atan2    0x0000000000410402        0x4 c:/program files/microchip/xc32/v2.50/bin/bin/../../lib/gcc/pic32c/6.2.1/../../../../pic32c/lib/v7e-m/fpv5/hard\libm_nano.a(lib_a-w_atan2.o)
                0x0000000000410402                atan2

.text.matherr%621
                0x0000000000410406        0x4
 .text.matherr  0x0000000000410406        0x4 c:/program files/microchip/xc32/v2.50/bin/bin/../../lib/gcc/pic32c/6.2.1/../../../../pic32c/lib/v7e-m/fpv5/hard\libm_nano.a(lib_a-s_matherr.o)
                0x0000000000410406                matherr

.text.Dummy_App_Func%622
                0x00000000004082fe        0x2
 .text.Dummy_App_Func
                0x00000000004082fe        0x2 build/sam_e70_xult/debug/_ext/1728594169/startup_xc32.o
                0x00000000004082fe                _on_reset
                0x00000000004082fe                _on_bootstrap
                0x00000000004082fe                __xc32_on_reset
                0x00000000004082fe                Dummy_App_Func
                0x00000000004082fe                __xc32_on_bootstrap

.text.vPortFree%623
                0x00000000004087ae        0x2
 .text.vPortFree
                0x00000000004087ae        0x2 build/sam_e70_xult/debug/_ext/1665200909/heap_1.o
                0x00000000004087ae                vPortFree

.text.__malloc_lock%624
                0x000000000040b1ce        0x2
 .text.__malloc_lock
                0x000000000040b1ce        0x2 c:/program files/microchip/xc32/v2.50/bin/bin/../../lib/gcc/pic32c/6.2.1/../../../../pic32c/lib/v7e-m/fpv5/hard\libg_nano.a(lib_a-mlock.o)
                0x000000000040b1ce                __malloc_lock

.text.__malloc_unlock%625
                0x000000000040bada        0x2
 .text.__malloc_unlock
                0x000000000040bada        0x2 c:/program files/microchip/xc32/v2.50/bin/bin/../../lib/gcc/pic32c/6.2.1/../../../../pic32c/lib/v7e-m/fpv5/hard\libg_nano.a(lib_a-mlock.o)
                0x000000000040bada                __malloc_unlock
